 pkcs11

 Timestamp is 5fa29528 (Wed Nov  4 19:48:56 2020)

 Preferred load address is 0000000180000000

 Start         Length     Name                   Class
 0001:00000000 00067440H .text$mn                CODE
 0001:00067440 00000020H .text$mn$00             CODE
 0001:00067460 0000e770H .text$x                 CODE
 0001:00075bd0 00000011H .text$yd                CODE
 0002:00000000 00000290H .idata$5                DATA
 0002:00000290 00000010H .00cfg                  DATA
 0002:000002a0 00000008H .CRT$XCA                DATA
 0002:000002a8 00000008H .CRT$XCU                DATA
 0002:000002b0 00000008H .CRT$XCZ                DATA
 0002:000002b8 00000008H .CRT$XIA                DATA
 0002:000002c0 00000020H .CRT$XIC                DATA
 0002:000002e0 00000008H .CRT$XIZ                DATA
 0002:000002e8 00000008H .CRT$XLA                DATA
 0002:000002f0 00000008H .CRT$XLZ                DATA
 0002:000002f8 00000008H .CRT$XPA                DATA
 0002:00000300 00000010H .CRT$XPX                DATA
 0002:00000310 00000008H .CRT$XPXA               DATA
 0002:00000318 00000008H .CRT$XPZ                DATA
 0002:00000320 00000008H .CRT$XTA                DATA
 0002:00000328 00000008H .CRT$XTZ                DATA
 0002:00000330 00000000H .gfids$y                DATA
 0002:00000330 00010070H .rdata                  DATA
 0002:000103a0 00000028H .rdata$T                DATA
 0002:000103c8 00000404H .rdata$r                DATA
 0002:000107cc 0000044cH .rdata$zzzdbg           DATA
 0002:00010c18 00000008H .rtc$IAA                DATA
 0002:00010c20 00000008H .rtc$IZZ                DATA
 0002:00010c28 00000008H .rtc$TAA                DATA
 0002:00010c30 00000008H .rtc$TZZ                DATA
 0002:00010c38 00000004H .tls                    DATA
 0002:00010c3c 00000004H .tls$                   DATA
 0002:00010c40 00000010H .tls$ZZZ                DATA
 0002:00010c50 00014250H .xdata                  DATA
 0002:00024ea0 000002ccH .xdata$x                DATA
 0002:0002516c 00000020H .didat$2                DATA
 0002:0002518c 00000024H .didat$3                DATA
 0002:000251b0 00000270H .didat$4                DATA
 0002:00025420 00001688H .didat$6                DATA
 0002:00026aa8 00000278H .didat$7                DATA
 0002:00026d20 00000050H .edata                  DATA
 0002:00026d70 00000014H .idata$2                DATA
 0002:00026d84 00000014H .idata$3                DATA
 0002:00026d98 00000290H .idata$4                DATA
 0002:00027028 000005e6H .idata$6                DATA
 0003:00000000 00000a90H .data                   DATA
 0003:00000a90 000001a0H .data$r                 DATA
 0003:00000c30 00000270H .didat$5                DATA
 0003:00000ea0 000012bcH .bss                    DATA
 0004:00000000 000040bcH .pdata                  DATA
 0005:00000000 00000060H .rsrc$01                DATA
 0005:00000060 00000180H .rsrc$02                DATA

  Address         Publics by Value              Rva+Base               Lib:Object

 0000:00000000       __hybrid_code_map_count    0000000000000000     <absolute>
 0000:00000000       __guard_longjmp_count      0000000000000000     <absolute>
 0000:00000000       __guard_longjmp_table      0000000000000000     <absolute>
 0000:00000000       __hybrid_code_map          0000000000000000     <absolute>
 0000:00000000       __guard_iat_count          0000000000000000     <absolute>
 0000:00000000       __guard_iat_table          0000000000000000     <absolute>
 0000:00000000       __volatile_metadata        0000000000000000     <absolute>
 0000:00000000       __guard_fids_count         0000000000000000     <absolute>
 0000:00000000       __enclave_config           0000000000000000     <absolute>
 0000:00000000       ___safe_se_handler_count   0000000000000000     <absolute>
 0000:00000000       ___safe_se_handler_table   0000000000000000     <absolute>
 0000:00000000       __guard_fids_table         0000000000000000     <absolute>
 0000:00000000       __hybrid_auxiliary_iat     0000000000000000     <absolute>
 0000:00000000       __dynamic_value_reloc_table 0000000000000000     <absolute>
 0000:00000100       __guard_flags              0000000000000100     <absolute>
 0000:00000000       __ImageBase                0000000180000000     <linker-defined>
 0001:00000000       ??1HandleScope@Nan@@QEAA@XZ 0000000180001000 f i main.obj
 0001:00000000       ??1EscapableHandleScope@Nan@@QEAA@XZ 0000000180001000 f i template.obj
 0001:00000010       ?init@@YAXV?$Local@VObject@v8@@@v8@@@Z 0000000180001010 f   main.obj
 0001:00000270       __local_stdio_printf_options 0000000180001270 f i dl.obj
 0001:00000280       sprintf                    0000000180001280 f i dl.obj
 0001:000002e0       dlerror                    00000001800012e0 f   dl.obj
 0001:00000320       ?DefineOwnProperty@Nan@@YA?AV?$Maybe@_N@1@V?$Local@VObject@v8@@@v8@@V?$Local@VString@v8@@@4@V?$Local@VValue@v8@@@4@W4PropertyAttribute@4@@Z 0000000180001320 f i const.obj
 0001:000003d0       ?New@Nan@@YA?AV?$MaybeLocal@VString@v8@@@v8@@PEBD@Z 00000001800013d0 f i const.obj
 0001:00000410       ?declare_attributes@@YAXV?$Local@VObject@v8@@@v8@@@Z 0000000180001410 f   const.obj
 0001:00003250       ?declare_flags@@YAXV?$Local@VObject@v8@@@v8@@@Z 0000000180004250 f   const.obj
 0001:000048a0       ?declare_objects@@YAXV?$Local@VObject@v8@@@v8@@@Z 00000001800058a0 f   const.obj
 0001:00004f60       ?declare_ket_types@@YAXV?$Local@VObject@v8@@@v8@@@Z 0000000180005f60 f   const.obj
 0001:00006c30       ?declare_mechanisms@@YAXV?$Local@VObject@v8@@@v8@@@Z 0000000180007c30 f   const.obj
 0001:0000e220       ?declare_certificates@@YAXV?$Local@VObject@v8@@@v8@@@Z 000000018000f220 f   const.obj
 0001:0000e450       ?declare_mgf@@YAXV?$Local@VObject@v8@@@v8@@@Z 000000018000f450 f   const.obj
 0001:0000e7e0       ?declare_kdf@@YAXV?$Local@VObject@v8@@@v8@@@Z 000000018000f7e0 f   const.obj
 0001:0000ee00       ?declare_params@@YAXV?$Local@VObject@v8@@@v8@@@Z 000000018000fe00 f   const.obj
 0001:0000f2d0       ?declare_user_types@@YAXV?$Local@VObject@v8@@@v8@@@Z 00000001800102d0 f   const.obj
 0001:0000f500       ??$New@VNumber@v8@@H@Nan@@YA?AV?$Local@VNumber@v8@@@v8@@H@Z 0000000180010500 f i const.obj
 0001:0000f540       ??$New@VNumber@v8@@I@Nan@@YA?AV?$Local@VNumber@v8@@@v8@@I@Z 0000000180010540 f i const.obj
 0001:0000f580       ?_Get_deleter@_Ref_count_base@std@@UEBAPEAXAEBVtype_info@@@Z 0000000180010580 f i error.obj
 0001:0000f590       ?to_string@std@@YA?AV?$basic_string@DU?$char_traits@D@std@@V?$allocator@D@2@@1@H@Z 0000000180010590 f i error.obj
 0001:0000f590       ??$_Integral_to_string@DH@std@@YA?AV?$basic_string@DU?$char_traits@D@std@@V?$allocator@D@2@@0@H@Z 0000000180010590 f i error.obj
 0001:0000f670       ?ToString@Error@@QEAA?AV?$shared_ptr@V?$basic_string@DU?$char_traits@D@std@@V?$allocator@D@2@@std@@@std@@XZ 0000000180010670 f   error.obj
 0001:0000f7a0       ?Stack@Error@@IEAA?AV?$shared_ptr@V?$basic_string@DU?$char_traits@D@std@@V?$allocator@D@2@@std@@@std@@XZ 00000001800107a0 f   error.obj
 0001:0000faf0       ??1?$shared_ptr@V?$basic_string@DU?$char_traits@D@std@@V?$allocator@D@2@@std@@@std@@QEAA@XZ 0000000180010af0 f i error.obj
 0001:0000faf0       ??1?$shared_ptr@VAttributes@@@std@@QEAA@XZ 0000000180010af0 f i pkcs11.obj
 0001:0000faf0       ??1?$shared_ptr@UCK_ATTRIBUTE@@@std@@QEAA@XZ 0000000180010af0 f i template.obj
 0001:0000faf0       ??1?$shared_ptr@UCK_SLOT_INFO@@@std@@QEAA@XZ 0000000180010af0 f i pkcs11.obj
 0001:0000faf0       ??1?$shared_ptr@UCK_TOKEN_INFO@@@std@@QEAA@XZ 0000000180010af0 f i pkcs11.obj
 0001:0000faf0       ??1?$shared_ptr@UCK_INFO@@@std@@QEAA@XZ 0000000180010af0 f i pkcs11.obj
 0001:0000faf0       ??1?$shared_ptr@UCK_MECHANISM_INFO@@@std@@QEAA@XZ 0000000180010af0 f i pkcs11.obj
 0001:0000faf0       ??1?$shared_ptr@VPKCS11@@@std@@QEAA@XZ 0000000180010af0 f i node.obj
 0001:0000faf0       ??1?$shared_ptr@VMechanism@@@std@@QEAA@XZ 0000000180010af0 f i pkcs11.obj
 0001:0000faf0       ??1?$shared_ptr@UCK_SESSION_INFO@@@std@@QEAA@XZ 0000000180010af0 f i pkcs11.obj
 0001:0000faf0       ??1?$shared_ptr@VError@@@std@@QEAA@XZ 0000000180010af0 f i template.obj
 0001:0000faf0       ??1?$shared_ptr@UKEY_PAIR@@@std@@QEAA@XZ 0000000180010af0 f i pkcs11.obj
 0001:0000fb50       ??0?$shared_ptr@VError@@@std@@QEAA@$$QEAV01@@Z 0000000180010b50 f i template.obj
 0001:0000fb50       ??0?$shared_ptr@V?$basic_string@DU?$char_traits@D@std@@V?$allocator@D@2@@std@@@std@@QEAA@$$QEAV01@@Z 0000000180010b50 f i error.obj
 0001:0000fb80       ??Y?$basic_string@DU?$char_traits@D@std@@V?$allocator@D@2@@std@@QEAAAEAV01@AEBV01@@Z 0000000180010b80 f i error.obj
 0001:0000fb80       ?append@?$basic_string@DU?$char_traits@D@std@@V?$allocator@D@2@@std@@QEAAAEAV12@AEBV12@@Z 0000000180010b80 f i error.obj
 0001:0000fba0       ??1?$basic_string@DU?$char_traits@D@std@@V?$allocator@D@2@@std@@QEAA@XZ 0000000180010ba0 f i error.obj
 0001:0000fba0       ?_Tidy_deallocate@?$basic_string@DU?$char_traits@D@std@@V?$allocator@D@2@@std@@QEAAXXZ 0000000180010ba0 f i error.obj
 0001:0000fc00       ??0?$basic_string@DU?$char_traits@D@std@@V?$allocator@D@2@@std@@QEAA@QEBD@Z 0000000180010c00 f i error.obj
 0001:0000fc40       ?assign@?$basic_string@DU?$char_traits@D@std@@V?$allocator@D@2@@std@@QEAAAEAV12@QEBD_K@Z 0000000180010c40 f i error.obj
 0001:0000fd90       ?append@?$basic_string@DU?$char_traits@D@std@@V?$allocator@D@2@@std@@QEAAAEAV12@QEBD_K@Z 0000000180010d90 f i error.obj
 0001:0000fe10       ??$?0V?$basic_string@DU?$char_traits@D@std@@V?$allocator@D@2@@std@@$0A@@?$shared_ptr@V?$basic_string@DU?$char_traits@D@std@@V?$allocator@D@2@@std@@@std@@QEAA@PEAV?$basic_string@DU?$char_traits@D@std@@V?$allocator@D@2@@1@@Z 0000000180010e10 f i error.obj
 0001:0000fe70       ??$?CV?$basic_string@DU?$char_traits@D@std@@V?$allocator@D@2@@std@@$0A@@?$shared_ptr@V?$basic_string@DU?$char_traits@D@std@@V?$allocator@D@2@@std@@@std@@QEBAPEAV?$basic_string@DU?$char_traits@D@std@@V?$allocator@D@2@@1@XZ 0000000180010e70 f i pkcs11.obj
 0001:0000fe70       ??$?DV?$basic_string@DU?$char_traits@D@std@@V?$allocator@D@2@@std@@$0A@@?$shared_ptr@V?$basic_string@DU?$char_traits@D@std@@V?$allocator@D@2@@std@@@std@@QEBAAEAV?$basic_string@DU?$char_traits@D@std@@V?$allocator@D@2@@1@XZ 0000000180010e70 f i error.obj
 0001:0000fe80       ??$_Move_construct_from@V?$basic_string@DU?$char_traits@D@std@@V?$allocator@D@2@@std@@@?$_Ptr_base@V?$basic_string@DU?$char_traits@D@std@@V?$allocator@D@2@@std@@@std@@IEAAX$$QEAV01@@Z 0000000180010e80 f i error.obj
 0001:0000fea0       ??$_Reallocate_grow_by@V<lambda_65e615be2a453ca0576c979606f46740>@@PEBD_K@?$basic_string@DU?$char_traits@D@std@@V?$allocator@D@2@@std@@QEAAAEAV01@_KV<lambda_65e615be2a453ca0576c979606f46740>@@PEBD_K@Z 0000000180010ea0 f i error.obj
 0001:00010020       ?_Xlen@?$basic_string@DU?$char_traits@D@std@@V?$allocator@D@2@@std@@SAXXZ 0000000180011020 f i error.obj
 0001:00010040       ??$_Setp@V?$basic_string@DU?$char_traits@D@std@@V?$allocator@D@2@@std@@@?$shared_ptr@V?$basic_string@DU?$char_traits@D@std@@V?$allocator@D@2@@std@@@std@@AEAAXPEAV?$basic_string@DU?$char_traits@D@std@@V?$allocator@D@2@@1@U?$integral_constant@_N$0A@@1@@Z 0000000180011040 f i error.obj
 0001:00010090       ??_G?$basic_string@DU?$char_traits@D@std@@V?$allocator@D@2@@std@@QEAAPEAXI@Z 0000000180011090 f i error.obj
 0001:00010100       ?_Delete_this@?$_Ref_count@VParamAesCBC@@@std@@EEAAXXZ 0000000180011100 f i mech.obj
 0001:00010100       ?_Delete_this@?$_Ref_count@VError@@@std@@EEAAXXZ 0000000180011100 f i template.obj
 0001:00010100       ?_Delete_this@?$_Ref_count@VPKCS11@@@std@@EEAAXXZ 0000000180011100 f i node.obj
 0001:00010100       ?_Delete_this@?$_Ref_count_obj@UKEY_PAIR@@@std@@EEAAXXZ 0000000180011100 f i pkcs11.obj
 0001:00010100       ?_Delete_this@?$_Ref_count@VAttributes@@@std@@EEAAXXZ 0000000180011100 f i pkcs11.obj
 0001:00010100       ?_Delete_this@?$_Ref_count@VParamRsaPSS@@@std@@EEAAXXZ 0000000180011100 f i mech.obj
 0001:00010100       ?_Delete_this@?$_Ref_count@UCK_ATTRIBUTE@@@std@@EEAAXXZ 0000000180011100 f i template.obj
 0001:00010100       ?_Delete_this@?$_Ref_count@VMechanism@@@std@@EEAAXXZ 0000000180011100 f i node.obj
 0001:00010100       ?_Delete_this@?$_Ref_count@VParamEcdh1@@@std@@EEAAXXZ 0000000180011100 f i mech.obj
 0001:00010100       ?_Delete_this@?$_Ref_count@V?$basic_string@DU?$char_traits@D@std@@V?$allocator@D@2@@std@@@std@@EEAAXXZ 0000000180011100 f i error.obj
 0001:00010100       ?_Delete_this@?$_Ref_count_obj@UCK_SESSION_INFO@@@std@@EEAAXXZ 0000000180011100 f i pkcs11.obj
 0001:00010100       ?_Delete_this@?$_Ref_count@VParamBuffer@@@std@@EEAAXXZ 0000000180011100 f i mech.obj
 0001:00010100       ?_Delete_this@?$_Ref_count@VParamAesCCM@@@std@@EEAAXXZ 0000000180011100 f i mech.obj
 0001:00010100       ?_Delete_this@?$_Ref_count_obj@UCK_INFO@@@std@@EEAAXXZ 0000000180011100 f i pkcs11.obj
 0001:00010100       ?_Delete_this@?$_Ref_count@VParamAesGCMv240@@@std@@EEAAXXZ 0000000180011100 f i mech.obj
 0001:00010100       ?_Delete_this@?$_Ref_count@VParamRsaOAEP@@@std@@EEAAXXZ 0000000180011100 f i mech.obj
 0001:00010100       ?_Delete_this@?$_Ref_count_obj@UCK_SLOT_INFO@@@std@@EEAAXXZ 0000000180011100 f i pkcs11.obj
 0001:00010100       ?_Delete_this@?$_Ref_count_obj@UCK_TOKEN_INFO@@@std@@EEAAXXZ 0000000180011100 f i pkcs11.obj
 0001:00010100       ?_Delete_this@?$_Ref_count@VParamAesGCM@@@std@@EEAAXXZ 0000000180011100 f i mech.obj
 0001:00010100       ?_Delete_this@?$_Ref_count_obj@UCK_MECHANISM_INFO@@@std@@EEAAXXZ 0000000180011100 f i pkcs11.obj
 0001:00010120       ?_Destroy@?$_Ref_count@V?$basic_string@DU?$char_traits@D@std@@V?$allocator@D@2@@std@@@std@@EEAAXXZ 0000000180011120 f i error.obj
 0001:00010130       ??_E?$_Ref_count@VParamEcdh1@@@std@@UEAAPEAXI@Z 0000000180011130 f i * CIL library *:* CIL module *
 0001:00010130       ??_G?$_Ref_count@VParamEcdh1@@@std@@UEAAPEAXI@Z 0000000180011130 f i mech.obj
 0001:00010130       ??_E?$_Ref_count@V?$basic_string@DU?$char_traits@D@std@@V?$allocator@D@2@@std@@@std@@UEAAPEAXI@Z 0000000180011130 f i * CIL library *:* CIL module *
 0001:00010130       ??_E?$_Ref_count@VAttributes@@@std@@UEAAPEAXI@Z 0000000180011130 f i * CIL library *:* CIL module *
 0001:00010130       ??_G?$_Ref_count@VParamRsaPSS@@@std@@UEAAPEAXI@Z 0000000180011130 f i mech.obj
 0001:00010130       ??_E?$_Ref_count@VParamAesGCM@@@std@@UEAAPEAXI@Z 0000000180011130 f i * CIL library *:* CIL module *
 0001:00010130       ??_E?$_Ref_count@VParamAesCCM@@@std@@UEAAPEAXI@Z 0000000180011130 f i * CIL library *:* CIL module *
 0001:00010130       ??_G?$_Ref_count@VParamAesGCM@@@std@@UEAAPEAXI@Z 0000000180011130 f i mech.obj
 0001:00010130       ??_G?$_Ref_count@VParamBuffer@@@std@@UEAAPEAXI@Z 0000000180011130 f i mech.obj
 0001:00010130       ??_G?$_Ref_count@UCK_ATTRIBUTE@@@std@@UEAAPEAXI@Z 0000000180011130 f i template.obj
 0001:00010130       ??_G?$_Ref_count@VParamAesCBC@@@std@@UEAAPEAXI@Z 0000000180011130 f i mech.obj
 0001:00010130       ??_E?$_Ref_count@VPKCS11@@@std@@UEAAPEAXI@Z 0000000180011130 f i * CIL library *:* CIL module *
 0001:00010130       ??_G?$_Ref_count@VPKCS11@@@std@@UEAAPEAXI@Z 0000000180011130 f i node.obj
 0001:00010130       ??_E?$_Ref_count_obj@UKEY_PAIR@@@std@@UEAAPEAXI@Z 0000000180011130 f i * CIL library *:* CIL module *
 0001:00010130       ??_E?$_Ref_count@VError@@@std@@UEAAPEAXI@Z 0000000180011130 f i * CIL library *:* CIL module *
 0001:00010130       ??_E?$_Ref_count@VMechanism@@@std@@UEAAPEAXI@Z 0000000180011130 f i * CIL library *:* CIL module *
 0001:00010130       ??_E?$_Ref_count@VParamRsaOAEP@@@std@@UEAAPEAXI@Z 0000000180011130 f i * CIL library *:* CIL module *
 0001:00010130       ??_E?$_Ref_count@VParamAesGCMv240@@@std@@UEAAPEAXI@Z 0000000180011130 f i * CIL library *:* CIL module *
 0001:00010130       ??_E?$_Ref_count@VParamAesCBC@@@std@@UEAAPEAXI@Z 0000000180011130 f i * CIL library *:* CIL module *
 0001:00010130       ??_G?$_Ref_count@VAttributes@@@std@@UEAAPEAXI@Z 0000000180011130 f i pkcs11.obj
 0001:00010130       ??_G?$_Ref_count@VParamAesGCMv240@@@std@@UEAAPEAXI@Z 0000000180011130 f i mech.obj
 0001:00010130       ??_G?$_Ref_count@VError@@@std@@UEAAPEAXI@Z 0000000180011130 f i template.obj
 0001:00010130       ??_E?$_Ref_count@VParamRsaPSS@@@std@@UEAAPEAXI@Z 0000000180011130 f i * CIL library *:* CIL module *
 0001:00010130       ??_E?$_Ref_count@UCK_ATTRIBUTE@@@std@@UEAAPEAXI@Z 0000000180011130 f i * CIL library *:* CIL module *
 0001:00010130       ??_G?$_Ref_count@VMechanism@@@std@@UEAAPEAXI@Z 0000000180011130 f i node.obj
 0001:00010130       ??_G?$_Ref_count@VParamRsaOAEP@@@std@@UEAAPEAXI@Z 0000000180011130 f i mech.obj
 0001:00010130       ??_G?$_Ref_count@V?$basic_string@DU?$char_traits@D@std@@V?$allocator@D@2@@std@@@std@@UEAAPEAXI@Z 0000000180011130 f i error.obj
 0001:00010130       ??_E?$_Ref_count@VParamBuffer@@@std@@UEAAPEAXI@Z 0000000180011130 f i * CIL library *:* CIL module *
 0001:00010130       ??_G?$_Ref_count_obj@UKEY_PAIR@@@std@@UEAAPEAXI@Z 0000000180011130 f i pkcs11.obj
 0001:00010130       ??_G?$_Ref_count@VParamAesCCM@@@std@@UEAAPEAXI@Z 0000000180011130 f i mech.obj
 0001:00010160       ?Set@Nan@@YA?AV?$Maybe@_N@1@V?$Local@VObject@v8@@@v8@@V?$Local@VValue@v8@@@4@1@Z 0000000180011160 f i template.obj
 0001:00010200       ?Get@Nan@@YA?AV?$MaybeLocal@VValue@v8@@@v8@@V?$Local@VObject@v8@@@3@V?$Local@VValue@v8@@@3@@Z 0000000180011200 f i template.obj
 0001:00010290       ??0Utf8String@Nan@@QEAA@V?$Local@VValue@v8@@@v8@@@Z 0000000180011290 f i template.obj
 0001:000103c0       ??1Utf8String@Nan@@QEAA@XZ 00000001800113c0 f i template.obj
 0001:000103e0       ??0Error@@QEAA@PEBDV?$shared_ptr@VError@@@std@@0H@Z 00000001800113e0 f i template.obj
 0001:00010f10       ??_EAttributes@@UEAAPEAXI@Z 0000000180011f10 f i * CIL library *:* CIL module *
 0001:00010f10       ??_GAttributes@@UEAAPEAXI@Z 0000000180011f10 f i template.obj
 0001:00010fc0       ??_G?$V8Converter@UTEMPLATE@@@@UEAAPEAXI@Z 0000000180011fc0 f i template.obj
 0001:00010fc0       ??_E?$V8Converter@UTEMPLATE@@@@UEAAPEAXI@Z 0000000180011fc0 f i * CIL library *:* CIL module *
 0001:00010ff0       ?New@Attributes@@UEAAPEAUTEMPLATE@@XZ 0000000180011ff0 f   template.obj
 0001:00011080       ?Push@Attributes@@QEAAXPEAUCK_ATTRIBUTE@@@Z 0000000180012080 f   template.obj
 0001:00011150       ?FromV8@Attributes@@UEAAXV?$Local@VValue@v8@@@v8@@@Z 0000000180012150 f   template.obj
 0001:00011470       ?ToV8@Attributes@@UEAA?AV?$Local@VObject@v8@@@v8@@XZ 0000000180012470 f   template.obj
 0001:00011590       ?New@?$V8Converter@UTEMPLATE@@@@UEAAPEAUTEMPLATE@@XZ 0000000180012590 f i template.obj
 0001:00011590       ?New@?$V8Converter@UCK_MECHANISM@@@@UEAAPEAUCK_MECHANISM@@XZ 0000000180012590 f i mech.obj
 0001:000115b0       ?ToV8@?$V8Converter@UTEMPLATE@@@@UEAA?AV?$Local@VObject@v8@@@v8@@XZ 00000001800125b0 f i template.obj
 0001:00011620       ?FromV8@?$V8Converter@UTEMPLATE@@@@UEAAXV?$Local@VValue@v8@@@v8@@@Z 0000000180012620 f i template.obj
 0001:00011690       ??0?$shared_ptr@VError@@@std@@QEAA@AEBV01@@Z 0000000180012690 f i template.obj
 0001:000116c0       ??0?$shared_ptr@VError@@@std@@QEAA@$$T@Z 00000001800126c0 f i template.obj
 0001:000116d0       ??$move@AEAV?$shared_ptr@VError@@@std@@@std@@YA$$QEAV?$shared_ptr@VError@@@0@AEAV10@@Z 00000001800126d0 f i template.obj
 0001:000116e0       ??$?0VError@@$0A@@?$shared_ptr@VError@@@std@@QEAA@PEAVError@@@Z 00000001800126e0 f i template.obj
 0001:00011740       ??_GError@@QEAAPEAXI@Z     0000000180012740 f i template.obj
 0001:00011820       ?_Destroy@?$_Ref_count@UCK_ATTRIBUTE@@@std@@EEAAXXZ 0000000180012820 f i template.obj
 0001:00011830       ?_Destroy@?$_Ref_count@VError@@@std@@EEAAXXZ 0000000180012830 f i template.obj
 0001:00011840       _guard_check_icall_nop     0000000180012840 f i LIBCMT:guard_support.obj
 0001:00011840       ?_Destroy@?$_Ref_count_obj@UKEY_PAIR@@@std@@EEAAXXZ 0000000180012840 f i pkcs11.obj
 0001:00011840       ?_Destroy@?$_Ref_count_obj@UCK_SESSION_INFO@@@std@@EEAAXXZ 0000000180012840 f i pkcs11.obj
 0001:00011840       ?_Destroy@?$_Ref_count_obj@UCK_MECHANISM_INFO@@@std@@EEAAXXZ 0000000180012840 f i pkcs11.obj
 0001:00011840       ?_Destroy@?$_Ref_count_obj@UCK_TOKEN_INFO@@@std@@EEAAXXZ 0000000180012840 f i pkcs11.obj
 0001:00011840       ?FromV8@ParamBase@@UEAAXV?$Local@VValue@v8@@@v8@@@Z 0000000180012840 f i mech.obj
 0001:00011840       ?_Destroy@?$_Ref_count_obj@UCK_SLOT_INFO@@@std@@EEAAXXZ 0000000180012840 f i pkcs11.obj
 0001:00011840       ?_Destroy@?$_Ref_count_obj@UCK_INFO@@@std@@EEAAXXZ 0000000180012840 f i pkcs11.obj
 0001:00011850       ??_GParamBase@@UEAAPEAXI@Z 0000000180012850 f i mech.obj
 0001:00011850       ??_EParamBase@@UEAAPEAXI@Z 0000000180012850 f i * CIL library *:* CIL module *
 0001:00011880       ?Get@ParamBuffer@@UEAAPEAXXZ 0000000180012880 f i mech.obj
 0001:00011890       ?GetSize@ParamBuffer@@UEAAKXZ 0000000180012890 f i mech.obj
 0001:000118a0       ??_GParamBuffer@@UEAAPEAXI@Z 00000001800128a0 f i mech.obj
 0001:000118a0       ??_EParamBuffer@@UEAAPEAXI@Z 00000001800128a0 f i * CIL library *:* CIL module *
 0001:00011930       ??_EParamAesCBC@@UEAAPEAXI@Z 0000000180012930 f i * CIL library *:* CIL module *
 0001:00011930       ??_GParamAesCBC@@UEAAPEAXI@Z 0000000180012930 f i mech.obj
 0001:00011990       ??_GParamAesCCM@@UEAAPEAXI@Z 0000000180012990 f i mech.obj
 0001:00011990       ??_EParamAesCCM@@UEAAPEAXI@Z 0000000180012990 f i * CIL library *:* CIL module *
 0001:00011a00       ??_EParamAesGCM@@UEAAPEAXI@Z 0000000180012a00 f i * CIL library *:* CIL module *
 0001:00011a00       ??_GParamAesGCM@@UEAAPEAXI@Z 0000000180012a00 f i mech.obj
 0001:00011a70       ??_EParamAesGCMv240@@UEAAPEAXI@Z 0000000180012a70 f i * CIL library *:* CIL module *
 0001:00011a70       ??_GParamAesGCMv240@@UEAAPEAXI@Z 0000000180012a70 f i mech.obj
 0001:00011ae0       ??_EParamRsaOAEP@@UEAAPEAXI@Z 0000000180012ae0 f i * CIL library *:* CIL module *
 0001:00011ae0       ??_GParamRsaOAEP@@UEAAPEAXI@Z 0000000180012ae0 f i mech.obj
 0001:00011b40       ??_GParamRsaPSS@@UEAAPEAXI@Z 0000000180012b40 f i mech.obj
 0001:00011b40       ??_EParamRsaPSS@@UEAAPEAXI@Z 0000000180012b40 f i * CIL library *:* CIL module *
 0001:00011b70       ??_EParamEcdh1@@UEAAPEAXI@Z 0000000180012b70 f i * CIL library *:* CIL module *
 0001:00011b70       ??_GParamEcdh1@@UEAAPEAXI@Z 0000000180012b70 f i mech.obj
 0001:00011be0       ??0Mechanism@@QEAA@XZ      0000000180012be0 f   mech.obj
 0001:00011c80       ??_GMechanism@@UEAAPEAXI@Z 0000000180012c80 f i mech.obj
 0001:00011c80       ??_EMechanism@@UEAAPEAXI@Z 0000000180012c80 f i * CIL library *:* CIL module *
 0001:00011d20       ??_E?$V8Converter@UCK_MECHANISM@@@@UEAAPEAXI@Z 0000000180012d20 f i * CIL library *:* CIL module *
 0001:00011d20       ??_G?$V8Converter@UCK_MECHANISM@@@@UEAAPEAXI@Z 0000000180012d20 f i mech.obj
 0001:00011d50       ?FromV8@Mechanism@@UEAAXV?$Local@VValue@v8@@@v8@@@Z 0000000180012d50 f   mech.obj
 0001:00012b80       ?ToV8@Mechanism@@UEAA?AV?$Local@VObject@v8@@@v8@@XZ 0000000180013b80 f   mech.obj
 0001:00012e40       ?New@Mechanism@@UEAAPEAUCK_MECHANISM@@XZ 0000000180013e40 f   mech.obj
 0001:00012ed0       ??4?$shared_ptr@V?$basic_string@DU?$char_traits@D@std@@V?$allocator@D@2@@std@@@std@@QEAAAEAV01@$$QEAV01@@Z 0000000180013ed0 f i pkcs11.obj
 0001:00012ed0       ??4?$shared_ptr@VParamBase@@@std@@QEAAAEAV01@$$QEAV01@@Z 0000000180013ed0 f i mech.obj
 0001:00012f60       ?ToV8@?$V8Converter@UCK_MECHANISM@@@@UEAA?AV?$Local@VObject@v8@@@v8@@XZ 0000000180013f60 f i mech.obj
 0001:00012fd0       ?FromV8@?$V8Converter@UCK_MECHANISM@@@@UEAAXV?$Local@VValue@v8@@@v8@@@Z 0000000180013fd0 f i mech.obj
 0001:00013040       ?GetSize@?$Param@UCK_ECDH1_DERIVE_PARAMS@@@@UEAAKXZ 0000000180014040 f i mech.obj
 0001:00013040       ?GetSize@?$Param@UCK_AES_GCM_PARAMS@@@@UEAAKXZ 0000000180014040 f i mech.obj
 0001:00013040       ?GetSize@?$Param@UCK_AES_CBC_ENCRYPT_DATA_PARAMS@@@@UEAAKXZ 0000000180014040 f i mech.obj
 0001:00013050       ?Get@?$Param@UCK_RSA_PKCS_PSS_PARAMS@@@@UEAAPEAXXZ 0000000180014050 f i mech.obj
 0001:00013050       ?Get@?$Param@UCK_AES_CBC_ENCRYPT_DATA_PARAMS@@@@UEAAPEAXXZ 0000000180014050 f i mech.obj
 0001:00013050       ?Get@?$Param@UCK_AES_GCM_240_PARAMS@@@@UEAAPEAXXZ 0000000180014050 f i mech.obj
 0001:00013050       ?Get@?$Param@UCK_AES_CCM_PARAMS@@@@UEAAPEAXXZ 0000000180014050 f i mech.obj
 0001:00013050       ?Get@?$Param@UCK_AES_GCM_PARAMS@@@@UEAAPEAXXZ 0000000180014050 f i mech.obj
 0001:00013050       ?Get@?$Param@UCK_RSA_PKCS_OAEP_PARAMS@@@@UEAAPEAXXZ 0000000180014050 f i mech.obj
 0001:00013050       ?Get@?$Param@UCK_ECDH1_DERIVE_PARAMS@@@@UEAAPEAXXZ 0000000180014050 f i mech.obj
 0001:00013060       ?GetSize@?$Param@UCK_RSA_PKCS_PSS_PARAMS@@@@UEAAKXZ 0000000180014060 f i mech.obj
 0001:00013070       ?GetSize@?$Param@UCK_RSA_PKCS_OAEP_PARAMS@@@@UEAAKXZ 0000000180014070 f i mech.obj
 0001:00013080       ?GetSize@?$Param@UCK_AES_GCM_240_PARAMS@@@@UEAAKXZ 0000000180014080 f i mech.obj
 0001:00013080       ?GetSize@?$Param@UCK_AES_CCM_PARAMS@@@@UEAAKXZ 0000000180014080 f i mech.obj
 0001:00013090       ?_Destroy@?$_Ref_count@VParamAesCBC@@@std@@EEAAXXZ 0000000180014090 f i mech.obj
 0001:00013090       ?_Destroy@?$_Ref_count@VParamRsaPSS@@@std@@EEAAXXZ 0000000180014090 f i mech.obj
 0001:00013090       ?_Destroy@?$_Ref_count@VParamBuffer@@@std@@EEAAXXZ 0000000180014090 f i mech.obj
 0001:00013090       ?_Destroy@?$_Ref_count@VParamRsaOAEP@@@std@@EEAAXXZ 0000000180014090 f i mech.obj
 0001:00013090       ?_Destroy@?$_Ref_count@VAttributes@@@std@@EEAAXXZ 0000000180014090 f i pkcs11.obj
 0001:00013090       ?_Destroy@?$_Ref_count@VMechanism@@@std@@EEAAXXZ 0000000180014090 f i node.obj
 0001:00013090       ?_Destroy@?$_Ref_count@VParamAesCCM@@@std@@EEAAXXZ 0000000180014090 f i mech.obj
 0001:00013090       ?_Destroy@?$_Ref_count@VParamAesGCMv240@@@std@@EEAAXXZ 0000000180014090 f i mech.obj
 0001:00013090       ?_Destroy@?$_Ref_count@VParamEcdh1@@@std@@EEAAXXZ 0000000180014090 f i mech.obj
 0001:00013090       ?_Destroy@?$_Ref_count@VParamAesGCM@@@std@@EEAAXXZ 0000000180014090 f i mech.obj
 0001:000130b0       ?check_param_buffer@@YA_NV?$Local@VObject@v8@@@v8@@PEBD@Z 00000001800140b0 f   param.obj
 0001:000131b0       ?check_param_number@@YA_NV?$Local@VObject@v8@@@v8@@PEBD@Z 00000001800141b0 f   param.obj
 0001:000132b0       ?check_param_empty@@YA_NV?$Local@VObject@v8@@@v8@@PEBD@Z 00000001800142b0 f   param.obj
 0001:000133f0       ?FromV8@ParamBuffer@@UEAAXV?$Local@VValue@v8@@@v8@@@Z 00000001800143f0 f   param.obj
 0001:000134c0       ??$_Resize@V<lambda_2b51424039c320f102fd798e073c89b2>@@@?$vector@EV?$allocator@E@std@@@std@@AEAAX_KV<lambda_2b51424039c320f102fd798e073c89b2>@@@Z 00000001800144c0 f i param.obj
 0001:00013660       ?_Xlength@?$vector@KV?$allocator@K@std@@@std@@CAXXZ 0000000180014660 f i pkcs11.obj
 0001:00013660       ?_Xlength@?$vector@EV?$allocator@E@std@@@std@@CAXXZ 0000000180014660 f i param.obj
 0001:00013680       ?FromV8@ParamAesCBC@@UEAAXV?$Local@VValue@v8@@@v8@@@Z 0000000180014680 f   param_aes.obj
 0001:00013c30       ?FromV8@ParamAesCCM@@UEAAXV?$Local@VValue@v8@@@v8@@@Z 0000000180014c30 f   param_aes.obj
 0001:00014400       ?Free@ParamAesCCM@@IEAAXXZ 0000000180015400 f   param_aes.obj
 0001:00014440       ?FromV8@ParamAesGCM@@UEAAXV?$Local@VValue@v8@@@v8@@@Z 0000000180015440 f   param_aes.obj
 0001:00014b50       ?Free@ParamAesGCM@@IEAAXXZ 0000000180015b50 f   param_aes.obj
 0001:00014b90       ?FromV8@ParamAesGCMv240@@UEAAXV?$Local@VValue@v8@@@v8@@@Z 0000000180015b90 f   param_aes.obj
 0001:00015360       ?Free@ParamAesGCMv240@@IEAAXXZ 0000000180016360 f   param_aes.obj
 0001:000153a0       ?FromV8@ParamRsaOAEP@@UEAAXV?$Local@VValue@v8@@@v8@@@Z 00000001800163a0 f   param_rsa.obj
 0001:00015aa0       ?FromV8@ParamRsaPSS@@UEAAXV?$Local@VValue@v8@@@v8@@@Z 0000000180016aa0 f   param_rsa.obj
 0001:00015f70       ?FromV8@ParamEcdh1@@UEAAXV?$Local@VValue@v8@@@v8@@@Z 0000000180016f70 f   param_ecdh.obj
 0001:000165e0       ?Free@ParamEcdh1@@IEAAXXZ  00000001800175e0 f   param_ecdh.obj
 0001:00016620       ?to_string@std@@YA?AV?$basic_string@DU?$char_traits@D@std@@V?$allocator@D@2@@1@I@Z 0000000180017620 f i pkcs11.obj
 0001:000166d0       ?to_string@std@@YA?AV?$basic_string@DU?$char_traits@D@std@@V?$allocator@D@2@@1@K@Z 00000001800176d0 f i pkcs11.obj
 0001:00019cb0       ?Load@PKCS11@@QEAAXV?$shared_ptr@V?$basic_string@DU?$char_traits@D@std@@V?$allocator@D@2@@std@@@std@@@Z 000000018001acb0 f   pkcs11.obj
 0001:0001a0a0       ?Close@PKCS11@@QEAAXXZ     000000018001b0a0 f   pkcs11.obj
 0001:0001a0e0       ?C_Initialize@PKCS11@@QEAAXPEAX@Z 000000018001b0e0 f   pkcs11.obj
 0001:0001a1c0       ?C_Finalize@PKCS11@@QEAAXXZ 000000018001b1c0 f   pkcs11.obj
 0001:0001a2a0       ?C_GetInfo@PKCS11@@QEAA?AV?$shared_ptr@UCK_INFO@@@std@@XZ 000000018001b2a0 f   pkcs11.obj
 0001:0001a3d0       ?C_GetSlotList@PKCS11@@QEAA?AV?$vector@KV?$allocator@K@std@@@std@@E@Z 000000018001b3d0 f   pkcs11.obj
 0001:0001a630       ?C_GetSlotInfo@PKCS11@@QEAA?AV?$shared_ptr@UCK_SLOT_INFO@@@std@@K@Z 000000018001b630 f   pkcs11.obj
 0001:0001a770       ?C_GetTokenInfo@PKCS11@@QEAA?AV?$shared_ptr@UCK_TOKEN_INFO@@@std@@K@Z 000000018001b770 f   pkcs11.obj
 0001:0001a8b0       ?C_GetMechanismList@PKCS11@@QEAA?AV?$vector@KV?$allocator@K@std@@@std@@K@Z 000000018001b8b0 f   pkcs11.obj
 0001:0001ab10       ?C_GetMechanismInfo@PKCS11@@QEAA?AV?$shared_ptr@UCK_MECHANISM_INFO@@@std@@KK@Z 000000018001bb10 f   pkcs11.obj
 0001:0001ac50       ?C_InitToken@PKCS11@@QEAA?AV?$shared_ptr@V?$basic_string@DU?$char_traits@D@std@@V?$allocator@D@2@@std@@@std@@KV23@0@Z 000000018001bc50 f   pkcs11.obj
 0001:0001ae20       ?C_InitPIN@PKCS11@@QEAAXKV?$shared_ptr@V?$basic_string@DU?$char_traits@D@std@@V?$allocator@D@2@@std@@@std@@@Z 000000018001be20 f   pkcs11.obj
 0001:0001af50       ?C_SetPIN@PKCS11@@QEAAXKV?$shared_ptr@V?$basic_string@DU?$char_traits@D@std@@V?$allocator@D@2@@std@@@std@@0@Z 000000018001bf50 f   pkcs11.obj
 0001:0001b0e0       ?C_OpenSession@PKCS11@@QEAAKKK@Z 000000018001c0e0 f   pkcs11.obj
 0001:0001b1f0       ?C_CloseSession@PKCS11@@QEAAXK@Z 000000018001c1f0 f   pkcs11.obj
 0001:0001b2d0       ?C_CloseAllSessions@PKCS11@@QEAAXK@Z 000000018001c2d0 f   pkcs11.obj
 0001:0001b3b0       ?C_GetSessionInfo@PKCS11@@QEAA?AV?$shared_ptr@UCK_SESSION_INFO@@@std@@K@Z 000000018001c3b0 f   pkcs11.obj
 0001:0001b4e0       ?C_Login@PKCS11@@QEAAXKKV?$shared_ptr@V?$basic_string@DU?$char_traits@D@std@@V?$allocator@D@2@@std@@@std@@@Z 000000018001c4e0 f   pkcs11.obj
 0001:0001b620       ?C_Logout@PKCS11@@QEAAXK@Z 000000018001c620 f   pkcs11.obj
 0001:0001b700       ?C_FindObjectsInit@PKCS11@@QEAAXKV?$shared_ptr@VAttributes@@@std@@@Z 000000018001c700 f   pkcs11.obj
 0001:0001b830       ?C_FindObjectsInit@PKCS11@@QEAAXK@Z 000000018001c830 f   pkcs11.obj
 0001:0001b8e0       ?C_FindObjects@PKCS11@@QEAA?AV?$vector@KV?$allocator@K@std@@@std@@KK@Z 000000018001c8e0 f   pkcs11.obj
 0001:0001ba90       ?C_FindObjectsFinal@PKCS11@@QEAAXK@Z 000000018001ca90 f   pkcs11.obj
 0001:0001bb70       ?C_GetAttributeValue@PKCS11@@QEAA?AV?$shared_ptr@VAttributes@@@std@@KKV23@@Z 000000018001cb70 f   pkcs11.obj
 0001:0001bda0       ?C_SetAttributeValue@PKCS11@@QEAAXKKV?$shared_ptr@VAttributes@@@std@@@Z 000000018001cda0 f   pkcs11.obj
 0001:0001bed0       ?C_CreateObject@PKCS11@@QEAAKKV?$shared_ptr@VAttributes@@@std@@@Z 000000018001ced0 f   pkcs11.obj
 0001:0001c000       ?C_CopyObject@PKCS11@@QEAAKKKV?$shared_ptr@VAttributes@@@std@@@Z 000000018001d000 f   pkcs11.obj
 0001:0001c150       ?C_DestroyObject@PKCS11@@QEAAXKK@Z 000000018001d150 f   pkcs11.obj
 0001:0001c240       ?C_GetObjectSize@PKCS11@@QEAAKKK@Z 000000018001d240 f   pkcs11.obj
 0001:0001c9a0       ?C_EncryptInit@PKCS11@@QEAAXKV?$shared_ptr@VMechanism@@@std@@K@Z 000000018001d9a0 f   pkcs11.obj
 0001:0001ca50       ?C_Encrypt@PKCS11@@QEAA?AV?$shared_ptr@V?$basic_string@DU?$char_traits@D@std@@V?$allocator@D@2@@std@@@std@@KV23@0@Z 000000018001da50 f   pkcs11.obj
 0001:0001cb80       ?C_EncryptUpdate@PKCS11@@QEAA?AV?$shared_ptr@V?$basic_string@DU?$char_traits@D@std@@V?$allocator@D@2@@std@@@std@@KV23@0@Z 000000018001db80 f   pkcs11.obj
 0001:0001ccb0       ?C_EncryptFinal@PKCS11@@QEAA?AV?$shared_ptr@V?$basic_string@DU?$char_traits@D@std@@V?$allocator@D@2@@std@@@std@@KV23@@Z 000000018001dcb0 f   pkcs11.obj
 0001:0001cd70       ?C_DecryptInit@PKCS11@@QEAAXKV?$shared_ptr@VMechanism@@@std@@K@Z 000000018001dd70 f   pkcs11.obj
 0001:0001ce20       ?C_Decrypt@PKCS11@@QEAA?AV?$shared_ptr@V?$basic_string@DU?$char_traits@D@std@@V?$allocator@D@2@@std@@@std@@KV23@0@Z 000000018001de20 f   pkcs11.obj
 0001:0001cf50       ?C_DecryptUpdate@PKCS11@@QEAA?AV?$shared_ptr@V?$basic_string@DU?$char_traits@D@std@@V?$allocator@D@2@@std@@@std@@KV23@0@Z 000000018001df50 f   pkcs11.obj
 0001:0001d080       ?C_DecryptFinal@PKCS11@@QEAA?AV?$shared_ptr@V?$basic_string@DU?$char_traits@D@std@@V?$allocator@D@2@@std@@@std@@KV23@@Z 000000018001e080 f   pkcs11.obj
 0001:0001d140       ?C_DigestInit@PKCS11@@QEAAXKV?$shared_ptr@VMechanism@@@std@@@Z 000000018001e140 f   pkcs11.obj
 0001:0001d260       ?C_Digest@PKCS11@@QEAA?AV?$shared_ptr@V?$basic_string@DU?$char_traits@D@std@@V?$allocator@D@2@@std@@@std@@KV23@0@Z 000000018001e260 f   pkcs11.obj
 0001:0001d390       ?C_DigestUpdate@PKCS11@@QEAAXKV?$shared_ptr@V?$basic_string@DU?$char_traits@D@std@@V?$allocator@D@2@@std@@@std@@@Z 000000018001e390 f   pkcs11.obj
 0001:0001d440       ?C_DigestFinal@PKCS11@@QEAA?AV?$shared_ptr@V?$basic_string@DU?$char_traits@D@std@@V?$allocator@D@2@@std@@@std@@KV23@@Z 000000018001e440 f   pkcs11.obj
 0001:0001d500       ?C_DigestKey@PKCS11@@QEAAXKK@Z 000000018001e500 f   pkcs11.obj
 0001:0001d5f0       ?C_SignInit@PKCS11@@QEAAXKV?$shared_ptr@VMechanism@@@std@@K@Z 000000018001e5f0 f   pkcs11.obj
 0001:0001d6a0       ?C_Sign@PKCS11@@QEAA?AV?$shared_ptr@V?$basic_string@DU?$char_traits@D@std@@V?$allocator@D@2@@std@@@std@@KV23@0@Z 000000018001e6a0 f   pkcs11.obj
 0001:0001d7d0       ?C_SignUpdate@PKCS11@@QEAAXKV?$shared_ptr@V?$basic_string@DU?$char_traits@D@std@@V?$allocator@D@2@@std@@@std@@@Z 000000018001e7d0 f   pkcs11.obj
 0001:0001d880       ?C_SignFinal@PKCS11@@QEAA?AV?$shared_ptr@V?$basic_string@DU?$char_traits@D@std@@V?$allocator@D@2@@std@@@std@@KV23@@Z 000000018001e880 f   pkcs11.obj
 0001:0001d940       ?C_SignRecoverInit@PKCS11@@QEAAXKV?$shared_ptr@VMechanism@@@std@@K@Z 000000018001e940 f   pkcs11.obj
 0001:0001d9f0       ?C_SignRecover@PKCS11@@QEAA?AV?$shared_ptr@V?$basic_string@DU?$char_traits@D@std@@V?$allocator@D@2@@std@@@std@@KV23@0@Z 000000018001e9f0 f   pkcs11.obj
 0001:0001db20       ?C_VerifyInit@PKCS11@@QEAAXKV?$shared_ptr@VMechanism@@@std@@K@Z 000000018001eb20 f   pkcs11.obj
 0001:0001dbd0       ?C_Verify@PKCS11@@QEAAXKV?$shared_ptr@V?$basic_string@DU?$char_traits@D@std@@V?$allocator@D@2@@std@@@std@@0@Z 000000018001ebd0 f   pkcs11.obj
 0001:0001dd50       ?C_VerifyUpdate@PKCS11@@QEAAXKV?$shared_ptr@V?$basic_string@DU?$char_traits@D@std@@V?$allocator@D@2@@std@@@std@@@Z 000000018001ed50 f   pkcs11.obj
 0001:0001de00       ?C_VerifyFinal@PKCS11@@QEAAXKV?$shared_ptr@V?$basic_string@DU?$char_traits@D@std@@V?$allocator@D@2@@std@@@std@@@Z 000000018001ee00 f   pkcs11.obj
 0001:0001df30       ?C_VerifyRecoverInit@PKCS11@@QEAAXKV?$shared_ptr@VMechanism@@@std@@K@Z 000000018001ef30 f   pkcs11.obj
 0001:0001dfe0       ?C_VerifyRecover@PKCS11@@QEAA?AV?$shared_ptr@V?$basic_string@DU?$char_traits@D@std@@V?$allocator@D@2@@std@@@std@@KV23@0@Z 000000018001efe0 f   pkcs11.obj
 0001:0001e110       ?C_GenerateKey@PKCS11@@QEAAKKV?$shared_ptr@VMechanism@@@std@@V?$shared_ptr@VAttributes@@@3@@Z 000000018001f110 f   pkcs11.obj
 0001:0001e2a0       ?C_GenerateKeyPair@PKCS11@@QEAA?AV?$shared_ptr@UKEY_PAIR@@@std@@KV?$shared_ptr@VMechanism@@@3@V?$shared_ptr@VAttributes@@@3@1@Z 000000018001f2a0 f   pkcs11.obj
 0001:0001e4e0       ?C_WrapKey@PKCS11@@QEAA?AV?$shared_ptr@V?$basic_string@DU?$char_traits@D@std@@V?$allocator@D@2@@std@@@std@@KV?$shared_ptr@VMechanism@@@3@KKV23@@Z 000000018001f4e0 f   pkcs11.obj
 0001:0001e720       ?C_UnwrapKey@PKCS11@@QEAAKKV?$shared_ptr@VMechanism@@@std@@KV?$shared_ptr@V?$basic_string@DU?$char_traits@D@std@@V?$allocator@D@2@@std@@@3@V?$shared_ptr@VAttributes@@@3@@Z 000000018001f720 f   pkcs11.obj
 0001:0001e910       ?C_DeriveKey@PKCS11@@QEAAKKV?$shared_ptr@VMechanism@@@std@@KV?$shared_ptr@VAttributes@@@3@@Z 000000018001f910 f   pkcs11.obj
 0001:0001eaa0       ?C_SeedRandom@PKCS11@@QEAAXKPEAD_K@Z 000000018001faa0 f   pkcs11.obj
 0001:0001eb90       ?C_GenerateRandom@PKCS11@@QEAAXKPEAD_K@Z 000000018001fb90 f   pkcs11.obj
 0001:0001ec80       ??1?$vector@KV?$allocator@K@std@@@std@@QEAA@XZ 000000018001fc80 f i pkcs11.obj
 0001:0001ece0       ?c_str@?$basic_string@DU?$char_traits@D@std@@V?$allocator@D@2@@std@@QEBAPEBDXZ 000000018001fce0 f i pkcs11.obj
 0001:0001ecf0       ??Y?$basic_string@DU?$char_traits@D@std@@V?$allocator@D@2@@std@@QEAAAEAV01@QEBD@Z 000000018001fcf0 f i pkcs11.obj
 0001:0001ed10       ?_Xran@?$_String_val@U?$_Simple_types@D@std@@@std@@SAXXZ 000000018001fd10 f i pkcs11.obj
 0001:0001ed30       ??$?HDU?$char_traits@D@std@@V?$allocator@D@1@@std@@YA?AV?$basic_string@DU?$char_traits@D@std@@V?$allocator@D@2@@0@QEBD$$QEAV10@@Z 000000018001fd30 f i pkcs11.obj
 0001:0001ee50       ??$_Resize@V<lambda_d8eeaf2c1a8ec47436ac74a97303285f>@@@?$vector@KV?$allocator@K@std@@@std@@AEAAX_KV<lambda_d8eeaf2c1a8ec47436ac74a97303285f>@@@Z 000000018001fe50 f i pkcs11.obj
 0001:0001f000       ??$_Reallocate_grow_by@V<lambda_f3a66ab6a0570788f31503db83886f49>@@_KPEBD_K@?$basic_string@DU?$char_traits@D@std@@V?$allocator@D@2@@std@@QEAAAEAV01@_KV<lambda_f3a66ab6a0570788f31503db83886f49>@@_KPEBD2@Z 0000000180020000 f i pkcs11.obj
 0001:0001f160       ??_G?$_Ref_count_obj@UCK_INFO@@@std@@UEAAPEAXI@Z 0000000180020160 f i pkcs11.obj
 0001:0001f160       ??_E?$_Ref_count_obj@UCK_INFO@@@std@@UEAAPEAXI@Z 0000000180020160 f i * CIL library *:* CIL module *
 0001:0001f190       ??_G?$_Ref_count_obj@UCK_SLOT_INFO@@@std@@UEAAPEAXI@Z 0000000180020190 f i pkcs11.obj
 0001:0001f190       ??_E?$_Ref_count_obj@UCK_SLOT_INFO@@@std@@UEAAPEAXI@Z 0000000180020190 f i * CIL library *:* CIL module *
 0001:0001f1c0       ??_G?$_Ref_count_obj@UCK_TOKEN_INFO@@@std@@UEAAPEAXI@Z 00000001800201c0 f i pkcs11.obj
 0001:0001f1c0       ??_E?$_Ref_count_obj@UCK_TOKEN_INFO@@@std@@UEAAPEAXI@Z 00000001800201c0 f i * CIL library *:* CIL module *
 0001:0001f1f0       ??_G?$_Ref_count_obj@UCK_MECHANISM_INFO@@@std@@UEAAPEAXI@Z 00000001800201f0 f i pkcs11.obj
 0001:0001f1f0       ??_E?$_Ref_count_obj@UCK_SESSION_INFO@@@std@@UEAAPEAXI@Z 00000001800201f0 f i * CIL library *:* CIL module *
 0001:0001f1f0       ??_E?$_Ref_count_obj@UCK_MECHANISM_INFO@@@std@@UEAAPEAXI@Z 00000001800201f0 f i * CIL library *:* CIL module *
 0001:0001f1f0       ??_G?$_Ref_count_obj@UCK_SESSION_INFO@@@std@@UEAAPEAXI@Z 00000001800201f0 f i pkcs11.obj
 0001:0001f220       ?Call@Callback@Nan@@QEBA?AV?$MaybeLocal@VValue@v8@@@v8@@HQEAV?$Local@VValue@v8@@@4@PEAVAsyncResource@2@@Z 0000000180020220 f i async.obj
 0001:0001f340       ?SetErrorMessage@AsyncWorker@Nan@@IEAAXPEBD@Z 0000000180020340 f i async.obj
 0001:0001f3b0       ?Execute@AsyncGenerateKey@@UEAAXXZ 00000001800203b0 f   async.obj
 0001:0001f450       ?HandleOKCallback@AsyncGenerateKey@@UEAAXXZ 0000000180020450 f   async.obj
 0001:0001f560       ?Execute@AsyncGenerateKeyPair@@UEAAXXZ 0000000180020560 f   async.obj
 0001:0001f6f0       ?HandleOKCallback@AsyncGenerateKeyPair@@UEAAXXZ 00000001800206f0 f   async.obj
 0001:0001f980       ?Execute@AsyncCrypto@@UEAAXXZ 0000000180020980 f   async.obj
 0001:0001fe00       ?HandleOKCallback@AsyncCrypto@@UEAAXXZ 0000000180020e00 f   async.obj
 0001:0001ff10       ?Execute@AsyncWrapKey@@UEAAXXZ 0000000180020f10 f   async.obj
 0001:00020030       ?HandleOKCallback@AsyncWrapKey@@UEAAXXZ 0000000180021030 f   async.obj
 0001:00020130       ?Execute@AsyncUnwrapKey@@UEAAXXZ 0000000180021130 f   async.obj
 0001:00020220       ?HandleOKCallback@AsyncUnwrapKey@@UEAAXXZ 0000000180021220 f   async.obj
 0001:00020330       ?Execute@AsyncDeriveKey@@UEAAXXZ 0000000180021330 f   async.obj
 0001:000203e0       ?HandleOKCallback@AsyncDeriveKey@@UEAAXXZ 00000001800213e0 f   async.obj
 0001:000204f0       ??1ObjectWrap@node@@UEAA@XZ 00000001800214f0 f i node.obj
 0001:00020570       ?Ref@ObjectWrap@node@@MEAAXXZ 0000000180021570 f i node.obj
 0001:000205b0       ?Unref@ObjectWrap@node@@MEAAXXZ 00000001800215b0 f i node.obj
 0001:00020660       ?WeakCallback@ObjectWrap@node@@CAXAEBV?$WeakCallbackInfo@VObjectWrap@node@@@v8@@@Z 0000000180021660 f i node.obj
 0001:000206c0       ??_EObjectWrap@node@@UEAAPEAXI@Z 00000001800216c0 f i * CIL library *:* CIL module *
 0001:000206c0       ??_GObjectWrap@node@@UEAAPEAXI@Z 00000001800216c0 f i node.obj
 0001:000208d0       ?Has@Nan@@YA?AV?$Maybe@_N@1@V?$Local@VObject@v8@@@v8@@V?$Local@VString@v8@@@4@@Z 00000001800218d0 f i node.obj
 0001:00020960       ?New@?$Factory@VFunctionTemplate@v8@@@imp@Nan@@SA?AV?$Local@VFunctionTemplate@v8@@@v8@@P6AXAEBV?$FunctionCallbackInfo@VValue@v8@@@3@@ZV?$Local@VValue@v8@@@5@V?$Local@VSignature@v8@@@5@@Z 0000000180021960 f i node.obj
 0001:00020b30       ?New@Nan@@YA?AV?$MaybeLocal@VString@v8@@@v8@@AEBV?$basic_string@DU?$char_traits@D@std@@V?$allocator@D@2@@std@@@Z 0000000180021b30 f i node.obj
 0001:00020cc0       ?ThrowError@Nan@@YAXPEBD@Z 0000000180021cc0 f i node.obj
 0001:00020d60       ?ThrowTypeError@Nan@@YAXV?$Local@VString@v8@@@v8@@@Z 0000000180021d60 f i node.obj
 0001:00020dd0       ??0AsyncWorker@Nan@@QEAA@PEAVCallback@1@PEBD@Z 0000000180021dd0 f i node.obj
 0001:00020f60       ??1AsyncWorker@Nan@@UEAA@XZ 0000000180021f60 f i node.obj
 0001:00021050       ?WorkComplete@AsyncWorker@Nan@@UEAAXXZ 0000000180022050 f i node.obj
 0001:000210f0       ?Destroy@AsyncWorker@Nan@@UEAAXXZ 00000001800220f0 f i node.obj
 0001:00021110       ?HandleOKCallback@AsyncWorker@Nan@@MEAAXXZ 0000000180022110 f i node.obj
 0001:00021170       ?HandleErrorCallback@AsyncWorker@Nan@@MEAAXXZ 0000000180022170 f i node.obj
 0001:00021230       ??_GAsyncWorker@Nan@@UEAAPEAXI@Z 0000000180022230 f i node.obj
 0001:00021230       ??_EAsyncWorker@Nan@@UEAAPEAXI@Z 0000000180022230 f i * CIL library *:* CIL module *
 0001:00021270       ??1?$Persistent@VObject@v8@@V?$NonCopyablePersistentTraits@VObject@v8@@@2@@Nan@@QEAA@XZ 0000000180022270 f i node.obj
 0001:00021290       ?AsyncExecute@Nan@@YAXPEAUuv_work_s@@@Z 0000000180022290 f i node.obj
 0001:000212a0       ?AsyncExecuteComplete@Nan@@YAXPEAUuv_work_s@@H@Z 00000001800222a0 f i node.obj
 0001:000212d0       ?AsyncQueueWorker@Nan@@YAXPEAVAsyncWorker@1@@Z 00000001800222d0 f i node.obj
 0001:00021310       ?SetPrototypeMethod@Nan@@YAXV?$Local@VFunctionTemplate@v8@@@v8@@PEBDP6AXAEBV?$FunctionCallbackInfo@VValue@v8@@@1@@ZV?$Local@VValue@v8@@@3@@Z 0000000180022310 f i node.obj
 0001:00021410       ?constructor@WPKCS11@@KAAEAV?$Persistent@VFunction@v8@@V?$NonCopyablePersistentTraits@VFunction@v8@@@2@@Nan@@XZ 0000000180022410 f i node.obj
 0001:00021480       ??0AsyncGenerateKey@@QEAA@PEAVCallback@Nan@@V?$shared_ptr@VPKCS11@@@std@@KV?$shared_ptr@VMechanism@@@4@V?$shared_ptr@VAttributes@@@4@@Z 0000000180022480 f i node.obj
 0001:00021610       ??_GAsyncGenerateKey@@UEAAPEAXI@Z 0000000180022610 f i node.obj
 0001:00021610       ??_EAsyncGenerateKey@@UEAAPEAXI@Z 0000000180022610 f i * CIL library *:* CIL module *
 0001:00021720       ??0AsyncGenerateKeyPair@@QEAA@PEAVCallback@Nan@@V?$shared_ptr@VPKCS11@@@std@@KV?$shared_ptr@VMechanism@@@4@V?$shared_ptr@VAttributes@@@4@3@Z 0000000180022720 f i node.obj
 0001:00021940       ??1AsyncGenerateKeyPair@@UEAA@XZ 0000000180022940 f i node.obj
 0001:00021aa0       ??_GAsyncGenerateKeyPair@@UEAAPEAXI@Z 0000000180022aa0 f i node.obj
 0001:00021aa0       ??_EAsyncGenerateKeyPair@@UEAAPEAXI@Z 0000000180022aa0 f i * CIL library *:* CIL module *
 0001:00021ae0       ??0AsyncCrypto@@QEAA@PEAVCallback@Nan@@V?$shared_ptr@VPKCS11@@@std@@HKV?$shared_ptr@V?$basic_string@DU?$char_traits@D@std@@V?$allocator@D@2@@std@@@4@2@Z 0000000180022ae0 f i node.obj
 0001:00021c90       ??_GAsyncCrypto@@UEAAPEAXI@Z 0000000180022c90 f i node.obj
 0001:00021c90       ??_EAsyncCrypto@@UEAAPEAXI@Z 0000000180022c90 f i * CIL library *:* CIL module *
 0001:00021de0       ??0AsyncWrapKey@@QEAA@PEAVCallback@Nan@@V?$shared_ptr@VPKCS11@@@std@@KV?$shared_ptr@VMechanism@@@4@KKV?$shared_ptr@V?$basic_string@DU?$char_traits@D@std@@V?$allocator@D@2@@std@@@4@@Z 0000000180022de0 f i node.obj
 0001:00021fa0       ??_EAsyncWrapKey@@UEAAPEAXI@Z 0000000180022fa0 f i * CIL library *:* CIL module *
 0001:00021fa0       ??_GAsyncWrapKey@@UEAAPEAXI@Z 0000000180022fa0 f i node.obj
 0001:000220f0       ??0AsyncUnwrapKey@@QEAA@PEAVCallback@Nan@@V?$shared_ptr@VPKCS11@@@std@@KV?$shared_ptr@VMechanism@@@4@KV?$shared_ptr@V?$basic_string@DU?$char_traits@D@std@@V?$allocator@D@2@@std@@@4@V?$shared_ptr@VAttributes@@@4@@Z 00000001800230f0 f i node.obj
 0001:00022310       ??_GAsyncUnwrapKey@@UEAAPEAXI@Z 0000000180023310 f i node.obj
 0001:00022310       ??_EAsyncUnwrapKey@@UEAAPEAXI@Z 0000000180023310 f i * CIL library *:* CIL module *
 0001:00022460       ??0AsyncDeriveKey@@QEAA@PEAVCallback@Nan@@V?$shared_ptr@VPKCS11@@@std@@KV?$shared_ptr@VMechanism@@@4@KV?$shared_ptr@VAttributes@@@4@@Z 0000000180023460 f i node.obj
 0001:00022600       ??_EAsyncDeriveKey@@UEAAPEAXI@Z 0000000180023600 f i * CIL library *:* CIL module *
 0001:00022600       ??_GAsyncDeriveKey@@UEAAPEAXI@Z 0000000180023600 f i node.obj
 0001:000231a0       ?Init@WPKCS11@@SAXV?$Local@VObject@v8@@@v8@@@Z 00000001800241a0 f   node.obj
 0001:00023b10       ?GetLibPath@WPKCS11@@SAXV?$Local@VString@v8@@@v8@@AEBV?$PropertyCallbackInfo@VValue@v8@@@Nan@@@Z 0000000180024b10 f   node.obj
 0001:00023c60       ?New@WPKCS11@@SAXAEBV?$FunctionCallbackInfo@VValue@v8@@@Nan@@@Z 0000000180024c60 f   node.obj
 0001:00023fe0       ??_GWPKCS11@@UEAAPEAXI@Z   0000000180024fe0 f i node.obj
 0001:00023fe0       ??_EWPKCS11@@UEAAPEAXI@Z   0000000180024fe0 f i * CIL library *:* CIL module *
 0001:00024070       ?Load@WPKCS11@@SAXAEBV?$FunctionCallbackInfo@VValue@v8@@@Nan@@@Z 0000000180025070 f   node.obj
 0001:00024990       ?Close@WPKCS11@@SAXAEBV?$FunctionCallbackInfo@VValue@v8@@@Nan@@@Z 0000000180025990 f   node.obj
 0001:00024a70       ?C_Initialize@WPKCS11@@SAXAEBV?$FunctionCallbackInfo@VValue@v8@@@Nan@@@Z 0000000180025a70 f   node.obj
 0001:00025090       ?C_Finalize@WPKCS11@@SAXAEBV?$FunctionCallbackInfo@VValue@v8@@@Nan@@@Z 0000000180026090 f   node.obj
 0001:00025170       ?C_GetInfo@WPKCS11@@SAXAEBV?$FunctionCallbackInfo@VValue@v8@@@Nan@@@Z 0000000180026170 f   node.obj
 0001:00025740       ?C_GetSlotList@WPKCS11@@SAXAEBV?$FunctionCallbackInfo@VValue@v8@@@Nan@@@Z 0000000180026740 f   node.obj
 0001:00025a30       ?C_GetSlotInfo@WPKCS11@@SAXAEBV?$FunctionCallbackInfo@VValue@v8@@@Nan@@@Z 0000000180026a30 f   node.obj
 0001:000263f0       ?C_GetTokenInfo@WPKCS11@@SAXAEBV?$FunctionCallbackInfo@VValue@v8@@@Nan@@@Z 00000001800273f0 f   node.obj
 0001:00027850       ?C_GetMechanismList@WPKCS11@@SAXAEBV?$FunctionCallbackInfo@VValue@v8@@@Nan@@@Z 0000000180028850 f   node.obj
 0001:00027e80       ?C_GetMechanismInfo@WPKCS11@@SAXAEBV?$FunctionCallbackInfo@VValue@v8@@@Nan@@@Z 0000000180028e80 f   node.obj
 0001:00028c00       ?C_InitToken@WPKCS11@@SAXAEBV?$FunctionCallbackInfo@VValue@v8@@@Nan@@@Z 0000000180029c00 f   node.obj
 0001:00029290       ?C_InitPIN@WPKCS11@@SAXAEBV?$FunctionCallbackInfo@VValue@v8@@@Nan@@@Z 000000018002a290 f   node.obj
 0001:000297f0       ?C_SetPIN@WPKCS11@@SAXAEBV?$FunctionCallbackInfo@VValue@v8@@@Nan@@@Z 000000018002a7f0 f   node.obj
 0001:00029de0       ?C_OpenSession@WPKCS11@@SAXAEBV?$FunctionCallbackInfo@VValue@v8@@@Nan@@@Z 000000018002ade0 f   node.obj
 0001:0002a990       ?C_CloseSession@WPKCS11@@SAXAEBV?$FunctionCallbackInfo@VValue@v8@@@Nan@@@Z 000000018002b990 f   node.obj
 0001:0002ae50       ?C_CloseAllSessions@WPKCS11@@SAXAEBV?$FunctionCallbackInfo@VValue@v8@@@Nan@@@Z 000000018002be50 f   node.obj
 0001:0002b310       ?C_GetSessionInfo@WPKCS11@@SAXAEBV?$FunctionCallbackInfo@VValue@v8@@@Nan@@@Z 000000018002c310 f   node.obj
 0001:0002bbe0       ?C_Login@WPKCS11@@SAXAEBV?$FunctionCallbackInfo@VValue@v8@@@Nan@@@Z 000000018002cbe0 f   node.obj
 0001:0002c810       ?C_Logout@WPKCS11@@SAXAEBV?$FunctionCallbackInfo@VValue@v8@@@Nan@@@Z 000000018002d810 f   node.obj
 0001:0002ccd0       ?C_FindObjectsInit@WPKCS11@@SAXAEBV?$FunctionCallbackInfo@VValue@v8@@@Nan@@@Z 000000018002dcd0 f   node.obj
 0001:0002d310       ?C_FindObjects@WPKCS11@@SAXAEBV?$FunctionCallbackInfo@VValue@v8@@@Nan@@@Z 000000018002e310 f   node.obj
 0001:0002da60       ?C_FindObjectsFinal@WPKCS11@@SAXAEBV?$FunctionCallbackInfo@VValue@v8@@@Nan@@@Z 000000018002ea60 f   node.obj
 0001:0002df20       ?C_GetAttributeValue@WPKCS11@@SAXAEBV?$FunctionCallbackInfo@VValue@v8@@@Nan@@@Z 000000018002ef20 f   node.obj
 0001:0002ec80       ?C_SetAttributeValue@WPKCS11@@SAXAEBV?$FunctionCallbackInfo@VValue@v8@@@Nan@@@Z 000000018002fc80 f   node.obj
 0001:0002f950       ?C_CreateObject@WPKCS11@@SAXAEBV?$FunctionCallbackInfo@VValue@v8@@@Nan@@@Z 0000000180030950 f   node.obj
 0001:000302e0       ?C_CopyObject@WPKCS11@@SAXAEBV?$FunctionCallbackInfo@VValue@v8@@@Nan@@@Z 00000001800312e0 f   node.obj
 0001:00030fa0       ?C_DestroyObject@WPKCS11@@SAXAEBV?$FunctionCallbackInfo@VValue@v8@@@Nan@@@Z 0000000180031fa0 f   node.obj
 0001:00031870       ?C_GetObjectSize@WPKCS11@@SAXAEBV?$FunctionCallbackInfo@VValue@v8@@@Nan@@@Z 0000000180032870 f   node.obj
 0001:00032190       ?C_EncryptInit@WPKCS11@@SAXAEBV?$FunctionCallbackInfo@VValue@v8@@@Nan@@@Z 0000000180033190 f   node.obj
 0001:00032e30       ?C_Encrypt@WPKCS11@@SAXAEBV?$FunctionCallbackInfo@VValue@v8@@@Nan@@@Z 0000000180033e30 f   node.obj
 0001:00034280       ?C_EncryptUpdate@WPKCS11@@SAXAEBV?$FunctionCallbackInfo@VValue@v8@@@Nan@@@Z 0000000180035280 f   node.obj
 0001:00035530       ?C_EncryptFinal@WPKCS11@@SAXAEBV?$FunctionCallbackInfo@VValue@v8@@@Nan@@@Z 0000000180036530 f   node.obj
 0001:00036170       ?C_DecryptInit@WPKCS11@@SAXAEBV?$FunctionCallbackInfo@VValue@v8@@@Nan@@@Z 0000000180037170 f   node.obj
 0001:00036e10       ?C_Decrypt@WPKCS11@@SAXAEBV?$FunctionCallbackInfo@VValue@v8@@@Nan@@@Z 0000000180037e10 f   node.obj
 0001:00038260       ?C_DecryptUpdate@WPKCS11@@SAXAEBV?$FunctionCallbackInfo@VValue@v8@@@Nan@@@Z 0000000180039260 f   node.obj
 0001:00039510       ?C_DecryptFinal@WPKCS11@@SAXAEBV?$FunctionCallbackInfo@VValue@v8@@@Nan@@@Z 000000018003a510 f   node.obj
 0001:0003a150       ?C_DigestInit@WPKCS11@@SAXAEBV?$FunctionCallbackInfo@VValue@v8@@@Nan@@@Z 000000018003b150 f   node.obj
 0001:0003aa90       ?C_Digest@WPKCS11@@SAXAEBV?$FunctionCallbackInfo@VValue@v8@@@Nan@@@Z 000000018003ba90 f   node.obj
 0001:0003bee0       ?C_DigestUpdate@WPKCS11@@SAXAEBV?$FunctionCallbackInfo@VValue@v8@@@Nan@@@Z 000000018003cee0 f   node.obj
 0001:0003caa0       ?C_DigestFinal@WPKCS11@@SAXAEBV?$FunctionCallbackInfo@VValue@v8@@@Nan@@@Z 000000018003daa0 f   node.obj
 0001:0003d6e0       ?C_DigestKey@WPKCS11@@SAXAEBV?$FunctionCallbackInfo@VValue@v8@@@Nan@@@Z 000000018003e6e0 f   node.obj
 0001:0003dfb0       ?C_SignInit@WPKCS11@@SAXAEBV?$FunctionCallbackInfo@VValue@v8@@@Nan@@@Z 000000018003efb0 f   node.obj
 0001:0003ec50       ?C_Sign@WPKCS11@@SAXAEBV?$FunctionCallbackInfo@VValue@v8@@@Nan@@@Z 000000018003fc50 f   node.obj
 0001:000400a0       ?C_SignUpdate@WPKCS11@@SAXAEBV?$FunctionCallbackInfo@VValue@v8@@@Nan@@@Z 00000001800410a0 f   node.obj
 0001:00040c60       ?C_SignFinal@WPKCS11@@SAXAEBV?$FunctionCallbackInfo@VValue@v8@@@Nan@@@Z 0000000180041c60 f   node.obj
 0001:000418a0       ?C_SignRecoverInit@WPKCS11@@SAXAEBV?$FunctionCallbackInfo@VValue@v8@@@Nan@@@Z 00000001800428a0 f   node.obj
 0001:00042540       ?C_SignRecover@WPKCS11@@SAXAEBV?$FunctionCallbackInfo@VValue@v8@@@Nan@@@Z 0000000180043540 f   node.obj
 0001:00043820       ?C_VerifyInit@WPKCS11@@SAXAEBV?$FunctionCallbackInfo@VValue@v8@@@Nan@@@Z 0000000180044820 f   node.obj
 0001:000444c0       ?C_Verify@WPKCS11@@SAXAEBV?$FunctionCallbackInfo@VValue@v8@@@Nan@@@Z 00000001800454c0 f   node.obj
 0001:000458a0       ?C_VerifyUpdate@WPKCS11@@SAXAEBV?$FunctionCallbackInfo@VValue@v8@@@Nan@@@Z 00000001800468a0 f   node.obj
 0001:00046460       ?C_VerifyFinal@WPKCS11@@SAXAEBV?$FunctionCallbackInfo@VValue@v8@@@Nan@@@Z 0000000180047460 f   node.obj
 0001:00047040       ?C_VerifyRecoverInit@WPKCS11@@SAXAEBV?$FunctionCallbackInfo@VValue@v8@@@Nan@@@Z 0000000180048040 f   node.obj
 0001:00047ce0       ?C_VerifyRecover@WPKCS11@@SAXAEBV?$FunctionCallbackInfo@VValue@v8@@@Nan@@@Z 0000000180048ce0 f   node.obj
 0001:00048fc0       ?C_GenerateKey@WPKCS11@@SAXAEBV?$FunctionCallbackInfo@VValue@v8@@@Nan@@@Z 0000000180049fc0 f   node.obj
 0001:00049e20       ?C_GenerateKeyPair@WPKCS11@@SAXAEBV?$FunctionCallbackInfo@VValue@v8@@@Nan@@@Z 000000018004ae20 f   node.obj
 0001:0004b200       ?C_WrapKey@WPKCS11@@SAXAEBV?$FunctionCallbackInfo@VValue@v8@@@Nan@@@Z 000000018004c200 f   node.obj
 0001:0004ca90       ?C_UnwrapKey@WPKCS11@@SAXAEBV?$FunctionCallbackInfo@VValue@v8@@@Nan@@@Z 000000018004da90 f   node.obj
 0001:0004e350       ?C_DeriveKey@WPKCS11@@SAXAEBV?$FunctionCallbackInfo@VValue@v8@@@Nan@@@Z 000000018004f350 f   node.obj
 0001:0004f530       ?C_SeedRandom@WPKCS11@@SAXAEBV?$FunctionCallbackInfo@VValue@v8@@@Nan@@@Z 0000000180050530 f   node.obj
 0001:0004fe60       ?C_GenerateRandom@WPKCS11@@SAXAEBV?$FunctionCallbackInfo@VValue@v8@@@Nan@@@Z 0000000180050e60 f   node.obj
 0001:00050790       ??$Unwrap@VWPKCS11@@@ObjectWrap@node@@SAPEAVWPKCS11@@V?$Local@VObject@v8@@@v8@@@Z 0000000180051790 f i node.obj
 0001:00050820       ??_GPKCS11@@QEAAPEAXI@Z    0000000180051820 f i node.obj
 0001:000508a0       ?_Destroy@?$_Ref_count@VPKCS11@@@std@@EEAAXXZ 00000001800518a0 f i node.obj
 0001:000508fc       __imp_load_?GetCurrent@Isolate@v8@@SAPEAV12@XZ 00000001800518fc f   node:node.exe
 0001:00050908       __tailMerge_node_exe       0000000180051908     node:node.exe
 0001:00050981       __imp_load_??1HandleScope@v8@@QEAA@XZ 0000000180051981 f   node:node.exe
 0001:0005098d       __imp_load_??0HandleScope@v8@@QEAA@PEAVIsolate@1@@Z 000000018005198d f   node:node.exe
 0001:00050999       __imp_load_node_module_register 0000000180051999 f   node:node.exe
 0001:000509a5       __imp_load_?GetCurrentContext@Isolate@v8@@QEAA?AV?$Local@VContext@v8@@@2@XZ 00000001800519a5 f   node:node.exe
 0001:000509b1       __imp_load_?ToLocalEmpty@V8@v8@@CAXXZ 00000001800519b1 f   node:node.exe
 0001:000509bd       __imp_load_?NewFromUtf8@String@v8@@SA?AV?$MaybeLocal@VString@v8@@@2@PEAVIsolate@2@PEBDW4NewStringType@2@H@Z 00000001800519bd f   node:node.exe
 0001:000509c9       __imp_load_?New@Number@v8@@SA?AV?$Local@VNumber@v8@@@2@PEAVIsolate@2@N@Z 00000001800519c9 f   node:node.exe
 0001:000509d5       __imp_load_?DefineOwnProperty@Object@v8@@QEAA?AV?$Maybe@_N@2@V?$Local@VContext@v8@@@2@V?$Local@VName@v8@@@2@V?$Local@VValue@v8@@@2@W4PropertyAttribute@2@@Z 00000001800519d5 f   node:node.exe
 0001:000509e1       __imp_load_?New@Array@v8@@SA?AV?$Local@VArray@v8@@@2@PEAVIsolate@2@H@Z 00000001800519e1 f   node:node.exe
 0001:000509ed       __imp_load_?Uint32Value@Value@v8@@QEBA?AV?$Maybe@I@2@V?$Local@VContext@v8@@@2@@Z 00000001800519ed f   node:node.exe
 0001:000509f9       __imp_load_?BooleanValue@Value@v8@@QEBA?AV?$Maybe@_N@2@V?$Local@VContext@v8@@@2@@Z 00000001800519f9 f   node:node.exe
 0001:00050a05       __imp_load_?ToObject@Value@v8@@QEBA?AV?$MaybeLocal@VObject@v8@@@2@V?$Local@VContext@v8@@@2@@Z 0000000180051a05 f   node:node.exe
 0001:00050a11       __imp_load_?ToString@Value@v8@@QEBA?AV?$MaybeLocal@VString@v8@@@2@V?$Local@VContext@v8@@@2@@Z 0000000180051a11 f   node:node.exe
 0001:00050a1d       __imp_load_?IsNumber@Value@v8@@QEBA_NXZ 0000000180051a1d f   node:node.exe
 0001:00050a29       __imp_load_?IsBoolean@Value@v8@@QEBA_NXZ 0000000180051a29 f   node:node.exe
 0001:00050a35       __imp_load_?IsObject@Value@v8@@QEBA_NXZ 0000000180051a35 f   node:node.exe
 0001:00050a41       __imp_load_?IsArray@Value@v8@@QEBA_NXZ 0000000180051a41 f   node:node.exe
 0001:00050a4d       __imp_load_?Escape@EscapableHandleScope@v8@@AEAAPEAPEAVObject@internal@2@PEAPEAV342@@Z 0000000180051a4d f   node:node.exe
 0001:00050a59       __imp_load_??0EscapableHandleScope@v8@@QEAA@PEAVIsolate@1@@Z 0000000180051a59 f   node:node.exe
 0001:00050a65       __imp_load_?WriteUtf8@String@v8@@QEBAHPEADHPEAHH@Z 0000000180051a65 f   node:node.exe
 0001:00050a71       __imp_load_?Length@String@v8@@QEBAHXZ 0000000180051a71 f   node:node.exe
 0001:00050a7d       __imp_load_?New@Object@v8@@SA?AV?$Local@VObject@v8@@@2@PEAVIsolate@2@@Z 0000000180051a7d f   node:node.exe
 0001:00050a89       __imp_load_?Get@Object@v8@@QEAA?AV?$MaybeLocal@VValue@v8@@@2@V?$Local@VContext@v8@@@2@V?$Local@VValue@v8@@@2@@Z 0000000180051a89 f   node:node.exe
 0001:00050a95       __imp_load_?Get@Object@v8@@QEAA?AV?$MaybeLocal@VValue@v8@@@2@V?$Local@VContext@v8@@@2@I@Z 0000000180051a95 f   node:node.exe
 0001:00050aa1       __imp_load_?Set@Object@v8@@QEAA?AV?$Maybe@_N@2@V?$Local@VContext@v8@@@2@V?$Local@VValue@v8@@@2@1@Z 0000000180051aa1 f   node:node.exe
 0001:00050aad       __imp_load_?Set@Object@v8@@QEAA?AV?$Maybe@_N@2@V?$Local@VContext@v8@@@2@IV?$Local@VValue@v8@@@2@@Z 0000000180051aad f   node:node.exe
 0001:00050ab9       __imp_load_?HasInstance@Buffer@node@@YA_NV?$Local@VValue@v8@@@v8@@@Z 0000000180051ab9 f   node:node.exe
 0001:00050ac5       __imp_load_?Data@Buffer@node@@YAPEADV?$Local@VValue@v8@@@v8@@@Z 0000000180051ac5 f   node:node.exe
 0001:00050ad1       __imp_load_?Copy@Buffer@node@@YA?AV?$MaybeLocal@VObject@v8@@@v8@@PEAVIsolate@4@PEBD_K@Z 0000000180051ad1 f   node:node.exe
 0001:00050add       __imp_load_?Length@Buffer@node@@YA_KV?$Local@VValue@v8@@@v8@@@Z 0000000180051add f   node:node.exe
 0001:00050ae9       __imp_load_??1EscapableHandleScope@v8@@QEAA@XZ 0000000180051ae9 f   node:node.exe
 0001:00050af5       __imp_load_?HasInstance@Buffer@node@@YA_NV?$Local@VObject@v8@@@v8@@@Z 0000000180051af5 f   node:node.exe
 0001:00050b01       __imp_load_?Data@Buffer@node@@YAPEADV?$Local@VObject@v8@@@v8@@@Z 0000000180051b01 f   node:node.exe
 0001:00050b0d       __imp_load_?Length@Buffer@node@@YA_KV?$Local@VObject@v8@@@v8@@@Z 0000000180051b0d f   node:node.exe
 0001:00050b19       __imp_load_?Global@Context@v8@@QEAA?AV?$Local@VObject@v8@@@2@XZ 0000000180051b19 f   node:node.exe
 0001:00050b25       __imp_load_?CreateHandle@HandleScope@v8@@KAPEAPEAVObject@internal@2@PEAVIsolate@42@PEAV342@@Z 0000000180051b25 f   node:node.exe
 0001:00050b31       __imp_load_?New@Buffer@node@@YA?AV?$MaybeLocal@VObject@v8@@@v8@@PEAVIsolate@4@_K@Z 0000000180051b31 f   node:node.exe
 0001:00050b3d       __imp_load_?MakeCallback@node@@YA?AV?$MaybeLocal@VValue@v8@@@v8@@PEAVIsolate@3@V?$Local@VObject@v8@@@3@V?$Local@VFunction@v8@@@3@HPEAV?$Local@VValue@v8@@@3@Uasync_context@1@@Z 0000000180051b3d f   node:node.exe
 0001:00050b49       __imp_load_uv_queue_work   0000000180051b49 f   node:node.exe
 0001:00050b55       __imp_load_?Value@External@v8@@QEBAPEAXXZ 0000000180051b55 f   node:node.exe
 0001:00050b61       __imp_load_?New@External@v8@@SA?AV?$Local@VExternal@v8@@@2@PEAVIsolate@2@PEAX@Z 0000000180051b61 f   node:node.exe
 0001:00050b6d       __imp_load_?NewFromUnsigned@Integer@v8@@SA?AV?$Local@VInteger@v8@@@2@PEAVIsolate@2@I@Z 0000000180051b6d f   node:node.exe
 0001:00050b79       __imp_load_?New@Integer@v8@@SA?AV?$Local@VInteger@v8@@@2@PEAVIsolate@2@H@Z 0000000180051b79 f   node:node.exe
 0001:00050b85       __imp_load_?New@Signature@v8@@SA?AV?$Local@VSignature@v8@@@2@PEAVIsolate@2@V?$Local@VFunctionTemplate@v8@@@2@@Z 0000000180051b85 f   node:node.exe
 0001:00050b91       __imp_load_?ThrowException@Isolate@v8@@QEAA?AV?$Local@VValue@v8@@@2@V32@@Z 0000000180051b91 f   node:node.exe
 0001:00050b9d       __imp_load_?CreateHandle@HandleScope@v8@@CAPEAPEAVObject@internal@2@PEAVHeapObject@42@PEAV342@@Z 0000000180051b9d f   node:node.exe
 0001:00050ba9       __imp_load_?Set@Template@v8@@QEAAXV?$Local@VName@v8@@@2@V?$Local@VData@v8@@@2@W4PropertyAttribute@2@@Z 0000000180051ba9 f   node:node.exe
 0001:00050bb5       __imp_load_?Error@Exception@v8@@SA?AV?$Local@VValue@v8@@@2@V?$Local@VString@v8@@@2@@Z 0000000180051bb5 f   node:node.exe
 0001:00050bc1       __imp_load_?TypeError@Exception@v8@@SA?AV?$Local@VValue@v8@@@2@V?$Local@VString@v8@@@2@@Z 0000000180051bc1 f   node:node.exe
 0001:00050bcd       __imp_load_?SetClassName@FunctionTemplate@v8@@QEAAXV?$Local@VString@v8@@@2@@Z 0000000180051bcd f   node:node.exe
 0001:00050bd9       __imp_load_?PrototypeTemplate@FunctionTemplate@v8@@QEAA?AV?$Local@VObjectTemplate@v8@@@2@XZ 0000000180051bd9 f   node:node.exe
 0001:00050be5       __imp_load_?InstanceTemplate@FunctionTemplate@v8@@QEAA?AV?$Local@VObjectTemplate@v8@@@2@XZ 0000000180051be5 f   node:node.exe
 0001:00050bf1       __imp_load_?GetFunction@FunctionTemplate@v8@@QEAA?AV?$MaybeLocal@VFunction@v8@@@2@V?$Local@VContext@v8@@@2@@Z 0000000180051bf1 f   node:node.exe
 0001:00050bfd       __imp_load_?New@FunctionTemplate@v8@@SA?AV?$Local@VFunctionTemplate@v8@@@2@PEAVIsolate@2@P6AXAEBV?$FunctionCallbackInfo@VValue@v8@@@2@@ZV?$Local@VValue@v8@@@2@V?$Local@VSignature@v8@@@2@HW4ConstructorBehavior@2@W4SideEffectType@2@@Z 0000000180051bfd f   node:node.exe
 0001:00050c09       __imp_load_?ClearWeak@V8@v8@@CAPEAXPEAPEAVObject@internal@2@@Z 0000000180051c09 f   node:node.exe
 0001:00050c15       __imp_load_?MakeWeak@V8@v8@@CAXPEAPEAVObject@internal@2@PEAXP6AXAEBV?$WeakCallbackInfo@X@2@@ZW4WeakCallbackType@2@@Z 0000000180051c15 f   node:node.exe
 0001:00050c21       __imp_load_?DisposeGlobal@V8@v8@@CAXPEAPEAVObject@internal@2@@Z 0000000180051c21 f   node:node.exe
 0001:00050c2d       __imp_load_?GlobalizeReference@V8@v8@@CAPEAPEAVObject@internal@2@PEAVIsolate@42@PEAPEAV342@@Z 0000000180051c2d f   node:node.exe
 0001:00050c39       __imp_load_?ToInt32@Value@v8@@QEBA?AV?$MaybeLocal@VInt32@v8@@@2@V?$Local@VContext@v8@@@2@@Z 0000000180051c39 f   node:node.exe
 0001:00050c45       __imp_load_?ToUint32@Value@v8@@QEBA?AV?$MaybeLocal@VUint32@v8@@@2@V?$Local@VContext@v8@@@2@@Z 0000000180051c45 f   node:node.exe
 0001:00050c51       __imp_load_?IsFunction@Value@v8@@QEBA_NXZ 0000000180051c51 f   node:node.exe
 0001:00050c5d       __imp_load_?SlowGetAlignedPointerFromInternalField@Object@v8@@AEAAPEAXH@Z 0000000180051c5d f   node:node.exe
 0001:00050c69       __imp_load_?SlowGetInternalField@Object@v8@@AEAA?AV?$Local@VValue@v8@@@2@H@Z 0000000180051c69 f   node:node.exe
 0001:00050c75       __imp_load_?SetAlignedPointerInInternalField@Object@v8@@QEAAXHPEAX@Z 0000000180051c75 f   node:node.exe
 0001:00050c81       __imp_load_?SetInternalField@Object@v8@@QEAAXHV?$Local@VValue@v8@@@2@@Z 0000000180051c81 f   node:node.exe
 0001:00050c8d       __imp_load_?InternalFieldCount@Object@v8@@QEAAHXZ 0000000180051c8d f   node:node.exe
 0001:00050c99       __imp_load_?Has@Object@v8@@QEAA?AV?$Maybe@_N@2@V?$Local@VContext@v8@@@2@V?$Local@VValue@v8@@@2@@Z 0000000180051c99 f   node:node.exe
 0001:00050ca5       __imp_load_?Call@Function@v8@@QEAA?AV?$MaybeLocal@VValue@v8@@@2@V?$Local@VContext@v8@@@2@V?$Local@VValue@v8@@@2@HQEAV52@@Z 0000000180051ca5 f   node:node.exe
 0001:00050cb1       __imp_load_?NewInstance@Function@v8@@QEBA?AV?$MaybeLocal@VObject@v8@@@2@V?$Local@VContext@v8@@@2@HQEAV?$Local@VValue@v8@@@2@@Z 0000000180051cb1 f   node:node.exe
 0001:00050cbd       __imp_load_?SetInternalFieldCount@ObjectTemplate@v8@@QEAAXH@Z 0000000180051cbd f   node:node.exe
 0001:00050cc9       __imp_load_?SetAccessor@ObjectTemplate@v8@@QEAAXV?$Local@VName@v8@@@2@P6AX0AEBV?$PropertyCallbackInfo@VValue@v8@@@2@@ZP6AX0V?$Local@VValue@v8@@@2@AEBV?$PropertyCallbackInfo@X@2@@Z3W4AccessControl@2@W4PropertyAttribute@2@V?$Local@VAccessorSignature@v8@@@2@@Z 0000000180051cc9 f   node:node.exe
 0001:00050cd5       __imp_load_?NewInstance@ObjectTemplate@v8@@QEAA?AV?$MaybeLocal@VObject@v8@@@2@V?$Local@VContext@v8@@@2@@Z 0000000180051cd5 f   node:node.exe
 0001:00050ce1       __imp_load_?New@ObjectTemplate@v8@@SA?AV?$Local@VObjectTemplate@v8@@@2@PEAVIsolate@2@V?$Local@VFunctionTemplate@v8@@@2@@Z 0000000180051ce1 f   node:node.exe
 0001:00050ced       __imp_load_?EmitAsyncDestroy@node@@YAXPEAVIsolate@v8@@Uasync_context@1@@Z 0000000180051ced f   node:node.exe
 0001:00050cf9       __imp_load_?EmitAsyncInit@node@@YA?AUasync_context@1@PEAVIsolate@v8@@V?$Local@VObject@v8@@@4@V?$Local@VString@v8@@@4@N@Z 0000000180051cf9 f   node:node.exe
 0001:00050d05       __imp_load_?GetCurrentEventLoop@node@@YAPEAUuv_loop_s@@PEAVIsolate@v8@@@Z 0000000180051d05 f   node:node.exe
 0001:00050d14       ??0bad_alloc@std@@QEAA@AEBV01@@Z 0000000180051d14 f i libcpmt:xthrow.obj
 0001:00050d54       ??0bad_alloc@std@@QEAA@XZ  0000000180051d54 f i libcpmt:xthrow.obj
 0001:00050d74       ??0exception@std@@QEAA@AEBV01@@Z 0000000180051d74 f i libcpmt:xthrow.obj
 0001:00050dac       ??0length_error@std@@QEAA@AEBV01@@Z 0000000180051dac f i libcpmt:xthrow.obj
 0001:00050dec       ??0length_error@std@@QEAA@PEBD@Z 0000000180051dec f i libcpmt:xthrow.obj
 0001:00050e38       ??0logic_error@std@@QEAA@AEBV01@@Z 0000000180051e38 f i libcpmt:xthrow.obj
 0001:00050e78       ??0out_of_range@std@@QEAA@AEBV01@@Z 0000000180051e78 f i libcpmt:xthrow.obj
 0001:00050eb8       ??0out_of_range@std@@QEAA@PEBD@Z 0000000180051eb8 f i libcpmt:xthrow.obj
 0001:00050f04       ??1bad_array_new_length@std@@UEAA@XZ 0000000180051f04 f i LIBCMT:throw_bad_alloc.obj
 0001:00050f04       ??1length_error@std@@UEAA@XZ 0000000180051f04 f i libcpmt:xthrow.obj
 0001:00050f04       ??1out_of_range@std@@UEAA@XZ 0000000180051f04 f i libcpmt:xthrow.obj
 0001:00050f04       ??1bad_exception@std@@UEAA@XZ 0000000180051f04 f i libvcruntime:frame.obj
 0001:00050f04       ??1bad_alloc@std@@UEAA@XZ  0000000180051f04 f i libcpmt:xthrow.obj
 0001:00050f18       ??_Gbad_array_new_length@std@@UEAAPEAXI@Z 0000000180051f18 f i LIBCMT:throw_bad_alloc.obj
 0001:00050f18       ??_Ebad_array_new_length@std@@UEAAPEAXI@Z 0000000180051f18 f i LIBCMT:throw_bad_alloc.obj
 0001:00050f18       ??_Glength_error@std@@UEAAPEAXI@Z 0000000180051f18 f i libcpmt:xthrow.obj
 0001:00050f18       ??_Ebad_exception@std@@UEAAPEAXI@Z 0000000180051f18 f i libvcruntime:frame.obj
 0001:00050f18       ??_Gexception@std@@UEAAPEAXI@Z 0000000180051f18 f i libcpmt:xthrow.obj
 0001:00050f18       ??_Glogic_error@std@@UEAAPEAXI@Z 0000000180051f18 f i libcpmt:xthrow.obj
 0001:00050f18       ??_Gbad_exception@std@@UEAAPEAXI@Z 0000000180051f18 f i libvcruntime:frame.obj
 0001:00050f18       ??_Eexception@std@@UEAAPEAXI@Z 0000000180051f18 f i libcpmt:xthrow.obj
 0001:00050f18       ??_Gbad_alloc@std@@UEAAPEAXI@Z 0000000180051f18 f i libcpmt:xthrow.obj
 0001:00050f18       ??_Elogic_error@std@@UEAAPEAXI@Z 0000000180051f18 f i libcpmt:xthrow.obj
 0001:00050f18       ??_Ebad_alloc@std@@UEAAPEAXI@Z 0000000180051f18 f i libcpmt:xthrow.obj
 0001:00050f18       ??_Eout_of_range@std@@UEAAPEAXI@Z 0000000180051f18 f i libcpmt:xthrow.obj
 0001:00050f18       ??_Elength_error@std@@UEAAPEAXI@Z 0000000180051f18 f i libcpmt:xthrow.obj
 0001:00050f18       ??_Gout_of_range@std@@UEAAPEAXI@Z 0000000180051f18 f i libcpmt:xthrow.obj
 0001:00050f5c       ?_Xlength_error@std@@YAXPEBD@Z 0000000180051f5c f   libcpmt:xthrow.obj
 0001:00050f80       ?_Xout_of_range@std@@YAXPEBD@Z 0000000180051f80 f   libcpmt:xthrow.obj
 0001:00050fa4       ?what@exception@std@@UEBAPEBDXZ 0000000180051fa4 f i libcpmt:xthrow.obj
 0001:00050fd0       __security_check_cookie    0000000180051fd0 f   LIBCMT:amdsecgs.obj
 0001:00050ff4       ??2@YAPEAX_K@Z             0000000180051ff4 f   LIBCMT:new_scalar.obj
 0001:00051030       ??3@YAXPEAX_K@Z            0000000180052030 f   LIBCMT:delete_scalar_size.obj
 0001:00051030       ??_V@YAXPEAX@Z             0000000180052030 f   LIBCMT:delete_array.obj
 0001:00051038       ??_Gtype_info@@UEAAPEAXI@Z 0000000180052038 f i LIBCMT:std_type_info_static.obj
 0001:00051038       ??_Etype_info@@UEAAPEAXI@Z 0000000180052038 f i LIBCMT:std_type_info_static.obj
 0001:00051064       ??_U@YAPEAX_K@Z            0000000180052064 f   LIBCMT:new_array.obj
 0001:000511f4       _Init_thread_footer        00000001800521f4 f   LIBCMT:thread_safe_statics.obj
 0001:00051254       _Init_thread_header        0000000180052254 f   LIBCMT:thread_safe_statics.obj
 0001:000512bc       _Init_thread_notify        00000001800522bc f   LIBCMT:thread_safe_statics.obj
 0001:0005130c       _Init_thread_wait          000000018005230c f   LIBCMT:thread_safe_statics.obj
 0001:00051384       __scrt_acquire_startup_lock 0000000180052384 f   LIBCMT:utility.obj
 0001:000513c0       __scrt_dllmain_after_initialize_c 00000001800523c0 f   LIBCMT:utility.obj
 0001:000513f4       __scrt_dllmain_before_initialize_c 00000001800523f4 f   LIBCMT:utility.obj
 0001:0005140c       __scrt_dllmain_crt_thread_attach 000000018005240c f   LIBCMT:utility.obj
 0001:00051434       __scrt_dllmain_crt_thread_detach 0000000180052434 f   LIBCMT:utility.obj
 0001:0005144c       __scrt_dllmain_exception_filter 000000018005244c f   LIBCMT:utility.obj
 0001:000514ac       __scrt_dllmain_uninitialize_c 00000001800524ac f   LIBCMT:utility.obj
 0001:000514dc       __scrt_dllmain_uninitialize_critical 00000001800524dc f   LIBCMT:utility.obj
 0001:000514f0       __scrt_initialize_crt      00000001800524f0 f   LIBCMT:utility.obj
 0001:0005153c       __scrt_initialize_onexit_tables 000000018005253c f   LIBCMT:utility.obj
 0001:00051614       __scrt_is_nonwritable_in_current_image 0000000180052614 f   LIBCMT:utility.obj
 0001:000516b0       __scrt_release_startup_lock 00000001800526b0 f   LIBCMT:utility.obj
 0001:000516d4       __scrt_uninitialize_crt    00000001800526d4 f   LIBCMT:utility.obj
 0001:00051700       _onexit                    0000000180052700 f   LIBCMT:utility.obj
 0001:00051750       atexit                     0000000180052750 f   LIBCMT:utility.obj
 0001:00051a98       _DllMainCRTStartup         0000000180052a98 f   LIBCMT:dll_dllmain.obj
 0001:00051ad8       __raise_securityfailure    0000000180052ad8 f   LIBCMT:gs_report.obj
 0001:00051b0c       __report_gsfailure         0000000180052b0c f   LIBCMT:gs_report.obj
 0001:00051be0       __report_rangecheckfailure 0000000180052be0 f   LIBCMT:gs_report.obj
 0001:00051bf4       __report_securityfailure   0000000180052bf4 f   LIBCMT:gs_report.obj
 0001:00051d74       ??0bad_array_new_length@std@@QEAA@AEBV01@@Z 0000000180052d74 f i LIBCMT:throw_bad_alloc.obj
 0001:00051db4       ??0bad_array_new_length@std@@QEAA@XZ 0000000180052db4 f i LIBCMT:throw_bad_alloc.obj
 0001:00051dd4       ?__scrt_throw_std_bad_alloc@@YAXXZ 0000000180052dd4 f   LIBCMT:throw_bad_alloc.obj
 0001:00051df4       ?__scrt_throw_std_bad_array_new_length@@YAXXZ 0000000180052df4 f   LIBCMT:throw_bad_alloc.obj
 0001:00051e14       ??3@YAXPEAX@Z              0000000180052e14 f   LIBCMT:delete_scalar.obj
 0001:00051e1c       __crt_debugger_hook        0000000180052e1c f   LIBCMT:utility_desktop.obj
 0001:00051e24       __scrt_fastfail            0000000180052e24 f   LIBCMT:utility_desktop.obj
 0001:00051f70       __isa_available_init       0000000180052f70 f   LIBCMT:cpu_disp.obj
 0001:000520ec       _get_startup_argv_mode     00000001800530ec f   LIBCMT:argv_mode.obj
 0001:000520ec       DllMain                    00000001800530ec f   LIBCMT:dll_dllmain_stub.obj
 0001:000520f4       __scrt_is_ucrt_dll_in_use  00000001800530f4 f   LIBCMT:ucrt_detection.obj
 0001:00052100       __security_init_cookie     0000000180053100 f   LIBCMT:gs_support.obj
 0001:000521ac       ?__scrt_initialize_type_info@@YAXXZ 00000001800531ac f   LIBCMT:tncleanup.obj
 0001:000521bc       ?__scrt_uninitialize_type_info@@YAXXZ 00000001800531bc f   LIBCMT:tncleanup.obj
 0001:000521c8       __local_stdio_scanf_options 00000001800531c8 f i LIBCMT:default_local_stdio_options.obj
 0001:000521d0       __scrt_initialize_default_local_stdio_options 00000001800531d0 f   LIBCMT:default_local_stdio_options.obj
 0001:000521ec       __scrt_get_dyn_tls_init_callback 00000001800531ec f   LIBCMT:dyn_tls_init.obj
 0001:000521f4       _RTC_Initialize            00000001800531f4 f   LIBCMT:initsect.obj
 0001:00052230       _RTC_Terminate             0000000180053230 f   LIBCMT:initsect.obj
 0001:00052270       ??$_CallSETranslator@V__FrameHandler3@@@@YAHPEAUEHExceptionRecord@@PEA_KPEAU_CONTEXT@@PEAU_xDISPATCHER_CONTEXT@@PEBU_s_FuncInfo@@K1@Z 0000000180053270 f i libvcruntime:risctrnsctrl.obj
 0001:000522c4       ?CatchTryBlock@__FrameHandler3@@SAPEBU_s_TryBlockMapEntry@@PEBU_s_FuncInfo@@H@Z 00000001800532c4 f   libvcruntime:risctrnsctrl.obj
 0001:0005231c       ?ExecutionInCatch@__FrameHandler3@@SA_NPEAU_xDISPATCHER_CONTEXT@@PEBU_s_FuncInfo@@@Z 000000018005331c f   libvcruntime:risctrnsctrl.obj
 0001:00052348       ?FrameUnwindToEmptyState@__FrameHandler3@@SAXPEA_KPEAU_xDISPATCHER_CONTEXT@@PEBU_s_FuncInfo@@@Z 0000000180053348 f   libvcruntime:risctrnsctrl.obj
 0001:000523ac       ?GetEstablisherFrame@__FrameHandler3@@SAPEA_KPEA_KPEAU_xDISPATCHER_CONTEXT@@PEBU_s_FuncInfo@@0@Z 00000001800533ac f   libvcruntime:risctrnsctrl.obj
 0001:00052478       ?GetRangeOfTrysToCheck@__FrameHandler3@@SA?AU?$pair@Viterator@TryBlockMap@__FrameHandler3@@V123@@std@@AEAVTryBlockMap@1@HH@Z 0000000180053478 f   libvcruntime:risctrnsctrl.obj
 0001:000525d4       ?UnwindNestedFrames@__FrameHandler3@@SAXPEA_KPEAUEHExceptionRecord@@PEAU_CONTEXT@@0PEAXPEBU_s_FuncInfo@@HHPEBU_s_HandlerType@@PEAU_xDISPATCHER_CONTEXT@@E@Z 00000001800535d4 f   libvcruntime:risctrnsctrl.obj
 0001:000526f8       _CreateFrameInfo           00000001800536f8 f   libvcruntime:risctrnsctrl.obj
 0001:00052734       _FindAndUnlinkFrame        0000000180053734 f   libvcruntime:risctrnsctrl.obj
 0001:00052788       _GetImageBase              0000000180053788 f   libvcruntime:risctrnsctrl.obj
 0001:0005279c       _GetThrowImageBase         000000018005379c f   libvcruntime:risctrnsctrl.obj
 0001:000527b0       _SetImageBase              00000001800537b0 f   libvcruntime:risctrnsctrl.obj
 0001:000527c8       _SetThrowImageBase         00000001800537c8 f   libvcruntime:risctrnsctrl.obj
 0001:000527e0       __CxxFrameHandler3         00000001800537e0 f   libvcruntime:risctrnsctrl.obj
 0001:00052860       __DestructExceptionObject  0000000180053860 f   libvcruntime:ehhelpers.obj
 0001:000528d4       ?_CallMemberFunction0@@YAXQEAX0@Z 00000001800538d4 f i libvcruntime:ehhelpers.obj
 0001:000528d8       _IsExceptionObjectToBeDestroyed 00000001800538d8 f   libvcruntime:ehhelpers.obj
 0001:00052908       __AdjustPointer            0000000180053908 f   libvcruntime:ehhelpers.obj
 0001:0005292c       __FrameUnwindFilter        000000018005392c f   libvcruntime:ehhelpers.obj
 0001:00052978       __std_terminate            0000000180053978 f   libvcruntime:ehhelpers.obj
 0001:00052984       _purecall                  0000000180053984 f   libvcruntime:purevirt.obj
 0001:000529b4       __std_exception_copy       00000001800539b4 f   libvcruntime:std_exception.obj
 0001:00052a44       __std_exception_destroy    0000000180053a44 f   libvcruntime:std_exception.obj
 0001:00052a6c       _CxxThrowException         0000000180053a6c f   libvcruntime:throw.obj
 0001:00052b2c       __vcrt_initialize          0000000180053b2c f   libvcruntime:initialization.obj
 0001:00052b60       __vcrt_thread_attach       0000000180053b60 f   libvcruntime:initialization.obj
 0001:00052b74       __vcrt_thread_detach       0000000180053b74 f   libvcruntime:initialization.obj
 0001:00052b88       __vcrt_uninitialize        0000000180053b88 f   libvcruntime:initialization.obj
 0001:00052ba8       __vcrt_uninitialize_critical 0000000180053ba8 f   libvcruntime:initialization.obj
 0001:00052bb8       __C_specific_handler       0000000180053bb8 f   libvcruntime:riscchandler.obj
 0001:00052de0       memset_repmovs             0000000180053de0 f   libvcruntime:memset.obj
 0001:00052e00       memset                     0000000180053e00 f   libvcruntime:memset.obj
 0001:00052f90       __std_type_info_compare    0000000180053f90 f   libvcruntime:std_type_info.obj
 0001:00052fb8       __std_type_info_destroy_list 0000000180053fb8 f   libvcruntime:std_type_info.obj
 0001:00052fe4       __vcrt_freefls             0000000180053fe4 f   libvcruntime:per_thread_data.obj
 0001:00053004       __vcrt_freeptd             0000000180054004 f   libvcruntime:per_thread_data.obj
 0001:00053054       __vcrt_getptd              0000000180054054 f   libvcruntime:per_thread_data.obj
 0001:00053070       __vcrt_getptd_noexit       0000000180054070 f   libvcruntime:per_thread_data.obj
 0001:0005313c       __vcrt_initialize_ptd      000000018005413c f   libvcruntime:per_thread_data.obj
 0001:00053190       __vcrt_uninitialize_ptd    0000000180054190 f   libvcruntime:per_thread_data.obj
 0001:000531b4       ?GetCurrentState@__FrameHandler3@@SAHPEA_KPEAU_xDISPATCHER_CONTEXT@@PEBU_s_FuncInfo@@@Z 00000001800541b4 f   libvcruntime:ehstate.obj
 0001:000531dc       ?GetUnwindTryBlock@__FrameHandler3@@SAHPEA_KPEAU_xDISPATCHER_CONTEXT@@PEBU_s_FuncInfo@@@Z 00000001800541dc f   libvcruntime:ehstate.obj
 0001:00053208       ?SetState@__FrameHandler3@@SAXPEA_KPEBU_s_FuncInfo@@H@Z 0000000180054208 f   libvcruntime:ehstate.obj
 0001:00053214       ?SetUnwindTryBlock@__FrameHandler3@@SAXPEA_KPEAU_xDISPATCHER_CONTEXT@@PEBU_s_FuncInfo@@H@Z 0000000180054214 f   libvcruntime:ehstate.obj
 0001:00053250       ?StateFromControlPc@__FrameHandler3@@SAHPEBU_s_FuncInfo@@PEAU_xDISPATCHER_CONTEXT@@@Z 0000000180054250 f   libvcruntime:ehstate.obj
 0001:00053258       ?StateFromIp@__FrameHandler3@@SAHPEBU_s_FuncInfo@@PEAU_xDISPATCHER_CONTEXT@@_K@Z 0000000180054258 f   libvcruntime:ehstate.obj
 0001:00053ce4       ??$TypeMatchHelper@V__FrameHandler3@@@@YAHPEBU_s_HandlerType@@PEBU_s_CatchableType@@PEBU_s_ThrowInfo@@@Z 0000000180054ce4 f i libvcruntime:frame.obj
 0001:00053e28       ??$__InternalCxxFrameHandler@V__FrameHandler3@@@@YA?AW4_EXCEPTION_DISPOSITION@@PEAUEHExceptionRecord@@PEA_KPEAU_CONTEXT@@PEAU_xDISPATCHER_CONTEXT@@PEBU_s_FuncInfo@@H1E@Z 0000000180054e28 f i libvcruntime:frame.obj
 0001:00054070       ??0bad_exception@std@@QEAA@AEBV01@@Z 0000000180055070 f i libvcruntime:frame.obj
 0001:000540b0       ??0bad_exception@std@@QEAA@XZ 00000001800550b0 f i libvcruntime:frame.obj
 0001:000540d0       ?CxxCallCatchBlock@__FrameHandler3@@SAPEAXPEAU_EXCEPTION_RECORD@@@Z 00000001800550d0 f   libvcruntime:frame.obj
 0001:00054344       ?FrameUnwindToState@__FrameHandler3@@SAXPEA_KPEAU_xDISPATCHER_CONTEXT@@PEBU_s_FuncInfo@@H@Z 0000000180055344 f   libvcruntime:frame.obj
 0001:000544d8       ?GetHandlerSearchState@__FrameHandler3@@SAHPEA_KPEAU_xDISPATCHER_CONTEXT@@PEBU_s_FuncInfo@@@Z 00000001800554d8 f i libvcruntime:frame.obj
 0001:000546dc       ?_CallMemberFunction1@@YAXQEAX00@Z 00000001800556dc f i libvcruntime:frame.obj
 0001:000546e8       ?_CallMemberFunction2@@YAXQEAX00H@Z 00000001800556e8 f i libvcruntime:frame.obj
 0001:000546f8       __vcrt_initialize_pure_virtual_call_handler 00000001800556f8 f   libvcruntime:purevirt_data.obj
 0001:00054708       __vcrt_initialize_locks    0000000180055708 f   libvcruntime:locks.obj
 0001:00054750       __vcrt_uninitialize_locks  0000000180055750 f   libvcruntime:locks.obj
 0001:00054960       __vcrt_FlsAlloc            0000000180055960 f   libvcruntime:winapi_downlevel.obj
 0001:000549a8       __vcrt_FlsFree             00000001800559a8 f   libvcruntime:winapi_downlevel.obj
 0001:000549f0       __vcrt_FlsGetValue         00000001800559f0 f   libvcruntime:winapi_downlevel.obj
 0001:00054a38       __vcrt_FlsSetValue         0000000180055a38 f   libvcruntime:winapi_downlevel.obj
 0001:00054a8c       __vcrt_InitializeCriticalSectionEx 0000000180055a8c f   libvcruntime:winapi_downlevel.obj
 0001:00054af0       __vcrt_initialize_winapi_thunks 0000000180055af0 f   libvcruntime:winapi_downlevel.obj
 0001:00054b20       __vcrt_uninitialize_winapi_thunks 0000000180055b20 f   libvcruntime:winapi_downlevel.obj
 0001:00054b70       _NLG_Notify                0000000180055b70 f   libvcruntime:notify.obj
 0001:00054b90       __NLG_Dispatch2            0000000180055b90 f   libvcruntime:notify.obj
 0001:00054ba0       __NLG_Return2              0000000180055ba0 f   libvcruntime:notify.obj
 0001:00054ba4       __except_validate_context_record 0000000180055ba4 f   libvcruntime:jbcxrval.obj
 0001:00054bf0       _CallSettingFrame          0000000180055bf0 f   libvcruntime:handlers.obj
 0001:00054c40       _CallSettingFrameEncoded   0000000180055c40 f   libvcruntime:handlers.obj
 0001:00054ca0       memcpy_repmovs             0000000180055ca0 f   libvcruntime:memcpy.obj
 0001:00054cc0       memcpy                     0000000180055cc0 f   libvcruntime:memcpy.obj
 0001:00054cc0       memmove                    0000000180055cc0 f   libvcruntime:memcpy.obj
 0001:000554c8       ??$ensure_buffer_is_big_enough@D@formatting_buffer@__crt_stdio_output@@QEAA_N_K@Z 00000001800564c8 f i libucrt:output.obj
 0001:00055570       ??$ensure_buffer_is_big_enough@_W@formatting_buffer@__crt_stdio_output@@QEAA_N_K@Z 0000000180056570 f i libucrt:output.obj
 0001:0005561c       ??$is_wide_character_specifier@_W@__crt_stdio_output@@YA_N_K_WW4length_modifier@0@@Z 000000018005661c f i libucrt:output.obj
 0001:0005565c       ??$type_case_integer_parse_into_buffer@I@?$output_processor@DV?$string_output_adapter@D@__crt_stdio_output@@V?$standard_base@DV?$string_output_adapter@D@__crt_stdio_output@@@2@@__crt_stdio_output@@AEAAXII_N@Z 000000018005665c f i libucrt:output.obj
 0001:000556ec       ??$type_case_integer_parse_into_buffer@I@?$output_processor@_WV?$stream_output_adapter@_W@__crt_stdio_output@@V?$standard_base@_WV?$stream_output_adapter@_W@__crt_stdio_output@@@2@@__crt_stdio_output@@AEAAXII_N@Z 00000001800566ec f i libucrt:output.obj
 0001:000556ec       ??$type_case_integer_parse_into_buffer@I@?$output_processor@_WV?$string_output_adapter@_W@__crt_stdio_output@@V?$standard_base@_WV?$string_output_adapter@_W@__crt_stdio_output@@@2@@__crt_stdio_output@@AEAAXII_N@Z 00000001800566ec f i libucrt:output.obj
 0001:00055790       ??$type_case_integer_parse_into_buffer@_K@?$output_processor@DV?$string_output_adapter@D@__crt_stdio_output@@V?$standard_base@DV?$string_output_adapter@D@__crt_stdio_output@@@2@@__crt_stdio_output@@AEAAX_KI_N@Z 0000000180056790 f i libucrt:output.obj
 0001:00055824       ??$type_case_integer_parse_into_buffer@_K@?$output_processor@_WV?$string_output_adapter@_W@__crt_stdio_output@@V?$standard_base@_WV?$string_output_adapter@_W@__crt_stdio_output@@@2@@__crt_stdio_output@@AEAAX_KI_N@Z 0000000180056824 f i libucrt:output.obj
 0001:00055824       ??$type_case_integer_parse_into_buffer@_K@?$output_processor@_WV?$stream_output_adapter@_W@__crt_stdio_output@@V?$standard_base@_WV?$stream_output_adapter@_W@__crt_stdio_output@@@2@@__crt_stdio_output@@AEAAX_KI_N@Z 0000000180056824 f i libucrt:output.obj
 0001:000558c8       ??$write_multiple_characters@V?$stream_output_adapter@_W@__crt_stdio_output@@D@__crt_stdio_output@@YAXAEBV?$stream_output_adapter@_W@0@DHQEAH@Z 00000001800568c8 f i libucrt:output.obj
 0001:0005595c       ??$write_multiple_characters@V?$string_output_adapter@D@__crt_stdio_output@@D@__crt_stdio_output@@YAXAEBV?$string_output_adapter@D@0@DHQEAH@Z 000000018005695c f i libucrt:output.obj
 0001:000559d4       ??$write_multiple_characters@V?$string_output_adapter@_W@__crt_stdio_output@@D@__crt_stdio_output@@YAXAEBV?$string_output_adapter@_W@0@DHQEAH@Z 00000001800569d4 f i libucrt:output.obj
 0001:00055a50       ??0_LocaleUpdate@@QEAA@QEAU__crt_locale_pointers@@@Z 0000000180056a50 f i libucrt:output.obj
 0001:00055c20       ?crop_zeroes@__crt_stdio_output@@YAXPEADQEAU__crt_locale_pointers@@@Z 0000000180056c20 f i libucrt:output.obj
 0001:00055c8c       ?force_decimal_point@__crt_stdio_output@@YAXPEADQEAU__crt_locale_pointers@@@Z 0000000180056c8c f i libucrt:output.obj
 0001:00055cfc       ?parse_int_from_format_string@?$output_processor@DV?$string_output_adapter@D@__crt_stdio_output@@V?$standard_base@DV?$string_output_adapter@D@__crt_stdio_output@@@2@@__crt_stdio_output@@AEAA_NQEAH@Z 0000000180056cfc f i libucrt:output.obj
 0001:00055da0       ?parse_int_from_format_string@?$output_processor@_WV?$stream_output_adapter@_W@__crt_stdio_output@@V?$standard_base@_WV?$stream_output_adapter@_W@__crt_stdio_output@@@2@@__crt_stdio_output@@AEAA_NQEAH@Z 0000000180056da0 f i libucrt:output.obj
 0001:00055da0       ?parse_int_from_format_string@?$output_processor@_WV?$string_output_adapter@_W@__crt_stdio_output@@V?$standard_base@_WV?$string_output_adapter@_W@__crt_stdio_output@@@2@@__crt_stdio_output@@AEAA_NQEAH@Z 0000000180056da0 f i libucrt:output.obj
 0001:00055e44       ?process@?$output_processor@DV?$string_output_adapter@D@__crt_stdio_output@@V?$standard_base@DV?$string_output_adapter@D@__crt_stdio_output@@@2@@__crt_stdio_output@@QEAAHXZ 0000000180056e44 f i libucrt:output.obj
 0001:00056050       ?process@?$output_processor@_WV?$stream_output_adapter@_W@__crt_stdio_output@@V?$standard_base@_WV?$stream_output_adapter@_W@__crt_stdio_output@@@2@@__crt_stdio_output@@QEAAHXZ 0000000180057050 f i libucrt:output.obj
 0001:000562bc       ?process@?$output_processor@_WV?$string_output_adapter@_W@__crt_stdio_output@@V?$standard_base@_WV?$string_output_adapter@_W@__crt_stdio_output@@@2@@__crt_stdio_output@@QEAAHXZ 00000001800572bc f i libucrt:output.obj
 0001:00056538       ?state_case_normal@?$output_processor@DV?$string_output_adapter@D@__crt_stdio_output@@V?$standard_base@DV?$string_output_adapter@D@__crt_stdio_output@@@2@@__crt_stdio_output@@AEAA_NXZ 0000000180057538 f i libucrt:output.obj
 0001:000565ac       ?state_case_normal_tchar@?$output_processor@DV?$string_output_adapter@D@__crt_stdio_output@@V?$standard_base@DV?$string_output_adapter@D@__crt_stdio_output@@@2@@__crt_stdio_output@@AEAA_ND@Z 00000001800575ac f i libucrt:output.obj
 0001:00056654       ?state_case_size@?$output_processor@DV?$string_output_adapter@D@__crt_stdio_output@@V?$standard_base@DV?$string_output_adapter@D@__crt_stdio_output@@@2@@__crt_stdio_output@@AEAA_NXZ 0000000180057654 f i libucrt:output.obj
 0001:000567c8       ?state_case_size@?$output_processor@_WV?$stream_output_adapter@_W@__crt_stdio_output@@V?$standard_base@_WV?$stream_output_adapter@_W@__crt_stdio_output@@@2@@__crt_stdio_output@@AEAA_NXZ 00000001800577c8 f i libucrt:output.obj
 0001:00056960       ?state_case_size@?$output_processor@_WV?$string_output_adapter@_W@__crt_stdio_output@@V?$standard_base@_WV?$string_output_adapter@_W@__crt_stdio_output@@@2@@__crt_stdio_output@@AEAA_NXZ 0000000180057960 f i libucrt:output.obj
 0001:00056af8       ?state_case_type@?$output_processor@DV?$string_output_adapter@D@__crt_stdio_output@@V?$standard_base@DV?$string_output_adapter@D@__crt_stdio_output@@@2@@__crt_stdio_output@@AEAA_NXZ 0000000180057af8 f i libucrt:output.obj
 0001:00056d60       ?state_case_type@?$output_processor@_WV?$stream_output_adapter@_W@__crt_stdio_output@@V?$standard_base@_WV?$stream_output_adapter@_W@__crt_stdio_output@@@2@@__crt_stdio_output@@AEAA_NXZ 0000000180057d60 f i libucrt:output.obj
 0001:00057040       ?state_case_type@?$output_processor@_WV?$string_output_adapter@_W@__crt_stdio_output@@V?$standard_base@_WV?$string_output_adapter@_W@__crt_stdio_output@@@2@@__crt_stdio_output@@AEAA_NXZ 0000000180058040 f i libucrt:output.obj
 0001:0005730c       ?type_case_Z@?$output_processor@DV?$string_output_adapter@D@__crt_stdio_output@@V?$standard_base@DV?$string_output_adapter@D@__crt_stdio_output@@@2@@__crt_stdio_output@@AEAA_NXZ 000000018005830c f i libucrt:output.obj
 0001:00057384       ?type_case_Z@?$output_processor@_WV?$stream_output_adapter@_W@__crt_stdio_output@@V?$standard_base@_WV?$stream_output_adapter@_W@__crt_stdio_output@@@2@@__crt_stdio_output@@AEAA_NXZ 0000000180058384 f i libucrt:output.obj
 0001:00057384       ?type_case_Z@?$output_processor@_WV?$string_output_adapter@_W@__crt_stdio_output@@V?$standard_base@_WV?$string_output_adapter@_W@__crt_stdio_output@@@2@@__crt_stdio_output@@AEAA_NXZ 0000000180058384 f i libucrt:output.obj
 0001:00057400       ?type_case_a@?$output_processor@DV?$string_output_adapter@D@__crt_stdio_output@@V?$standard_base@DV?$string_output_adapter@D@__crt_stdio_output@@@2@@__crt_stdio_output@@AEAA_NXZ 0000000180058400 f i libucrt:output.obj
 0001:000575bc       ?type_case_a@?$output_processor@_WV?$stream_output_adapter@_W@__crt_stdio_output@@V?$standard_base@_WV?$stream_output_adapter@_W@__crt_stdio_output@@@2@@__crt_stdio_output@@AEAA_NXZ 00000001800585bc f i libucrt:output.obj
 0001:000575bc       ?type_case_a@?$output_processor@_WV?$string_output_adapter@_W@__crt_stdio_output@@V?$standard_base@_WV?$string_output_adapter@_W@__crt_stdio_output@@@2@@__crt_stdio_output@@AEAA_NXZ 00000001800585bc f i libucrt:output.obj
 0001:0005779c       ?type_case_c_tchar@?$output_processor@DV?$string_output_adapter@D@__crt_stdio_output@@V?$standard_base@DV?$string_output_adapter@D@__crt_stdio_output@@@2@@__crt_stdio_output@@AEAA_ND@Z 000000018005879c f i libucrt:output.obj
 0001:00057858       ?type_case_c_tchar@?$output_processor@_WV?$string_output_adapter@_W@__crt_stdio_output@@V?$standard_base@_WV?$string_output_adapter@_W@__crt_stdio_output@@@2@@__crt_stdio_output@@AEAA_N_W@Z 0000000180058858 f i libucrt:output.obj
 0001:00057858       ?type_case_c_tchar@?$output_processor@_WV?$stream_output_adapter@_W@__crt_stdio_output@@V?$standard_base@_WV?$stream_output_adapter@_W@__crt_stdio_output@@@2@@__crt_stdio_output@@AEAA_N_W@Z 0000000180058858 f i libucrt:output.obj
 0001:00057900       ?type_case_integer@?$output_processor@DV?$string_output_adapter@D@__crt_stdio_output@@V?$standard_base@DV?$string_output_adapter@D@__crt_stdio_output@@@2@@__crt_stdio_output@@AEAA_NI_N@Z 0000000180058900 f i libucrt:output.obj
 0001:00057ac8       ?type_case_integer@?$output_processor@_WV?$string_output_adapter@_W@__crt_stdio_output@@V?$standard_base@_WV?$string_output_adapter@_W@__crt_stdio_output@@@2@@__crt_stdio_output@@AEAA_NI_N@Z 0000000180058ac8 f i libucrt:output.obj
 0001:00057ac8       ?type_case_integer@?$output_processor@_WV?$stream_output_adapter@_W@__crt_stdio_output@@V?$standard_base@_WV?$stream_output_adapter@_W@__crt_stdio_output@@@2@@__crt_stdio_output@@AEAA_NI_N@Z 0000000180058ac8 f i libucrt:output.obj
 0001:00057c94       ?type_case_n@?$output_processor@DV?$string_output_adapter@D@__crt_stdio_output@@V?$standard_base@DV?$string_output_adapter@D@__crt_stdio_output@@@2@@__crt_stdio_output@@AEAA_NXZ 0000000180058c94 f i libucrt:output.obj
 0001:00057c94       ?type_case_n@?$output_processor@_WV?$string_output_adapter@_W@__crt_stdio_output@@V?$standard_base@_WV?$string_output_adapter@_W@__crt_stdio_output@@@2@@__crt_stdio_output@@AEAA_NXZ 0000000180058c94 f i libucrt:output.obj
 0001:00057c94       ?type_case_n@?$output_processor@_WV?$stream_output_adapter@_W@__crt_stdio_output@@V?$standard_base@_WV?$stream_output_adapter@_W@__crt_stdio_output@@@2@@__crt_stdio_output@@AEAA_NXZ 0000000180058c94 f i libucrt:output.obj
 0001:00057d70       ?type_case_s@?$output_processor@DV?$string_output_adapter@D@__crt_stdio_output@@V?$standard_base@DV?$string_output_adapter@D@__crt_stdio_output@@@2@@__crt_stdio_output@@AEAA_NXZ 0000000180058d70 f i libucrt:output.obj
 0001:00057e08       ?type_case_s@?$output_processor@_WV?$stream_output_adapter@_W@__crt_stdio_output@@V?$standard_base@_WV?$stream_output_adapter@_W@__crt_stdio_output@@@2@@__crt_stdio_output@@AEAA_NXZ 0000000180058e08 f i libucrt:output.obj
 0001:00057e08       ?type_case_s@?$output_processor@_WV?$string_output_adapter@_W@__crt_stdio_output@@V?$standard_base@_WV?$string_output_adapter@_W@__crt_stdio_output@@@2@@__crt_stdio_output@@AEAA_NXZ 0000000180058e08 f i libucrt:output.obj
 0001:00057ed0       ?write_stored_string_tchar@?$output_processor@DV?$string_output_adapter@D@__crt_stdio_output@@V?$standard_base@DV?$string_output_adapter@D@__crt_stdio_output@@@2@@__crt_stdio_output@@AEAA_ND@Z 0000000180058ed0 f i libucrt:output.obj
 0001:00057fa8       ?write_stored_string_tchar@?$output_processor@_WV?$stream_output_adapter@_W@__crt_stdio_output@@V?$standard_base@_WV?$stream_output_adapter@_W@__crt_stdio_output@@@2@@__crt_stdio_output@@AEAA_N_W@Z 0000000180058fa8 f i libucrt:output.obj
 0001:000580b0       ?write_stored_string_tchar@?$output_processor@_WV?$string_output_adapter@_W@__crt_stdio_output@@V?$standard_base@_WV?$string_output_adapter@_W@__crt_stdio_output@@@2@@__crt_stdio_output@@AEAA_N_W@Z 00000001800590b0 f i libucrt:output.obj
 0001:0005819c       ?write_string@?$string_output_adapter@D@__crt_stdio_output@@QEBAXQEBDHQEAHAEAV__crt_deferred_errno_cache@@@Z 000000018005919c f i libucrt:output.obj
 0001:00058240       ?write_string@?$string_output_adapter@_W@__crt_stdio_output@@QEBAXQEB_WHQEAHAEAV__crt_deferred_errno_cache@@@Z 0000000180059240 f i libucrt:output.obj
 0001:000582e8       ?write_string_impl@?$output_adapter_common@_WV?$stream_output_adapter@_W@__crt_stdio_output@@@__crt_stdio_output@@IEBAXQEB_WHQEAHAEAV__crt_deferred_errno_cache@@@Z 00000001800592e8 f i libucrt:output.obj
 0001:000583ec       __stdio_common_vfwprintf   00000001800593ec f   libucrt:output.obj
 0001:00058478       __stdio_common_vsprintf    0000000180059478 f   libucrt:output.obj
 0001:00058480       __stdio_common_vswprintf   0000000180059480 f   libucrt:output.obj
 0001:00058488       free                       0000000180059488 f   libucrt:free.obj
 0001:0005849c       malloc                     000000018005949c f   libucrt:malloc.obj
 0001:000584a4       __acrt_call_reportfault    00000001800594a4 f   libucrt:invalid_parameter.obj
 0001:00058600       __acrt_initialize_invalid_parameter_handler 0000000180059600 f   libucrt:invalid_parameter.obj
 0001:00058608       _invalid_parameter         0000000180059608 f   libucrt:invalid_parameter.obj
 0001:000586b8       _invalid_parameter_noinfo  00000001800596b8 f   libucrt:invalid_parameter.obj
 0001:000586d8       _invalid_parameter_noinfo_noreturn 00000001800596d8 f   libucrt:invalid_parameter.obj
 0001:00058708       _invoke_watson             0000000180059708 f   libucrt:invalid_parameter.obj
 0001:00058750       realloc                    0000000180059750 f   libucrt:realloc.obj
 0001:00058e70       ??$ftprintf@PEAU_iobuf@@PEB_WAEBQEB_WAEBQEB_WAEBI@?$__crt_char_traits@_W@@SAH$$QEAPEAU_iobuf@@$$QEAPEB_WAEBQEB_W2AEBI@Z 0000000180059e70 f i libucrt:assert.obj
 0001:00058e98       _wassert                   0000000180059e98 f   libucrt:assert.obj
 0001:00058f0c       fwprintf                   0000000180059f0c f i libucrt:assert.obj
 0001:00058f50       swprintf                   0000000180059f50 f i libucrt:assert.obj
 0001:00058fa4       __ascii_stricmp            0000000180059fa4 f   libucrt:stricmp.obj
 0001:00058fe4       _stricmp                   0000000180059fe4 f   libucrt:stricmp.obj
 0001:0005902c       _stricmp_l                 000000018005a02c f   libucrt:stricmp.obj
 0001:000590e0       __acrt_initialize_new_handler 000000018005a0e0 f   libucrt:new_handler.obj
 0001:000590e8       _callnewh                  000000018005a0e8 f   libucrt:new_handler.obj
 0001:00059118       _query_new_handler         000000018005a118 f   libucrt:new_handler.obj
 0001:0005914c       _seh_filter_dll            000000018005a14c f   libucrt:exception_filter.obj
 0001:00059160       _seh_filter_exe            000000018005a160 f   libucrt:exception_filter.obj
 0001:00059550       __acrt_initialize_thread_local_exit_callback 000000018005a550 f   libucrt:exit.obj
 0001:00059558       _cexit                     000000018005a558 f   libucrt:exit.obj
 0001:00059568       _exit                      000000018005a568 f   libucrt:exit.obj
 0001:00059574       _is_c_termination_complete 000000018005a574 f   libucrt:exit.obj
 0001:00059740       __acrt_allocate_buffer_for_argv 000000018005a740 f   libucrt:argv_parsing.obj
 0001:000597a0       _configure_narrow_argv     000000018005a7a0 f   libucrt:argv_parsing.obj
 0001:00059b18       __dcrt_uninitialize_environments_nolock 000000018005ab18 f   libucrt:environment_initialization.obj
 0001:00059b50       _initialize_narrow_environment 000000018005ab50 f   libucrt:environment_initialization.obj
 0001:00059e98       _crt_atexit                000000018005ae98 f   libucrt:onexit.obj
 0001:00059ea8       _execute_onexit_table      000000018005aea8 f   libucrt:onexit.obj
 0001:00059ee4       _initialize_onexit_table   000000018005aee4 f   libucrt:onexit.obj
 0001:00059f0c       _register_onexit_function  000000018005af0c f   libucrt:onexit.obj
 0001:00059f8c       __acrt_uninitialize_command_line 000000018005af8c f   libucrt:argv_data.obj
 0001:0005a084       __acrt_initialize          000000018005b084 f   libucrt:initialization.obj
 0001:0005a098       __acrt_thread_attach       000000018005b098 f   libucrt:initialization.obj
 0001:0005a0ac       __acrt_thread_detach       000000018005b0ac f   libucrt:initialization.obj
 0001:0005a0bc       __acrt_uninitialize        000000018005b0bc f   libucrt:initialization.obj
 0001:0005a0f4       __acrt_uninitialize_critical 000000018005b0f4 f   libucrt:initialization.obj
 0001:0005a104       _initterm                  000000018005b104 f   libucrt:initterm.obj
 0001:0005a168       _initterm_e                000000018005b168 f   libucrt:initterm.obj
 0001:0005a1a8       terminate                  000000018005b1a8 f   libucrt:terminate.obj
 0001:0005a1c8       abort                      000000018005b1c8 f   libucrt:abort.obj
 0001:0005a220       strcpy_s                   000000018005b220 f   libucrt:strcpy_s.obj
 0001:0005a280       calloc                     000000018005b280 f   libucrt:calloc.obj
 0001:0005a288       wcsncmp                    000000018005b288 f   libucrt:wcsncmp.obj
 0001:0005a2b4       ??$parse_integer@KV?$c_string_character_source@D@__crt_strtox@@@__crt_strtox@@YAKQEAU__crt_locale_pointers@@V?$c_string_character_source@D@0@H_N@Z 000000018005b2b4 f i libucrt:atox.obj
 0001:0005a5f0       ??$parse_integer@KV?$c_string_character_source@_W@__crt_strtox@@@__crt_strtox@@YAKQEAU__crt_locale_pointers@@V?$c_string_character_source@_W@0@H_N@Z 000000018005b5f0 f i libucrt:atox.obj
 0001:0005acc0       strncmp                    000000018005bcc0 f   libucrt:strncmp.obj
 0001:0005ad40       isdigit                    000000018005bd40 f i libucrt:_ctype.obj
 0001:0005ae34       _tolower_l                 000000018005be34 f   libucrt:tolower_toupper.obj
 0001:0005af74       tolower                    000000018005bf74 f   libucrt:tolower_toupper.obj
 0001:0005afa0       __acrt_errno_from_os_error 000000018005bfa0 f   libucrt:errno.obj
 0001:0005afe8       __acrt_errno_map_os_error  000000018005bfe8 f   libucrt:errno.obj
 0001:0005b038       __doserrno                 000000018005c038 f   libucrt:errno.obj
 0001:0005b058       _errno                     000000018005c058 f   libucrt:errno.obj
 0001:0005b078       _free_base                 000000018005c078 f   libucrt:free_base.obj
 0001:0005b0b8       _malloc_base               000000018005c0b8 f   libucrt:malloc_base.obj
 0001:0005b118       strtol                     000000018005c118 f   libucrt:strtox.obj
 0001:0005b144       wcstol                     000000018005c144 f   libucrt:strtox.obj
 0001:0005b170       _mbtowc_l                  000000018005c170 f   libucrt:mbtowc.obj
 0001:0005b2ec       mbtowc                     000000018005c2ec f   libucrt:mbtowc.obj
 0001:0005b2f4       _wctomb_s_l                000000018005c2f4 f   libucrt:wctomb.obj
 0001:0005b494       wctomb_s                   000000018005c494 f   libucrt:wctomb.obj
 0001:0005b4a8       strnlen                    000000018005c4a8 f   libucrt:strnlen.obj
 0001:0005b5f8       wcsnlen                    000000018005c5f8 f   libucrt:strnlen.obj
 0001:0005bb48       __acrt_freeptd             000000018005cb48 f   libucrt:per_thread_data.obj
 0001:0005bb8c       __acrt_getptd              000000018005cb8c f   libucrt:per_thread_data.obj
 0001:0005bc60       __acrt_getptd_head         000000018005cc60 f   libucrt:per_thread_data.obj
 0001:0005bd08       __acrt_getptd_noexit       000000018005cd08 f   libucrt:per_thread_data.obj
 0001:0005bdd4       __acrt_initialize_ptd      000000018005cdd4 f   libucrt:per_thread_data.obj
 0001:0005be10       __acrt_uninitialize_ptd    000000018005ce10 f   libucrt:per_thread_data.obj
 0001:0005be34       __acrt_update_locale_info  000000018005ce34 f   libucrt:locale_update.obj
 0001:0005be68       __acrt_update_multibyte_info 000000018005ce68 f   libucrt:locale_update.obj
 0001:0005c870       __acrt_fp_format           000000018005d870 f   libucrt:cvt.obj
 0001:0005caf8       _fputwc_nolock             000000018005daf8 f   libucrt:fputwc.obj
 0001:0005cc74       _fileno                    000000018005dc74 f   libucrt:fileno.obj
 0001:0005cc9c       __acrt_initialize_stdio    000000018005dc9c f   libucrt:_file.obj
 0001:0005cdbc       __acrt_iob_func            000000018005ddbc f   libucrt:_file.obj
 0001:0005cdd0       __acrt_uninitialize_stdio  000000018005ddd0 f   libucrt:_file.obj
 0001:0005ce2c       _lock_file                 000000018005de2c f   libucrt:_file.obj
 0001:0005ce38       _unlock_file               000000018005de38 f   libucrt:_file.obj
 0001:0005ce44       _fputc_nolock              000000018005de44 f   libucrt:fputc.obj
 0001:0005ce5c       _get_printf_count_output   000000018005de5c f   libucrt:printf_count_output.obj
 0001:0005ce74       __acrt_stdio_begin_temporary_buffering_nolock 000000018005de74 f   libucrt:_sftbuf.obj
 0001:0005cf44       __acrt_stdio_end_temporary_buffering_nolock 000000018005df44 f   libucrt:_sftbuf.obj
 0001:0005cff0       __acrt_set_locale_changed  000000018005dff0 f   libucrt:wsetlocale.obj
 0001:0005cffc       __acrt_uninitialize_locale 000000018005dffc f   libucrt:wsetlocale.obj
 0001:0005d228       __acrt_initialize_lowio    000000018005e228 f   libucrt:ioinit.obj
 0001:0005d264       __acrt_uninitialize_lowio  000000018005e264 f   libucrt:ioinit.obj
 0001:0005d2a4       _realloc_base              000000018005e2a4 f   libucrt:realloc_base.obj
 0001:0005d320       _query_app_type            000000018005e320 f   libucrt:report_runtime_error.obj
 0001:0005d468       _itow_s                    000000018005e468 f   libucrt:xtoa.obj
 0001:0005d488       _set_error_mode            000000018005e488 f   libucrt:set_error_mode.obj
 0001:0005d4c8       wcscat_s                   000000018005e4c8 f   libucrt:wcscat_s.obj
 0001:0005d548       wcscpy_s                   000000018005e548 f   libucrt:wcscpy_s.obj
 0001:0005d5b0       wcsncat_s                  000000018005e5b0 f   libucrt:wcsncat_s.obj
 0001:0005d6b0       ??$__acrt_wcs_to_mbs_cp@U__crt_win32_buffer_no_resizing@@@@YAHQEB_WAEAV?$__crt_win32_buffer@DU__crt_win32_buffer_no_resizing@@@@I@Z 000000018005e6b0 f i libucrt:getmodulefilenamea.obj
 0001:0005d7c4       __acrt_GetModuleFileNameA  000000018005e7c4 f   libucrt:getmodulefilenamea.obj
 0001:0005d8e4       __acrt_show_wide_message_box 000000018005e8e4 f   libucrt:crtmbox.obj
 0001:0005dba4       __acrt_stdio_flush_nolock  000000018005eba4 f   libucrt:fflush.obj
 0001:0005dc20       _fflush_nolock             000000018005ec20 f   libucrt:fflush.obj
 0001:0005dc6c       _flushall                  000000018005ec6c f   libucrt:fflush.obj
 0001:0005dc74       fflush                     000000018005ec74 f   libucrt:fflush.obj
 0001:0005ddfc       setvbuf                    000000018005edfc f   libucrt:setvbuf.obj
 0001:0005dee0       __acrt_get_sigabrt_handler 000000018005eee0 f   libucrt:signal.obj
 0001:0005df10       __acrt_initialize_signal_handlers 000000018005ef10 f   libucrt:signal.obj
 0001:0005df30       raise                      000000018005ef30 f   libucrt:signal.obj
 0001:0005e19c       __acrt_initialize_locks    000000018005f19c f   libucrt:locks.obj
 0001:0005e1e4       __acrt_lock                000000018005f1e4 f   libucrt:locks.obj
 0001:0005e200       __acrt_uninitialize_locks  000000018005f200 f   libucrt:locks.obj
 0001:0005e238       __acrt_unlock              000000018005f238 f   libucrt:locks.obj
 0001:0005e254       __acrt_get_developer_information_policy 000000018005f254 f   libucrt:win_policies.obj
 0001:0005e2a8       __acrt_get_process_end_policy 000000018005f2a8 f   libucrt:win_policies.obj
 0001:0005e2e4       __acrt_get_windowing_model_policy 000000018005f2e4 f   libucrt:win_policies.obj
 0001:0005e350       _calloc_base               000000018005f350 f   libucrt:calloc_base.obj
 0001:0005e3dc       ??$__acrt_mbs_to_wcs_cp@U__crt_win32_buffer_internal_dynamic_resizing@@@@YAHQEBDAEAV?$__crt_win32_buffer@_WU__crt_win32_buffer_internal_dynamic_resizing@@@@I@Z 000000018005f3dc f i libucrt:argv_wildcards.obj
 0001:0005e554       ??$__acrt_wcs_to_mbs_cp@U__crt_win32_buffer_internal_dynamic_resizing@@@@YAHQEB_WAEAV?$__crt_win32_buffer@DU__crt_win32_buffer_internal_dynamic_resizing@@@@I@Z 000000018005f554 f i libucrt:argv_wildcards.obj
 0001:0005ed84       __acrt_expand_narrow_argv_wildcards 000000018005fd84 f   libucrt:argv_wildcards.obj
 0001:0005f4b8       __acrt_initialize_multibyte 00000001800604b8 f   libucrt:mbctype.obj
 0001:0005f518       __acrt_update_thread_multibyte_data 0000000180060518 f   libucrt:mbctype.obj
 0001:0005f534       _setmbcp_nolock            0000000180060534 f   libucrt:mbctype.obj
 0001:0005f868       _ismbblead                 0000000180060868 f   libucrt:ismbbyte.obj
 0001:0005f87c       __acrt_initialize_command_line 000000018006087c f   libucrt:argv_data.obj
 0001:0005f8a4       __acrt_MultiByteToWideChar 00000001800608a4 f   libucrt:multibytetowidechar.obj
 0001:0005f900       __acrt_WideCharToMultiByte 0000000180060900 f   libucrt:widechartomultibyte.obj
 0001:0005f998       __dcrt_get_narrow_environment_from_os 0000000180060998 f   libucrt:get_environment_from_os.obj
 0001:0005fa9c       _recalloc_base             0000000180060a9c f   libucrt:recalloc.obj
 0001:0005fd0c       __acrt_AppPolicyGetProcessTerminationMethodInternal 0000000180060d0c f   libucrt:winapi_thunks.obj
 0001:0005fd5c       __acrt_AppPolicyGetShowDeveloperDiagnosticInternal 0000000180060d5c f   libucrt:winapi_thunks.obj
 0001:0005fdac       __acrt_AppPolicyGetWindowingModelInternal 0000000180060dac f   libucrt:winapi_thunks.obj
 0001:0005fdfc       __acrt_AreFileApisANSI     0000000180060dfc f   libucrt:winapi_thunks.obj
 0001:0005fe38       __acrt_FlsAlloc            0000000180060e38 f   libucrt:winapi_thunks.obj
 0001:0005fe80       __acrt_FlsFree             0000000180060e80 f   libucrt:winapi_thunks.obj
 0001:0005fec8       __acrt_FlsGetValue         0000000180060ec8 f   libucrt:winapi_thunks.obj
 0001:0005ff10       __acrt_FlsSetValue         0000000180060f10 f   libucrt:winapi_thunks.obj
 0001:0005ff64       __acrt_InitializeCriticalSectionEx 0000000180060f64 f   libucrt:winapi_thunks.obj
 0001:0005ffc8       __acrt_LCMapStringEx       0000000180060fc8 f   libucrt:winapi_thunks.obj
 0001:000600a4       __acrt_LocaleNameToLCID    00000001800610a4 f   libucrt:winapi_thunks.obj
 0001:000600f4       __acrt_MessageBoxW         00000001800610f4 f   libucrt:winapi_thunks.obj
 0001:00060168       __acrt_can_show_message_box 0000000180061168 f   libucrt:winapi_thunks.obj
 0001:000601d8       __acrt_get_parent_window   00000001800611d8 f   libucrt:winapi_thunks.obj
 0001:00060250       __acrt_initialize_winapi_thunks 0000000180061250 f   libucrt:winapi_thunks.obj
 0001:00060284       __acrt_is_interactive      0000000180061284 f   libucrt:winapi_thunks.obj
 0001:0006034c       __acrt_uninitialize_winapi_thunks 000000018006134c f   libucrt:winapi_thunks.obj
 0001:00060390       __acrt_initialize_heap     0000000180061390 f   libucrt:heap_handle.obj
 0001:000603ac       __acrt_uninitialize_heap   00000001800613ac f   libucrt:heap_handle.obj
 0001:000603b8       __acrt_execute_initializers 00000001800613b8 f   libucrt:shared_initialization.obj
 0001:00060438       __acrt_execute_uninitializers 0000000180061438 f   libucrt:shared_initialization.obj
 0001:00060474       __acrt_has_user_matherr    0000000180061474 f   libucrt:matherr.obj
 0001:00060494       __acrt_initialize_user_matherr 0000000180061494 f   libucrt:matherr.obj
 0001:0006049c       __acrt_invoke_user_matherr 000000018006149c f   libucrt:matherr.obj
 0001:000604cc       __pctype_func              00000001800614cc f   libucrt:ctype.obj
 0001:000604fc       iswctype                   00000001800614fc f   libucrt:iswctype.obj
 0001:0006056c       _isctype_l                 000000018006156c f   libucrt:isctype.obj
 0001:0006067c       _isleadbyte_l              000000018006167c f i libucrt:_wctype.obj
 0001:000609e0       __acrt_LCMapStringA        00000001800619e0 f   libucrt:lcmapstringa.obj
 0001:00060a78       _query_new_mode            0000000180061a78 f   libucrt:new_mode.obj
 0001:00060a80       ?__mbrtowc_utf8@__crt_mbstring@@YA_KPEA_WPEBD_KPEAU_Mbstatet@@@Z 0000000180061a80 f   libucrt:mbrtowc.obj
 0001:00060abc       ?__mbsrtowcs_utf8@__crt_mbstring@@YA_KPEA_WPEAPEBD_KPEAU_Mbstatet@@@Z 0000000180061abc f   libucrt:mbrtowc.obj
 0001:00060c34       ?__c32rtomb_utf8@__crt_mbstring@@YA_KPEAD_UPEAU_Mbstatet@@@Z 0000000180061c34 f   libucrt:c32rtomb.obj
 0001:00060cec       __acrt_add_locale_ref      0000000180061cec f   libucrt:locale_refcounting.obj
 0001:00060d78       __acrt_free_locale         0000000180061d78 f   libucrt:locale_refcounting.obj
 0001:00060ef0       __acrt_locale_add_lc_time_reference 0000000180061ef0 f   libucrt:locale_refcounting.obj
 0001:00060f18       __acrt_locale_free_lc_time_if_unreferenced 0000000180061f18 f   libucrt:locale_refcounting.obj
 0001:00060f50       __acrt_locale_release_lc_time_reference 0000000180061f50 f   libucrt:locale_refcounting.obj
 0001:00060f78       __acrt_release_locale_ref  0000000180061f78 f   libucrt:locale_refcounting.obj
 0001:00061020       __acrt_update_thread_locale_data 0000000180062020 f   libucrt:locale_refcounting.obj
 0001:00061090       _updatetlocinfoEx_nolock   0000000180062090 f   libucrt:locale_refcounting.obj
 0001:000610f8       __acrt_fp_strflt_to_string 00000001800620f8 f   libucrt:_fptostr.obj
 0001:000611e0       ?divide@__crt_strtox@@YA_KAEAUbig_integer@1@AEBU21@@Z 00000001800621e0 f i libucrt:cfout.obj
 0001:0006160c       __acrt_fltout              000000018006260c f   libucrt:cfout.obj
 0001:00062b0c       __acrt_stdio_flush_and_write_narrow_nolock 0000000180063b0c f   libucrt:_flsbuf.obj
 0001:00062bf8       __acrt_stdio_flush_and_write_wide_nolock 0000000180063bf8 f   libucrt:_flsbuf.obj
 0001:00062ce4       _fcloseall                 0000000180063ce4 f   libucrt:closeall.obj
 0001:00062d98       __acrt_stdio_free_buffer_nolock 0000000180063d98 f   libucrt:_freebuf.obj
 0001:00062dd8       _isatty                    0000000180063dd8 f   libucrt:isatty.obj
 0001:00062e38       __acrt_locale_free_monetary 0000000180063e38 f   libucrt:initmon.obj
 0001:00062f44       __acrt_locale_free_numeric 0000000180063f44 f   libucrt:initnum.obj
 0001:00063008       __acrt_locale_free_time    0000000180064008 f   libucrt:inittime.obj
 0001:00063110       __acrt_GetStringTypeA      0000000180064110 f   libucrt:getstringtypea.obj
 0001:000632a0       __acrt_lowio_create_handle_array 00000001800642a0 f   libucrt:osfinfo.obj
 0001:00063348       __acrt_lowio_destroy_handle_array 0000000180064348 f   libucrt:osfinfo.obj
 0001:00063398       __acrt_lowio_ensure_fh_exists 0000000180064398 f   libucrt:osfinfo.obj
 0001:00063440       __acrt_lowio_lock_fh       0000000180064440 f   libucrt:osfinfo.obj
 0001:00063468       __acrt_lowio_unlock_fh     0000000180064468 f   libucrt:osfinfo.obj
 0001:00063490       _free_osfhnd               0000000180064490 f   libucrt:osfinfo.obj
 0001:0006354c       _get_osfhandle             000000018006454c f   libucrt:osfinfo.obj
 0001:00063650       _commit                    0000000180064650 f   libucrt:commit.obj
 0001:00063f50       _write                     0000000180064f50 f   libucrt:write.obj
 0001:0006403c       _write_nolock              000000018006503c f   libucrt:write.obj
 0001:00064320       qsort                      0000000180065320 f   libucrt:qsort.obj
 0001:000646e0       strncpy_s                  00000001800656e0 f   libucrt:strncpy_s.obj
 0001:00064860       strpbrk                    0000000180065860 f   libucrt:strpbrk.obj
 0001:00064c40       _mbsdec                    0000000180065c40 f   libucrt:mbsdec.obj
 0001:00064c48       _mbsdec_l                  0000000180065c48 f   libucrt:mbsdec.obj
 0001:00064cf4       _msize_base                0000000180065cf4 f   libucrt:msize.obj
 0001:00064e18       __acrt_DownlevelLocaleNameToLCID 0000000180065e18 f   libucrt:lcidtoname_downlevel.obj
 0001:00064e4c       __acrt_GetStringTypeW      0000000180065e4c f   libucrt:getstringtypew.obj
 0001:00064e54       __strncnt                  0000000180065e54 f   libucrt:strncnt.obj
 0001:00064e6c       ?__mbrtoc32_utf8@__crt_mbstring@@YA_KPEA_UPEBD_KPEAU_Mbstatet@@@Z 0000000180065e6c f   libucrt:mbrtoc32.obj
 0001:00065048       fegetenv                   0000000180066048 f   libucrt:fegetenv.obj
 0001:00065068       fesetenv                   0000000180066068 f   libucrt:fesetenv.obj
 0001:000650b8       feholdexcept               00000001800660b8 f   libucrt:feholdexcept.obj
 0001:00065108       ceil                       0000000180066108 f   libucrt:ceil.obj
 0001:000651d0       log10                      00000001800661d0 f   libucrt:log10.obj
 0001:00065908       _lseeki64                  0000000180066908 f   libucrt:lseek.obj
 0001:00065910       _lseeki64_nolock           0000000180066910 f   libucrt:lseek.obj
 0001:00065918       __acrt_stdio_allocate_buffer_nolock 0000000180066918 f   libucrt:_getbuf.obj
 0001:00065980       _fclose_nolock             0000000180066980 f   libucrt:fclose.obj
 0001:00065a04       fclose                     0000000180066a04 f   libucrt:fclose.obj
 0001:00065a68       _putwch_nolock             0000000180066a68 f   libucrt:putwch.obj
 0001:00065aa4       __acrt_fenv_get_control    0000000180066aa4 f   libucrt:_fenvutils.obj
 0001:00065b98       __acrt_fenv_get_status     0000000180066b98 f   libucrt:_fenvutils.obj
 0001:00065bec       __acrt_fenv_set_control    0000000180066bec f   libucrt:_fenvutils.obj
 0001:00065d34       __acrt_fenv_set_status     0000000180066d34 f   libucrt:_fenvutils.obj
 0001:00065db8       _clearfp                   0000000180066db8 f   libucrt:ieee.obj
 0001:00065f4c       _handle_error              0000000180066f4c f   libucrt:libm_error.obj
 0001:00066074       _handle_nan                0000000180067074 f   libucrt:libm_error.obj
 0001:00066090       __acrt_initialize_fma3     0000000180067090 f   libucrt:fma3_available.obj
 0001:00066100       _log10_special             0000000180067100 f   libucrt:log_special.obj
 0001:0006622c       _close                     000000018006722c f   libucrt:close.obj
 0001:000662d0       _close_nolock              00000001800672d0 f   libucrt:close.obj
 0001:00066390       ?__acrt_stdio_free_stream@@YAXV__crt_stdio_stream@@@Z 0000000180067390 f   libucrt:stream.obj
 0001:000663ac       __dcrt_lowio_ensure_console_output_initialized 00000001800673ac f   libucrt:initcon.obj
 0001:00066400       __dcrt_terminate_console_output 0000000180067400 f   libucrt:initcon.obj
 0001:0006641c       __dcrt_write_console       000000018006741c f   libucrt:initcon.obj
 0001:000664f0       _get_fpsr                  00000001800674f0 f   libucrt:fpsr.obj
 0001:00066500       _set_fpsr                  0000000180067500 f   libucrt:fpsr.obj
 0001:0006650a       _fclrf                     000000018006750a f   libucrt:fpsr.obj
 0001:0006651e       _frnd                      000000018006751e f   libucrt:fpsr.obj
 0001:00066540       _raise_exc                 0000000180067540 f   libucrt:fpexcept.obj
 0001:00066568       _raise_exc_ex              0000000180067568 f   libucrt:fpexcept.obj
 0001:00066878       _set_errno_from_matherr    0000000180067878 f   libucrt:fpexcept.obj
 0001:000668a8       _clrfp                     00000001800678a8 f   libucrt:fpctrl.obj
 0001:000668c8       _ctrlfp                    00000001800678c8 f   libucrt:fpctrl.obj
 0001:00066944       _set_statfp                0000000180067944 f   libucrt:fpctrl.obj
 0001:00066964       _statfp                    0000000180067964 f   libucrt:fpctrl.obj
 0001:00066975       IsProcessorFeaturePresent  0000000180067975 f   kernel32:KERNEL32.dll
 0001:0006697c       ?DloadAcquireSectionWriteAccess@@YAXXZ 000000018006797c f i DelayImp:delayhlp.obj
 0001:00066a28       ?DloadGetSRWLockFunctionPointers@@YAEXZ 0000000180067a28 f i DelayImp:delayhlp.obj
 0001:00066ac4       ?DloadMakePermanentImageCommit@@YAXPEAX_K@Z 0000000180067ac4 f i DelayImp:delayhlp.obj
 0001:00066b5c       ?DloadObtainSection@@YAPEAXPEAK0@Z 0000000180067b5c f i DelayImp:delayhlp.obj
 0001:00066bf8       ?DloadProtectSection@@YAXKPEAK@Z 0000000180067bf8 f i DelayImp:delayhlp.obj
 0001:00066c88       ?DloadReleaseSectionWriteAccess@@YAXXZ 0000000180067c88 f i DelayImp:delayhlp.obj
 0001:00066d1c       __delayLoadHelper2         0000000180067d1c f   DelayImp:delayhlp.obj
 0001:00066fdc       __GSHandlerCheck           0000000180067fdc f   LIBCMT:gshandler.obj
 0001:00066ffc       __GSHandlerCheckCommon     0000000180067ffc f   LIBCMT:gshandler.obj
 0001:00067060       _FindPESection             0000000180068060 f   LIBCMT:pesect.obj
 0001:000670b0       _IsNonwritableInCurrentImage 00000001800680b0 f   LIBCMT:pesect.obj
 0001:00067100       _ValidateImageBase         0000000180068100 f   LIBCMT:pesect.obj
 0001:00067140       __chkstk                   0000000180068140 f   LIBCMT:chkstk.obj
 0001:00067140       _alloca_probe              0000000180068140 f   LIBCMT:chkstk.obj
 0001:00067194       strrchr                    0000000180068194 f   libvcruntime:strrchr.obj
 0001:000672f0       memcmp                     00000001800682f0 f   libvcruntime:memcmp.obj
 0001:000673b8       __GSHandlerCheck_EH        00000001800683b8 f   LIBCMT:gshandlereh.obj
 0001:00067450       _guard_dispatch_icall_nop  0000000180068450 f   LIBCMT:guard_dispatch.obj
 0001:00075bd0       ??__Fmy_constructor@?1??constructor@WPKCS11@@KAAEAV?$Persistent@VFunction@v8@@V?$NonCopyablePersistentTraits@VFunction@v8@@@2@@Nan@@XZ@YAXXZ 0000000180076bd0 f i node.obj
 0002:00000000       __imp_SetLastError         0000000180077000     kernel32:KERNEL32.dll
 0002:00000008       __imp_SetErrorMode         0000000180077008     kernel32:KERNEL32.dll
 0002:00000010       __imp_GetModuleHandleA     0000000180077010     kernel32:KERNEL32.dll
 0002:00000018       __imp_MultiByteToWideChar  0000000180077018     kernel32:KERNEL32.dll
 0002:00000020       __imp_GetLastError         0000000180077020     kernel32:KERNEL32.dll
 0002:00000028       __imp_LoadLibraryW         0000000180077028     kernel32:KERNEL32.dll
 0002:00000030       __imp_GetProcAddress       0000000180077030     kernel32:KERNEL32.dll
 0002:00000038       __imp_FreeLibrary          0000000180077038     kernel32:KERNEL32.dll
 0002:00000040       __imp_LoadLibraryExA       0000000180077040     kernel32:KERNEL32.dll
 0002:00000048       __imp_CloseHandle          0000000180077048     kernel32:KERNEL32.dll
 0002:00000050       __imp_EnterCriticalSection 0000000180077050     kernel32:KERNEL32.dll
 0002:00000058       __imp_LeaveCriticalSection 0000000180077058     kernel32:KERNEL32.dll
 0002:00000060       __imp_InitializeCriticalSectionAndSpinCount 0000000180077060     kernel32:KERNEL32.dll
 0002:00000068       __imp_DeleteCriticalSection 0000000180077068     kernel32:KERNEL32.dll
 0002:00000070       __imp_SetEvent             0000000180077070     kernel32:KERNEL32.dll
 0002:00000078       __imp_ResetEvent           0000000180077078     kernel32:KERNEL32.dll
 0002:00000080       __imp_WaitForSingleObjectEx 0000000180077080     kernel32:KERNEL32.dll
 0002:00000088       __imp_CreateEventW         0000000180077088     kernel32:KERNEL32.dll
 0002:00000090       __imp_GetModuleHandleW     0000000180077090     kernel32:KERNEL32.dll
 0002:00000098       __imp_RtlCaptureContext    0000000180077098     kernel32:KERNEL32.dll
 0002:000000a0       __imp_RtlLookupFunctionEntry 00000001800770a0     kernel32:KERNEL32.dll
 0002:000000a8       __imp_RtlVirtualUnwind     00000001800770a8     kernel32:KERNEL32.dll
 0002:000000b0       __imp_UnhandledExceptionFilter 00000001800770b0     kernel32:KERNEL32.dll
 0002:000000b8       __imp_SetUnhandledExceptionFilter 00000001800770b8     kernel32:KERNEL32.dll
 0002:000000c0       __imp_GetCurrentProcess    00000001800770c0     kernel32:KERNEL32.dll
 0002:000000c8       __imp_TerminateProcess     00000001800770c8     kernel32:KERNEL32.dll
 0002:000000d0       __imp_IsProcessorFeaturePresent 00000001800770d0     kernel32:KERNEL32.dll
 0002:000000d8       __imp_IsDebuggerPresent    00000001800770d8     kernel32:KERNEL32.dll
 0002:000000e0       __imp_GetStartupInfoW      00000001800770e0     kernel32:KERNEL32.dll
 0002:000000e8       __imp_QueryPerformanceCounter 00000001800770e8     kernel32:KERNEL32.dll
 0002:000000f0       __imp_GetCurrentProcessId  00000001800770f0     kernel32:KERNEL32.dll
 0002:000000f8       __imp_GetCurrentThreadId   00000001800770f8     kernel32:KERNEL32.dll
 0002:00000100       __imp_GetSystemTimeAsFileTime 0000000180077100     kernel32:KERNEL32.dll
 0002:00000108       __imp_InitializeSListHead  0000000180077108     kernel32:KERNEL32.dll
 0002:00000110       __imp_RtlUnwindEx          0000000180077110     kernel32:KERNEL32.dll
 0002:00000118       __imp_RtlPcToFileHeader    0000000180077118     kernel32:KERNEL32.dll
 0002:00000120       __imp_RaiseException       0000000180077120     kernel32:KERNEL32.dll
 0002:00000128       __imp_InterlockedFlushSList 0000000180077128     kernel32:KERNEL32.dll
 0002:00000130       __imp_EncodePointer        0000000180077130     kernel32:KERNEL32.dll
 0002:00000138       __imp_TlsAlloc             0000000180077138     kernel32:KERNEL32.dll
 0002:00000140       __imp_TlsGetValue          0000000180077140     kernel32:KERNEL32.dll
 0002:00000148       __imp_TlsSetValue          0000000180077148     kernel32:KERNEL32.dll
 0002:00000150       __imp_TlsFree              0000000180077150     kernel32:KERNEL32.dll
 0002:00000158       __imp_LoadLibraryExW       0000000180077158     kernel32:KERNEL32.dll
 0002:00000160       __imp_GetStdHandle         0000000180077160     kernel32:KERNEL32.dll
 0002:00000168       __imp_GetFileType          0000000180077168     kernel32:KERNEL32.dll
 0002:00000170       __imp_GetModuleFileNameW   0000000180077170     kernel32:KERNEL32.dll
 0002:00000178       __imp_GetModuleHandleExW   0000000180077178     kernel32:KERNEL32.dll
 0002:00000180       __imp_WriteConsoleW        0000000180077180     kernel32:KERNEL32.dll
 0002:00000188       __imp_ExitProcess          0000000180077188     kernel32:KERNEL32.dll
 0002:00000190       __imp_HeapFree             0000000180077190     kernel32:KERNEL32.dll
 0002:00000198       __imp_HeapAlloc            0000000180077198     kernel32:KERNEL32.dll
 0002:000001a0       __imp_HeapReAlloc          00000001800771a0     kernel32:KERNEL32.dll
 0002:000001a8       __imp_WriteFile            00000001800771a8     kernel32:KERNEL32.dll
 0002:000001b0       __imp_OutputDebugStringW   00000001800771b0     kernel32:KERNEL32.dll
 0002:000001b8       __imp_FindClose            00000001800771b8     kernel32:KERNEL32.dll
 0002:000001c0       __imp_FindFirstFileExW     00000001800771c0     kernel32:KERNEL32.dll
 0002:000001c8       __imp_FindNextFileW        00000001800771c8     kernel32:KERNEL32.dll
 0002:000001d0       __imp_IsValidCodePage      00000001800771d0     kernel32:KERNEL32.dll
 0002:000001d8       __imp_GetACP               00000001800771d8     kernel32:KERNEL32.dll
 0002:000001e0       __imp_GetOEMCP             00000001800771e0     kernel32:KERNEL32.dll
 0002:000001e8       __imp_GetCPInfo            00000001800771e8     kernel32:KERNEL32.dll
 0002:000001f0       __imp_GetCommandLineA      00000001800771f0     kernel32:KERNEL32.dll
 0002:000001f8       __imp_GetCommandLineW      00000001800771f8     kernel32:KERNEL32.dll
 0002:00000200       __imp_WideCharToMultiByte  0000000180077200     kernel32:KERNEL32.dll
 0002:00000208       __imp_GetEnvironmentStringsW 0000000180077208     kernel32:KERNEL32.dll
 0002:00000210       __imp_FreeEnvironmentStringsW 0000000180077210     kernel32:KERNEL32.dll
 0002:00000218       __imp_LCMapStringW         0000000180077218     kernel32:KERNEL32.dll
 0002:00000220       __imp_GetProcessHeap       0000000180077220     kernel32:KERNEL32.dll
 0002:00000228       __imp_GetFileSizeEx        0000000180077228     kernel32:KERNEL32.dll
 0002:00000230       __imp_SetFilePointerEx     0000000180077230     kernel32:KERNEL32.dll
 0002:00000238       __imp_GetStringTypeW       0000000180077238     kernel32:KERNEL32.dll
 0002:00000240       __imp_SetStdHandle         0000000180077240     kernel32:KERNEL32.dll
 0002:00000248       __imp_FlushFileBuffers     0000000180077248     kernel32:KERNEL32.dll
 0002:00000250       __imp_GetConsoleCP         0000000180077250     kernel32:KERNEL32.dll
 0002:00000258       __imp_GetConsoleMode       0000000180077258     kernel32:KERNEL32.dll
 0002:00000260       __imp_HeapSize             0000000180077260     kernel32:KERNEL32.dll
 0002:00000268       __imp_CreateFileW          0000000180077268     kernel32:KERNEL32.dll
 0002:00000270       __imp_GetSystemInfo        0000000180077270     kernel32:KERNEL32.dll
 0002:00000278       __imp_VirtualProtect       0000000180077278     kernel32:KERNEL32.dll
 0002:00000280       __imp_VirtualQuery         0000000180077280     kernel32:KERNEL32.dll
 0002:00000288       \177KERNEL32_NULL_THUNK_DATA 0000000180077288     kernel32:KERNEL32.dll
 0002:00000290       __guard_check_icall_fptr   0000000180077290     LIBCMT:guard_support.obj
 0002:00000298       __guard_dispatch_icall_fptr 0000000180077298     LIBCMT:guard_support.obj
 0002:000002a0       __xc_a                     00000001800772a0     LIBCMT:initializers.obj
 0002:000002a8       _register_pkcs11_          00000001800772a8     main.obj
 0002:000002b0       __xc_z                     00000001800772b0     LIBCMT:initializers.obj
 0002:000002b8       __xi_a                     00000001800772b8     LIBCMT:initializers.obj
 0002:000002c8       __acrt_stdio_initializer   00000001800772c8     libucrt:stdio_initializer.obj
 0002:000002d0       __acrt_multibyte_initializer 00000001800772d0     libucrt:multibyte_initializer.obj
 0002:000002d8       __acrt_tran_fma3_initializer 00000001800772d8     libucrt:fma3_initializer.obj
 0002:000002e0       __xi_z                     00000001800772e0     LIBCMT:initializers.obj
 0002:000002e8       __xl_a                     00000001800772e8     LIBCMT:tlssup.obj
 0002:000002f0       __xl_z                     00000001800772f0     LIBCMT:tlssup.obj
 0002:000002f8       __xp_a                     00000001800772f8     LIBCMT:initializers.obj
 0002:00000300       __acrt_locale_terminator   0000000180077300     libucrt:locale_initializer.obj
 0002:00000308       __dcrt_console_output_terminator 0000000180077308     libucrt:console_output_initializer.obj
 0002:00000310       __acrt_stdio_terminator    0000000180077310     libucrt:stdio_initializer.obj
 0002:00000318       __xp_z                     0000000180077318     LIBCMT:initializers.obj
 0002:00000320       __xt_a                     0000000180077320     LIBCMT:initializers.obj
 0002:00000328       __xt_z                     0000000180077328     LIBCMT:initializers.obj
 0002:00000330       __sz_node_exe              0000000180077330     node:node.exe
 0002:00000348       ??_7exception@std@@6B@     0000000180077348     libcpmt:xthrow.obj
 0002:00000358       ??_C@_0BC@EOODALEL@Unknown?5exception@ 0000000180077358     libcpmt:xthrow.obj
 0002:00000378       ??_7bad_alloc@std@@6B@     0000000180077378     libcpmt:xthrow.obj
 0002:00000388       ??_C@_0P@GHFPNOJB@bad?5allocation@ 0000000180077388     libcpmt:xthrow.obj
 0002:000003a0       ??_7logic_error@std@@6B@   00000001800773a0     libcpmt:xthrow.obj
 0002:000003b8       ??_7length_error@std@@6B@  00000001800773b8     libcpmt:xthrow.obj
 0002:000003d0       ??_7out_of_range@std@@6B@  00000001800773d0     libcpmt:xthrow.obj
 0002:000003e8       ??_7type_info@@6B@         00000001800773e8     LIBCMT:std_type_info_static.obj
 0002:00000420       ??_C@_1EC@JIJBPKFM@?$AAa?$AAp?$AAi?$AA?9?$AAm?$AAs?$AA?9?$AAw?$AAi?$AAn?$AA?9?$AAc?$AAo?$AAr?$AAe@ 0000000180077420     LIBCMT:thread_safe_statics.obj
 0002:00000468       ??_C@_1BK@MGMFAEKH@?$AAk?$AAe?$AAr?$AAn?$AAe?$AAl?$AA3?$AA2?$AA?4?$AAd?$AAl?$AAl@ 0000000180077468     LIBCMT:thread_safe_statics.obj
 0002:00000488       ??_C@_0BM@HLJJNPAH@InitializeConditionVariable@ 0000000180077488     LIBCMT:thread_safe_statics.obj
 0002:000004a8       ??_C@_0BJ@JEBJOJFJ@SleepConditionVariableCS@ 00000001800774a8     LIBCMT:thread_safe_statics.obj
 0002:000004c8       ??_C@_0BJ@PGPPEPCC@WakeAllConditionVariable@ 00000001800774c8     LIBCMT:thread_safe_statics.obj
 0002:000004e8       _pRawDllMain               00000001800774e8     LIBCMT:dll_dllmain.obj
 0002:000004e8       _pDefaultRawDllMain        00000001800774e8     LIBCMT:dll_dllmain.obj
 0002:00000508       ??_7bad_array_new_length@std@@6B@ 0000000180077508     LIBCMT:throw_bad_alloc.obj
 0002:00000518       ??_C@_0BF@KINCDENJ@bad?5array?5new?5length@ 0000000180077518     LIBCMT:throw_bad_alloc.obj
 0002:000005c8       _pDestructExceptionObject  00000001800775c8     libvcruntime:ehhelpers.obj
 0002:00000618       ??_7bad_exception@std@@6B@ 0000000180077618     libvcruntime:frame.obj
 0002:00000628       ??_C@_0O@DPKOEFFH@bad?5exception@ 0000000180077628     libvcruntime:frame.obj
 0002:00000650       ??_C@_1DM@KHCHBNEB@?$AAa?$AAp?$AAi?$AA?9?$AAm?$AAs?$AA?9?$AAw?$AAi?$AAn?$AA?9?$AAc?$AAo?$AAr?$AAe@ 0000000180077650     libvcruntime:winapi_downlevel.obj
 0002:00000690       ??_C@_1DK@LPPGFMPP@?$AAa?$AAp?$AAi?$AA?9?$AAm?$AAs?$AA?9?$AAw?$AAi?$AAn?$AA?9?$AAc?$AAo?$AAr?$AAe@ 0000000180077690     libvcruntime:winapi_downlevel.obj
 0002:000006d0       ??_C@_1BC@GDMECMAK@?$AAk?$AAe?$AAr?$AAn?$AAe?$AAl?$AA3?$AA2@ 00000001800776d0     libvcruntime:winapi_downlevel.obj
 0002:000006e8       ??_C@_1BA@PFFKHIOG@?$AAa?$AAp?$AAi?$AA?9?$AAm?$AAs?$AA?9@ 00000001800776e8     libvcruntime:winapi_downlevel.obj
 0002:000006f8       ??_C@_1BA@IAIFMGEF@?$AAe?$AAx?$AAt?$AA?9?$AAm?$AAs?$AA?9@ 00000001800776f8     libvcruntime:winapi_downlevel.obj
 0002:00000710       ??_C@_08KNHFBNJ@FlsAlloc@  0000000180077710     libvcruntime:winapi_downlevel.obj
 0002:00000728       ??_C@_07PEJMOBNF@FlsFree@  0000000180077728     libvcruntime:winapi_downlevel.obj
 0002:00000738       ??_C@_0M@GDNOONDI@FlsGetValue@ 0000000180077738     libvcruntime:winapi_downlevel.obj
 0002:00000750       ??_C@_0M@JCPCPOEF@FlsSetValue@ 0000000180077750     libvcruntime:winapi_downlevel.obj
 0002:00000768       ??_C@_0BM@HCFOFFN@InitializeCriticalSectionEx@ 0000000180077768     libvcruntime:winapi_downlevel.obj
 0002:00000ac8       ??_C@_08EHJDFFNH@__based?$CI@ 0000000180077ac8     libvcruntime:undname.obj
 0002:00000ad8       ??_C@_07KOLFKCDI@__cdecl@  0000000180077ad8     libvcruntime:undname.obj
 0002:00000ae0       ??_C@_08GHMPAG@__pascal@   0000000180077ae0     libvcruntime:undname.obj
 0002:00000af0       ??_C@_09IFJBGAPI@__stdcall@ 0000000180077af0     libvcruntime:undname.obj
 0002:00000b00       ??_C@_0L@NPHFGOKO@__thiscall@ 0000000180077b00     libvcruntime:undname.obj
 0002:00000b10       ??_C@_0L@JMKHOMEK@__fastcall@ 0000000180077b10     libvcruntime:undname.obj
 0002:00000b20       ??_C@_0N@BCKKPABJ@__vectorcall@ 0000000180077b20     libvcruntime:undname.obj
 0002:00000b30       ??_C@_09HIJEGCPM@__clrcall@ 0000000180077b30     libvcruntime:undname.obj
 0002:00000b3c       ??_C@_06GHPCKEAG@__eabi@   0000000180077b3c     libvcruntime:undname.obj
 0002:00000b48       ??_C@_09IOPIDJLG@__swift_1@ 0000000180077b48     libvcruntime:undname.obj
 0002:00000b58       ??_C@_09KFNFGKHF@__swift_2@ 0000000180077b58     libvcruntime:undname.obj
 0002:00000b68       ??_C@_07JOMMBBKO@__ptr64@  0000000180077b68     libvcruntime:undname.obj
 0002:00000b70       ??_C@_0L@PILCLIHE@__restrict@ 0000000180077b70     libvcruntime:undname.obj
 0002:00000b80       ??_C@_0M@GFIIJFMG@__unaligned@ 0000000180077b80     libvcruntime:undname.obj
 0002:00000b90       ??_C@_09DHDLOLLB@restrict?$CI@ 0000000180077b90     libvcruntime:undname.obj
 0002:00000b9c       ??_C@_04NIHEBCM@?5new@     0000000180077b9c     libvcruntime:undname.obj
 0002:00000ba8       ??_C@_07FPCDHGMM@?5delete@ 0000000180077ba8     libvcruntime:undname.obj
 0002:00000bb0       ??_C@_01NEMOKFLO@?$DN@     0000000180077bb0     libvcruntime:undname.obj
 0002:00000bb4       ??_C@_02GPIOPFAK@?$DO?$DO@ 0000000180077bb4     libvcruntime:undname.obj
 0002:00000bb8       ??_C@_02FODMEDOG@?$DM?$DM@ 0000000180077bb8     libvcruntime:undname.obj
 0002:00000bbc       ??_C@_01DCLJPIOD@?$CB@     0000000180077bbc     libvcruntime:undname.obj
 0002:00000bc0       ??_C@_02EGOFBIJA@?$DN?$DN@ 0000000180077bc0     libvcruntime:undname.obj
 0002:00000bc4       ??_C@_02FDNJECIE@?$CB?$DN@ 0000000180077bc4     libvcruntime:undname.obj
 0002:00000bc8       ??_C@_02GPECMEKF@?$FL?$FN@ 0000000180077bc8     libvcruntime:undname.obj
 0002:00000bd0       ??_C@_08LHJFAFGD@operator@ 0000000180077bd0     libvcruntime:undname.obj
 0002:00000bdc       ??_C@_02HBOOOICD@?9?$DO@   0000000180077bdc     libvcruntime:undname.obj
 0002:00000be0       ??_C@_01NBENCBCI@?$CK@     0000000180077be0     libvcruntime:undname.obj
 0002:00000be4       ??_C@_02ECNGHCIF@?$CL?$CL@ 0000000180077be4     libvcruntime:undname.obj
 0002:00000be8       ??_C@_02BAABKJLB@?9?9@     0000000180077be8     libvcruntime:undname.obj
 0002:00000bec       ??_C@_01JOAMLHOP@?9@       0000000180077bec     libvcruntime:undname.obj
 0002:00000bf0       ??_C@_01MIFGBAGJ@?$CL@     0000000180077bf0     libvcruntime:undname.obj
 0002:00000bf4       ??_C@_01HNPIGOCE@?$CG@     0000000180077bf4     libvcruntime:undname.obj
 0002:00000bf8       ??_C@_03MNHNFDLC@?9?$DO?$CK@ 0000000180077bf8     libvcruntime:undname.obj
 0002:00000bfc       ??_C@_01KMDKNFGN@?1@       0000000180077bfc     libvcruntime:undname.obj
 0002:00000c00       ??_C@_01FGNFDNOH@?$CF@     0000000180077c00     libvcruntime:undname.obj
 0002:00000c04       ??_C@_01MNNFJEPP@?$DM@     0000000180077c04     libvcruntime:undname.obj
 0002:00000c08       ??_C@_02EHCHHCKH@?$DM?$DN@ 0000000180077c08     libvcruntime:undname.obj
 0002:00000c0c       ??_C@_01PPODPGHN@?$DO@     0000000180077c0c     libvcruntime:undname.obj
 0002:00000c10       ??_C@_02EEKDKGMJ@?$DO?$DN@ 0000000180077c10     libvcruntime:undname.obj
 0002:00000c14       ??_C@_01IHBHIGKO@?0@       0000000180077c14     libvcruntime:undname.obj
 0002:00000c18       ??_C@_02HCKGKOFO@?$CI?$CJ@ 0000000180077c18     libvcruntime:undname.obj
 0002:00000c1c       ??_C@_01PJKLJHI@?$HO@      0000000180077c1c     libvcruntime:undname.obj
 0002:00000c20       ??_C@_01JKBOJNNK@?$FO@     0000000180077c20     libvcruntime:undname.obj
 0002:00000c24       ??_C@_01DNKMNLPK@?$HM@     0000000180077c24     libvcruntime:undname.obj
 0002:00000c28       ??_C@_02PPKAJPJL@?$CG?$CG@ 0000000180077c28     libvcruntime:undname.obj
 0002:00000c2c       ??_C@_02NONPIBCD@?$HM?$HM@ 0000000180077c2c     libvcruntime:undname.obj
 0002:00000c30       ??_C@_02FPIMKNGF@?$CK?$DN@ 0000000180077c30     libvcruntime:undname.obj
 0002:00000c34       ??_C@_02FOEOMHFC@?$CL?$DN@ 0000000180077c34     libvcruntime:undname.obj
 0002:00000c38       ??_C@_02FKMDLLOA@?9?$DN@   0000000180077c38     libvcruntime:undname.obj
 0002:00000c3c       ??_C@_02FJEHGPIO@?1?$DN@   0000000180077c3c     libvcruntime:undname.obj
 0002:00000c40       ??_C@_02FENAOKFI@?$CF?$DN@ 0000000180077c40     libvcruntime:undname.obj
 0002:00000c44       ??_C@_03IKFCCPFF@?$DO?$DO?$DN@ 0000000180077c44     libvcruntime:undname.obj
 0002:00000c48       ??_C@_03CDNPDDLA@?$DM?$DM?$DN@ 0000000180077c48     libvcruntime:undname.obj
 0002:00000c4c       ??_C@_02FGJGFEAB@?$CG?$DN@ 0000000180077c4c     libvcruntime:undname.obj
 0002:00000c50       ??_C@_02DHLNPPGH@?$HM?$DN@ 0000000180077c50     libvcruntime:undname.obj
 0002:00000c54       ??_C@_02MHEGNOJ@?$FO?$DN@  0000000180077c54     libvcruntime:undname.obj
 0002:00000c58       ??_C@_09IFPLHPGF@?$GAvftable?8@ 0000000180077c58     libvcruntime:undname.obj
 0002:00000c68       ??_C@_09BLBHBJP@?$GAvbtable?8@ 0000000180077c68     libvcruntime:undname.obj
 0002:00000c78       ??_C@_07FEEIOKP@?$GAvcall?8@ 0000000180077c78     libvcruntime:undname.obj
 0002:00000c80       ??_C@_08LLFFHHDJ@?$GAtypeof?8@ 0000000180077c80     libvcruntime:undname.obj
 0002:00000c90       ??_C@_0BF@KDPPACIK@?$GAlocal?5static?5guard?8@ 0000000180077c90     libvcruntime:undname.obj
 0002:00000ca8       ??_C@_08OBABFOLI@?$GAstring?8@ 0000000180077ca8     libvcruntime:undname.obj
 0002:00000cb8       ??_C@_0BD@JDLKDPAB@?$GAvbase?5destructor?8@ 0000000180077cb8     libvcruntime:undname.obj
 0002:00000cd0       ??_C@_0BN@DEGPLNFK@?$GAvector?5deleting?5destructor?8@ 0000000180077cd0     libvcruntime:undname.obj
 0002:00000cf0       ??_C@_0BO@OBMKPJIG@?$GAdefault?5constructor?5closure?8@ 0000000180077cf0     libvcruntime:undname.obj
 0002:00000d10       ??_C@_0BN@IMDCHIKM@?$GAscalar?5deleting?5destructor?8@ 0000000180077d10     libvcruntime:undname.obj
 0002:00000d30       ??_C@_0BO@PFGOCPJJ@?$GAvector?5constructor?5iterator?8@ 0000000180077d30     libvcruntime:undname.obj
 0002:00000d50       ??_C@_0BN@LFPFMEDL@?$GAvector?5destructor?5iterator?8@ 0000000180077d50     libvcruntime:undname.obj
 0002:00000d70       ??_C@_0CE@IKBNEHA@?$GAvector?5vbase?5constructor?5itera@ 0000000180077d70     libvcruntime:undname.obj
 0002:00000d98       ??_C@_0BL@NILFHHPC@?$GAvirtual?5displacement?5map?8@ 0000000180077d98     libvcruntime:undname.obj
 0002:00000db8       ??_C@_0CB@JONCMFFK@?$GAeh?5vector?5constructor?5iterator@ 0000000180077db8     libvcruntime:undname.obj
 0002:00000de0       ??_C@_0CA@GCEOPDGL@?$GAeh?5vector?5destructor?5iterator?8@ 0000000180077de0     libvcruntime:undname.obj
 0002:00000e00       ??_C@_0CH@OOJPLCPH@?$GAeh?5vector?5vbase?5constructor?5it@ 0000000180077e00     libvcruntime:undname.obj
 0002:00000e28       ??_C@_0BL@LLKPOHJI@?$GAcopy?5constructor?5closure?8@ 0000000180077e28     libvcruntime:undname.obj
 0002:00000e48       ??_C@_0BA@KBCDOMBN@?$GAudt?5returning?8@ 0000000180077e48     libvcruntime:undname.obj
 0002:00000e58       ??_C@_03KLGMFNMG@?$GAEH@   0000000180077e58     libvcruntime:undname.obj
 0002:00000e5c       ??_C@_05KHLCHHI@?$GARTTI@  0000000180077e5c     libvcruntime:undname.obj
 0002:00000e68       ??_C@_0BA@KKLDJDLB@?$GAlocal?5vftable?8@ 0000000180077e68     libvcruntime:undname.obj
 0002:00000e78       ??_C@_0CE@IIHCMGGL@?$GAlocal?5vftable?5constructor?5clos@ 0000000180077e78     libvcruntime:undname.obj
 0002:00000e9c       ??_C@_06FHBGPFGH@?5new?$FL?$FN@ 0000000180077e9c     libvcruntime:undname.obj
 0002:00000ea8       ??_C@_09LBNFPBCA@?5delete?$FL?$FN@ 0000000180077ea8     libvcruntime:undname.obj
 0002:00000eb8       ??_C@_0P@HJKNJFNN@?$GAomni?5callsig?8@ 0000000180077eb8     libvcruntime:undname.obj
 0002:00000ec8       ??_C@_0BL@CNOONJFP@?$GAplacement?5delete?5closure?8@ 0000000180077ec8     libvcruntime:undname.obj
 0002:00000ee8       ??_C@_0BN@CKNJLHMB@?$GAplacement?5delete?$FL?$FN?5closure?8@ 0000000180077ee8     libvcruntime:undname.obj
 0002:00000f08       ??_C@_0CG@CFDHKGGD@?$GAmanaged?5vector?5constructor?5ite@ 0000000180077f08     libvcruntime:undname.obj
 0002:00000f30       ??_C@_0CF@IMGKMJNO@?$GAmanaged?5vector?5destructor?5iter@ 0000000180077f30     libvcruntime:undname.obj
 0002:00000f58       ??_C@_0CG@HLDDJMAG@?$GAeh?5vector?5copy?5constructor?5ite@ 0000000180077f58     libvcruntime:undname.obj
 0002:00000f80       ??_C@_0CM@FCBBDIGB@?$GAeh?5vector?5vbase?5copy?5construct@ 0000000180077f80     libvcruntime:undname.obj
 0002:00000fb0       ??_C@_0BL@CLIPGLGB@?$GAdynamic?5initializer?5for?5?8@ 0000000180077fb0     libvcruntime:undname.obj
 0002:00000fd0       ??_C@_0CB@PDBIFEP@?$GAdynamic?5atexit?5destructor?5for?5@ 0000000180077fd0     libvcruntime:undname.obj
 0002:00000ff8       ??_C@_0CD@CGAJBKEJ@?$GAvector?5copy?5constructor?5iterat@ 0000000180077ff8     libvcruntime:undname.obj
 0002:00001020       ??_C@_0CJ@GJELGAMM@?$GAvector?5vbase?5copy?5constructor?5@ 0000000180078020     libvcruntime:undname.obj
 0002:00001050       ??_C@_0CL@FGIJHLCE@?$GAmanaged?5vector?5copy?5constructo@ 0000000180078050     libvcruntime:undname.obj
 0002:00001080       ??_C@_0BM@PMGGMLDN@?$GAlocal?5static?5thread?5guard?8@ 0000000180078080     libvcruntime:undname.obj
 0002:000010a0       ??_C@_0N@BDNMDMOL@operator?5?$CC?$CC?5@ 00000001800780a0     libvcruntime:undname.obj
 0002:000010b0       ??_C@_0BC@GGEBGALA@operator?5co_await@ 00000001800780b0     libvcruntime:undname.obj
 0002:000010c8       ??_C@_0BC@DAFEJGAK@?5Type?5Descriptor?8@ 00000001800780c8     libvcruntime:undname.obj
 0002:000010e0       ??_C@_0BM@LDKODKLH@?5Base?5Class?5Descriptor?5at?5?$CI@ 00000001800780e0     libvcruntime:undname.obj
 0002:00001100       ??_C@_0BD@LGICGFMM@?5Base?5Class?5Array?8@ 0000000180078100     libvcruntime:undname.obj
 0002:00001118       ??_C@_0BN@MECKDCOJ@?5Class?5Hierarchy?5Descriptor?8@ 0000000180078118     libvcruntime:undname.obj
 0002:00001138       ??_C@_0BK@CFCOFLF@?5Complete?5Object?5Locator?8@ 0000000180078138     libvcruntime:undname.obj
 0002:00001160       standard_lookup_table      0000000180078160     libucrt:output.obj
 0002:000011c0       ??_C@_1O@CEDCILHN@?$AA?$CI?$AAn?$AAu?$AAl?$AAl?$AA?$CJ?$AA?$AA@ 00000001800781c0     libucrt:output.obj
 0002:000011d0       ??_C@_06OJHGLDPL@?$CInull?$CJ?$AA@ 00000001800781d0     libucrt:output.obj
 0002:000011e0       ??_C@_1FE@LHBLIKM@?$AAA?$AAs?$AAs?$AAe?$AAr?$AAt?$AAi?$AAo?$AAn?$AA?5?$AAf?$AAa?$AAi?$AAl?$AAe?$AAd?$AA?3?$AA?5?$AA?$CF?$AAT?$AAs?$AA?0?$AA?5?$AAf?$AAi?$AAl?$AAe?$AA?5?$AA?$CF?$AAT?$AAs?$AA?0@ 00000001800781e0     libucrt:assert.obj
 0002:00001240       ??_C@_1EK@MBDPDCGA@?$AAM?$AAi?$AAc?$AAr?$AAo?$AAs?$AAo?$AAf?$AAt?$AA?5?$AAV?$AAi?$AAs?$AAu?$AAa?$AAl?$AA?5?$AAC?$AA?$CL?$AA?$CL?$AA?5?$AAR?$AAu?$AAn?$AAt?$AAi?$AAm?$AAe?$AA?5?$AAL?$AAi?$AAb@ 0000000180078240     libucrt:assert.obj
 0002:00001290       ??_C@_1CE@OJBNHDMO@?$AAA?$AAs?$AAs?$AAe?$AAr?$AAt?$AAi?$AAo?$AAn?$AA?5?$AAf?$AAa?$AAi?$AAl?$AAe?$AAd?$AA?$CB?$AA?$AA@ 0000000180078290     libucrt:assert.obj
 0002:000012b8       ??_C@_1BE@PHKBBGE@?$AAP?$AAr?$AAo?$AAg?$AAr?$AAa?$AAm?$AA?3?$AA?5?$AA?$AA@ 00000001800782b8     libucrt:assert.obj
 0002:000012d0       ??_C@_1O@HEMHKNDC@?$AAF?$AAi?$AAl?$AAe?$AA?3?$AA?5?$AA?$AA@ 00000001800782d0     libucrt:assert.obj
 0002:000012e0       ??_C@_1O@KCAFKHJE@?$AAL?$AAi?$AAn?$AAe?$AA?3?$AA?5?$AA?$AA@ 00000001800782e0     libucrt:assert.obj
 0002:000012f0       ??_C@_1BK@PEDCIPMA@?$AAE?$AAx?$AAp?$AAr?$AAe?$AAs?$AAs?$AAi?$AAo?$AAn?$AA?3?$AA?5?$AA?$AA@ 00000001800782f0     libucrt:assert.obj
 0002:00001310       ??_C@_1OA@EGMLFBHJ@?$AAF?$AAo?$AAr?$AA?5?$AAi?$AAn?$AAf?$AAo?$AAr?$AAm?$AAa?$AAt?$AAi?$AAo?$AAn?$AA?5?$AAo?$AAn?$AA?5?$AAh?$AAo?$AAw?$AA?5?$AAy?$AAo?$AAu?$AAr?$AA?5?$AAp?$AAr?$AAo?$AAg@ 0000000180078310     libucrt:assert.obj
 0002:000013f0       ??_C@_1HK@POCJMFGK@?$AA?$CI?$AAP?$AAr?$AAe?$AAs?$AAs?$AA?5?$AAR?$AAe?$AAt?$AAr?$AAy?$AA?5?$AAt?$AAo?$AA?5?$AAd?$AAe?$AAb?$AAu?$AAg?$AA?5?$AAt?$AAh?$AAe?$AA?5?$AAa?$AAp?$AAp?$AAl?$AAi?$AAc@ 00000001800783f0     libucrt:assert.obj
 0002:00001470       ??_C@_17LGKOMLJ@?$AA?4?$AA?4?$AA?4?$AA?$AA@ 0000000180078470     libucrt:assert.obj
 0002:00001478       ??_C@_13LBAGMAIH@?$AA?6?$AA?$AA@ 0000000180078478     libucrt:assert.obj
 0002:0000147c       ??_C@_15IABLJNFO@?$AA?6?$AA?6?$AA?$AA@ 000000018007847c     libucrt:assert.obj
 0002:00001488       ??_C@_1CO@EAEJAADC@?$AA?$DM?$AAp?$AAr?$AAo?$AAg?$AAr?$AAa?$AAm?$AA?5?$AAn?$AAa?$AAm?$AAe?$AA?5?$AAu?$AAn?$AAk?$AAn?$AAo?$AAw?$AAn?$AA?$DO?$AA?$AA@ 0000000180078488     libucrt:assert.obj
 0002:000014c0       __acrt_exception_action_table 00000001800784c0     libucrt:exception_filter.obj
 0002:00001580       __acrt_signal_action_table_count 0000000180078580     libucrt:exception_filter.obj
 0002:00001588       __acrt_signal_action_first_fpe_index 0000000180078588     libucrt:exception_filter.obj
 0002:00001590       __acrt_signal_action_fpe_count 0000000180078590     libucrt:exception_filter.obj
 0002:00001598       ??_C@_1BI@BGOHAHKC@?$AAm?$AAs?$AAc?$AAo?$AAr?$AAe?$AAe?$AA?4?$AAd?$AAl?$AAl?$AA?$AA@ 0000000180078598     libucrt:exit.obj
 0002:000015b0       ??_C@_0P@MIGLKIOC@CorExitProcess?$AA@ 00000001800785b0     libucrt:exit.obj
 0002:00001828       ??_C@_03OEIAHPBN@INF?$AA@  0000000180078828     libucrt:cvt.obj
 0002:0000182c       ??_C@_03OJHLLCGB@inf?$AA@  000000018007882c     libucrt:cvt.obj
 0002:00001830       ??_C@_03LKNCIKJB@NAN?$AA@  0000000180078830     libucrt:cvt.obj
 0002:00001834       ??_C@_03LHCJEHON@nan?$AA@  0000000180078834     libucrt:cvt.obj
 0002:00001838       ??_C@_09OFJJIMPC@NAN?$CISNAN?$CJ?$AA@ 0000000180078838     libucrt:cvt.obj
 0002:00001848       ??_C@_09IPFBKMDL@nan?$CIsnan?$CJ?$AA@ 0000000180078848     libucrt:cvt.obj
 0002:00001858       ??_C@_08IKHNHAJ@NAN?$CIIND?$CJ?$AA@ 0000000180078858     libucrt:cvt.obj
 0002:00001868       ??_C@_08OFCDMILK@nan?$CIind?$CJ?$AA@ 0000000180078868     libucrt:cvt.obj
 0002:00001874       ??_C@_05KLBDPFGC@e?$CL000?$AA@ 0000000180078874     libucrt:cvt.obj
 0002:00001880       __lc_time_c                0000000180078880     libucrt:nlsdata.obj
 0002:00001b40       ??_C@_03KOEHGMDN@Sun?$AA@  0000000180078b40     libucrt:nlsdata.obj
 0002:00001b44       ??_C@_03PDAGKDH@Mon?$AA@   0000000180078b44     libucrt:nlsdata.obj
 0002:00001b48       ??_C@_03NAGEINEP@Tue?$AA@  0000000180078b48     libucrt:nlsdata.obj
 0002:00001b4c       ??_C@_03MHOMLAJA@Wed?$AA@  0000000180078b4c     libucrt:nlsdata.obj
 0002:00001b50       ??_C@_03IOFIKPDN@Thu?$AA@  0000000180078b50     libucrt:nlsdata.obj
 0002:00001b54       ??_C@_03IDIOELNC@Fri?$AA@  0000000180078b54     libucrt:nlsdata.obj
 0002:00001b58       ??_C@_03FEFJNEK@Sat?$AA@   0000000180078b58     libucrt:nlsdata.obj
 0002:00001b5c       ??_C@_06OOPIFAJ@Sunday?$AA@ 0000000180078b5c     libucrt:nlsdata.obj
 0002:00001b64       ??_C@_06JLEDEDGH@Monday?$AA@ 0000000180078b64     libucrt:nlsdata.obj
 0002:00001b70       ??_C@_07BAAGCFCM@Tuesday?$AA@ 0000000180078b70     libucrt:nlsdata.obj
 0002:00001b78       ??_C@_09DLIGFAKA@Wednesday?$AA@ 0000000180078b78     libucrt:nlsdata.obj
 0002:00001b88       ??_C@_08HACCIKIA@Thursday?$AA@ 0000000180078b88     libucrt:nlsdata.obj
 0002:00001b94       ??_C@_06JECMNKMI@Friday?$AA@ 0000000180078b94     libucrt:nlsdata.obj
 0002:00001ba0       ??_C@_08INBOOONO@Saturday?$AA@ 0000000180078ba0     libucrt:nlsdata.obj
 0002:00001bac       ??_C@_03JIHJHPIE@Jan?$AA@  0000000180078bac     libucrt:nlsdata.obj
 0002:00001bb0       ??_C@_03HJBDCHOM@Feb?$AA@  0000000180078bb0     libucrt:nlsdata.obj
 0002:00001bb4       ??_C@_03ODNJBKGA@Mar?$AA@  0000000180078bb4     libucrt:nlsdata.obj
 0002:00001bb8       ??_C@_03LEOLGMJP@Apr?$AA@  0000000180078bb8     libucrt:nlsdata.obj
 0002:00001bbc       ??_C@_03CNMDKL@May?$AA@    0000000180078bbc     libucrt:nlsdata.obj
 0002:00001bc0       ??_C@_03IDFGHECI@Jun?$AA@  0000000180078bc0     libucrt:nlsdata.obj
 0002:00001bc4       ??_C@_03LBGABGKK@Jul?$AA@  0000000180078bc4     libucrt:nlsdata.obj
 0002:00001bc8       ??_C@_03IFJFEIGA@Aug?$AA@  0000000180078bc8     libucrt:nlsdata.obj
 0002:00001bcc       ??_C@_03GGCAPAJC@Sep?$AA@  0000000180078bcc     libucrt:nlsdata.obj
 0002:00001bd0       ??_C@_03BMAOKBAD@Oct?$AA@  0000000180078bd0     libucrt:nlsdata.obj
 0002:00001bd4       ??_C@_03JPJOFNIA@Nov?$AA@  0000000180078bd4     libucrt:nlsdata.obj
 0002:00001bd8       ??_C@_03MKABNOCG@Dec?$AA@  0000000180078bd8     libucrt:nlsdata.obj
 0002:00001be0       ??_C@_07CGJPFGJA@January?$AA@ 0000000180078be0     libucrt:nlsdata.obj
 0002:00001be8       ??_C@_08GNJGEPFN@February?$AA@ 0000000180078be8     libucrt:nlsdata.obj
 0002:00001bf4       ??_C@_05HPCKOFNC@March?$AA@ 0000000180078bf4     libucrt:nlsdata.obj
 0002:00001bfc       ??_C@_05DMJDNLEJ@April?$AA@ 0000000180078bfc     libucrt:nlsdata.obj
 0002:00001c04       ??_C@_04CNLMGBGM@June?$AA@ 0000000180078c04     libucrt:nlsdata.obj
 0002:00001c0c       ??_C@_04MIEPOIFP@July?$AA@ 0000000180078c0c     libucrt:nlsdata.obj
 0002:00001c14       ??_C@_06LBBHFDDG@August?$AA@ 0000000180078c14     libucrt:nlsdata.obj
 0002:00001c20       ??_C@_09BHHEALKD@September?$AA@ 0000000180078c20     libucrt:nlsdata.obj
 0002:00001c30       ??_C@_07JJNFCEND@October?$AA@ 0000000180078c30     libucrt:nlsdata.obj
 0002:00001c38       ??_C@_08HCHEGEOA@November?$AA@ 0000000180078c38     libucrt:nlsdata.obj
 0002:00001c48       ??_C@_08EDHMEBNP@December?$AA@ 0000000180078c48     libucrt:nlsdata.obj
 0002:00001c54       ??_C@_02DEDBPAFC@AM?$AA@   0000000180078c54     libucrt:nlsdata.obj
 0002:00001c58       ??_C@_02CJNFDJBF@PM?$AA@   0000000180078c58     libucrt:nlsdata.obj
 0002:00001c60       ??_C@_08BPBNCDIB@MM?1dd?1yy?$AA@ 0000000180078c60     libucrt:nlsdata.obj
 0002:00001c70       ??_C@_0BE@CKGJFCPC@dddd?0?5MMMM?5dd?0?5yyyy?$AA@ 0000000180078c70     libucrt:nlsdata.obj
 0002:00001c88       ??_C@_08JCCMCCIL@HH?3mm?3ss?$AA@ 0000000180078c88     libucrt:nlsdata.obj
 0002:00001c98       ??_C@_17MBGCMIPB@?$AAS?$AAu?$AAn?$AA?$AA@ 0000000180078c98     libucrt:nlsdata.obj
 0002:00001ca0       ??_C@_17KBOMKBF@?$AAM?$AAo?$AAn?$AA?$AA@ 0000000180078ca0     libucrt:nlsdata.obj
 0002:00001ca8       ??_C@_17BMKGEGOJ@?$AAT?$AAu?$AAe?$AA?$AA@ 0000000180078ca8     libucrt:nlsdata.obj
 0002:00001cb0       ??_C@_17CJEDCEPE@?$AAW?$AAe?$AAd?$AA?$AA@ 0000000180078cb0     libucrt:nlsdata.obj
 0002:00001cb8       ??_C@_17PDPHAADD@?$AAT?$AAh?$AAu?$AA?$AA@ 0000000180078cb8     libucrt:nlsdata.obj
 0002:00001cc0       ??_C@_17HFOLPPLP@?$AAF?$AAr?$AAi?$AA?$AA@ 0000000180078cc0     libucrt:nlsdata.obj
 0002:00001cc8       ??_C@_17GGIBDPIH@?$AAS?$AAa?$AAt?$AA?$AA@ 0000000180078cc8     libucrt:nlsdata.obj
 0002:00001cd0       ??_C@_1O@IHNHDHPB@?$AAS?$AAu?$AAn?$AAd?$AAa?$AAy?$AA?$AA@ 0000000180078cd0     libucrt:nlsdata.obj
 0002:00001ce0       ??_C@_1O@MMNBFLIA@?$AAM?$AAo?$AAn?$AAd?$AAa?$AAy?$AA?$AA@ 0000000180078ce0     libucrt:nlsdata.obj
 0002:00001cf0       ??_C@_1BA@ENFBFFEK@?$AAT?$AAu?$AAe?$AAs?$AAd?$AAa?$AAy?$AA?$AA@ 0000000180078cf0     libucrt:nlsdata.obj
 0002:00001d00       ??_C@_1BE@EBOGMDOH@?$AAW?$AAe?$AAd?$AAn?$AAe?$AAs?$AAd?$AAa?$AAy?$AA?$AA@ 0000000180078d00     libucrt:nlsdata.obj
 0002:00001d18       ??_C@_1BC@HHMNLIHE@?$AAT?$AAh?$AAu?$AAr?$AAs?$AAd?$AAa?$AAy?$AA?$AA@ 0000000180078d18     libucrt:nlsdata.obj
 0002:00001d30       ??_C@_1O@PDICJHAG@?$AAF?$AAr?$AAi?$AAd?$AAa?$AAy?$AA?$AA@ 0000000180078d30     libucrt:nlsdata.obj
 0002:00001d40       ??_C@_1BC@ENMNNPAJ@?$AAS?$AAa?$AAt?$AAu?$AAr?$AAd?$AAa?$AAy?$AA?$AA@ 0000000180078d40     libucrt:nlsdata.obj
 0002:00001d58       ??_C@_17DKNBKCHM@?$AAJ?$AAa?$AAn?$AA?$AA@ 0000000180078d58     libucrt:nlsdata.obj
 0002:00001d60       ??_C@_17LMDJEKJN@?$AAF?$AAe?$AAb?$AA?$AA@ 0000000180078d60     libucrt:nlsdata.obj
 0002:00001d68       ??_C@_17CKNLEDEC@?$AAM?$AAa?$AAr?$AA?$AA@ 0000000180078d68     libucrt:nlsdata.obj
 0002:00001d70       ??_C@_17LFPOIHDD@?$AAA?$AAp?$AAr?$AA?$AA@ 0000000180078d70     libucrt:nlsdata.obj
 0002:00001d78       ??_C@_17PNNKMEED@?$AAM?$AAa?$AAy?$AA?$AA@ 0000000180078d78     libucrt:nlsdata.obj
 0002:00001d80       ??_C@_17KCJGOCPB@?$AAJ?$AAu?$AAn?$AA?$AA@ 0000000180078d80     libucrt:nlsdata.obj
 0002:00001d88       ??_C@_17IJPCKHK@?$AAJ?$AAu?$AAl?$AA?$AA@ 0000000180078d88     libucrt:nlsdata.obj
 0002:00001d90       ??_C@_17ICPELBCN@?$AAA?$AAu?$AAg?$AA?$AA@ 0000000180078d90     libucrt:nlsdata.obj
 0002:00001d98       ??_C@_17HCHCOKMG@?$AAS?$AAe?$AAp?$AA?$AA@ 0000000180078d98     libucrt:nlsdata.obj
 0002:00001da0       ??_C@_17FNLKOI@?$AAO?$AAc?$AAt?$AA?$AA@ 0000000180078da0     libucrt:nlsdata.obj
 0002:00001da8       ??_C@_17BBDMLCIG@?$AAN?$AAo?$AAv?$AA?$AA@ 0000000180078da8     libucrt:nlsdata.obj
 0002:00001db0       ??_C@_17EGKACKIF@?$AAD?$AAe?$AAc?$AA?$AA@ 0000000180078db0     libucrt:nlsdata.obj
 0002:00001db8       ??_C@_1BA@EFMEIEBA@?$AAJ?$AAa?$AAn?$AAu?$AAa?$AAr?$AAy?$AA?$AA@ 0000000180078db8     libucrt:nlsdata.obj
 0002:00001dc8       ??_C@_1BC@JGDDFFAM@?$AAF?$AAe?$AAb?$AAr?$AAu?$AAa?$AAr?$AAy?$AA?$AA@ 0000000180078dc8     libucrt:nlsdata.obj
 0002:00001de0       ??_C@_1M@IKEENEDF@?$AAM?$AAa?$AAr?$AAc?$AAh?$AA?$AA@ 0000000180078de0     libucrt:nlsdata.obj
 0002:00001df0       ??_C@_1M@GJNLMHFD@?$AAA?$AAp?$AAr?$AAi?$AAl?$AA?$AA@ 0000000180078df0     libucrt:nlsdata.obj
 0002:00001e00       ??_C@_19EPFLPGAP@?$AAJ?$AAu?$AAn?$AAe?$AA?$AA@ 0000000180078e00     libucrt:nlsdata.obj
 0002:00001e10       ??_C@_19BIFMLPCD@?$AAJ?$AAu?$AAl?$AAy?$AA?$AA@ 0000000180078e10     libucrt:nlsdata.obj
 0002:00001e20       ??_C@_1O@PAHLKOAC@?$AAA?$AAu?$AAg?$AAu?$AAs?$AAt?$AA?$AA@ 0000000180078e20     libucrt:nlsdata.obj
 0002:00001e30       ??_C@_1BE@DKAAMBJL@?$AAS?$AAe?$AAp?$AAt?$AAe?$AAm?$AAb?$AAe?$AAr?$AA?$AA@ 0000000180078e30     libucrt:nlsdata.obj
 0002:00001e48       ??_C@_1BA@EPANDLNG@?$AAO?$AAc?$AAt?$AAo?$AAb?$AAe?$AAr?$AA?$AA@ 0000000180078e48     libucrt:nlsdata.obj
 0002:00001e58       ??_C@_1BC@BGLIFPF@?$AAN?$AAo?$AAv?$AAe?$AAm?$AAb?$AAe?$AAr?$AA?$AA@ 0000000180078e58     libucrt:nlsdata.obj
 0002:00001e70       ??_C@_1BC@FEMKIFH@?$AAD?$AAe?$AAc?$AAe?$AAm?$AAb?$AAe?$AAr?$AA?$AA@ 0000000180078e70     libucrt:nlsdata.obj
 0002:00001e84       ??_C@_15ODEHAHHF@?$AAA?$AAM?$AA?$AA@ 0000000180078e84     libucrt:nlsdata.obj
 0002:00001e8c       ??_C@_15CLMNNGEL@?$AAP?$AAM?$AA?$AA@ 0000000180078e8c     libucrt:nlsdata.obj
 0002:00001e98       ??_C@_1BC@IEBCMHCM@?$AAM?$AAM?$AA?1?$AAd?$AAd?$AA?1?$AAy?$AAy?$AA?$AA@ 0000000180078e98     libucrt:nlsdata.obj
 0002:00001eb0       ??_C@_1CI@KNAKOEBC@?$AAd?$AAd?$AAd?$AAd?$AA?0?$AA?5?$AAM?$AAM?$AAM?$AAM?$AA?5?$AAd?$AAd?$AA?0?$AA?5?$AAy?$AAy?$AAy?$AAy?$AA?$AA@ 0000000180078eb0     libucrt:nlsdata.obj
 0002:00001ed8       ??_C@_1BC@GDGBMEMK@?$AAH?$AAH?$AA?3?$AAm?$AAm?$AA?3?$AAs?$AAs?$AA?$AA@ 0000000180078ed8     libucrt:nlsdata.obj
 0002:00001ef0       ??_C@_1M@BMHNFIME@?$AAe?$AAn?$AA?9?$AAU?$AAS?$AA?$AA@ 0000000180078ef0     libucrt:nlsdata.obj
 0002:00001f20       ??_C@_1M@HPNHIDJI@?$AAj?$AAa?$AA?9?$AAJ?$AAP?$AA?$AA@ 0000000180078f20     libucrt:mbctype.obj
 0002:00001f30       ??_C@_1M@BIBDDEMK@?$AAz?$AAh?$AA?9?$AAC?$AAN?$AA?$AA@ 0000000180078f30     libucrt:mbctype.obj
 0002:00001f40       ??_C@_1M@JLOOOEGK@?$AAk?$AAo?$AA?9?$AAK?$AAR?$AA?$AA@ 0000000180078f40     libucrt:mbctype.obj
 0002:00001f50       ??_C@_1M@CLNBBOPM@?$AAz?$AAh?$AA?9?$AAT?$AAW?$AA?$AA@ 0000000180078f50     libucrt:mbctype.obj
 0002:00002000       ??_C@_1EA@JGEFHKEI@?$AAa?$AAp?$AAi?$AA?9?$AAm?$AAs?$AA?9?$AAw?$AAi?$AAn?$AA?9?$AAc?$AAo?$AAr?$AAe?$AA?9?$AAd?$AAa?$AAt?$AAe?$AAt?$AAi?$AAm?$AAe?$AA?9?$AAl?$AA1?$AA?9?$AA1?$AA?9?$AA1?$AA?$AA@ 0000000180079000     libucrt:winapi_thunks.obj
 0002:00002040       ??_C@_1DM@KHCHBNEB@?$AAa?$AAp?$AAi?$AA?9?$AAm?$AAs?$AA?9?$AAw?$AAi?$AAn?$AA?9?$AAc?$AAo?$AAr?$AAe?$AA?9?$AAf?$AAi?$AAb?$AAe?$AAr?$AAs?$AA?9?$AAl?$AA1?$AA?9?$AA1?$AA?9?$AA1?$AA?$AA@ 0000000180079040     libucrt:winapi_thunks.obj
 0002:00002080       ??_C@_1DI@IJCEHOCB@?$AAa?$AAp?$AAi?$AA?9?$AAm?$AAs?$AA?9?$AAw?$AAi?$AAn?$AA?9?$AAc?$AAo?$AAr?$AAe?$AA?9?$AAf?$AAi?$AAl?$AAe?$AA?9?$AAl?$AA1?$AA?9?$AA2?$AA?9?$AA2?$AA?$AA@ 0000000180079080     libucrt:winapi_thunks.obj
 0002:000020c0       ??_C@_1EI@MPIAOHOC@?$AAa?$AAp?$AAi?$AA?9?$AAm?$AAs?$AA?9?$AAw?$AAi?$AAn?$AA?9?$AAc?$AAo?$AAr?$AAe?$AA?9?$AAl?$AAo?$AAc?$AAa?$AAl?$AAi?$AAz?$AAa?$AAt?$AAi?$AAo?$AAn?$AA?9?$AAl?$AA1?$AA?9@ 00000001800790c0     libucrt:winapi_thunks.obj
 0002:00002110       ??_C@_1FK@FPHCKFIE@?$AAa?$AAp?$AAi?$AA?9?$AAm?$AAs?$AA?9?$AAw?$AAi?$AAn?$AA?9?$AAc?$AAo?$AAr?$AAe?$AA?9?$AAl?$AAo?$AAc?$AAa?$AAl?$AAi?$AAz?$AAa?$AAt?$AAi?$AAo?$AAn?$AA?9?$AAo?$AAb?$AAs@ 0000000180079110     libucrt:winapi_thunks.obj
 0002:00002170       ??_C@_1EM@DILCGIIO@?$AAa?$AAp?$AAi?$AA?9?$AAm?$AAs?$AA?9?$AAw?$AAi?$AAn?$AA?9?$AAc?$AAo?$AAr?$AAe?$AA?9?$AAp?$AAr?$AAo?$AAc?$AAe?$AAs?$AAs?$AAt?$AAh?$AAr?$AAe?$AAa?$AAd?$AAs?$AA?9?$AAl@ 0000000180079170     libucrt:winapi_thunks.obj
 0002:000021c0       ??_C@_1DM@LNCGDDPN@?$AAa?$AAp?$AAi?$AA?9?$AAm?$AAs?$AA?9?$AAw?$AAi?$AAn?$AA?9?$AAc?$AAo?$AAr?$AAe?$AA?9?$AAs?$AAt?$AAr?$AAi?$AAn?$AAg?$AA?9?$AAl?$AA1?$AA?9?$AA1?$AA?9?$AA0?$AA?$AA@ 00000001800791c0     libucrt:winapi_thunks.obj
 0002:00002200       ??_C@_1DK@LPPGFMPP@?$AAa?$AAp?$AAi?$AA?9?$AAm?$AAs?$AA?9?$AAw?$AAi?$AAn?$AA?9?$AAc?$AAo?$AAr?$AAe?$AA?9?$AAs?$AAy?$AAn?$AAc?$AAh?$AA?9?$AAl?$AA1?$AA?9?$AA2?$AA?9?$AA0?$AA?$AA@ 0000000180079200     libucrt:winapi_thunks.obj
 0002:00002240       ??_C@_1DO@FPAPJEMD@?$AAa?$AAp?$AAi?$AA?9?$AAm?$AAs?$AA?9?$AAw?$AAi?$AAn?$AA?9?$AAc?$AAo?$AAr?$AAe?$AA?9?$AAs?$AAy?$AAs?$AAi?$AAn?$AAf?$AAo?$AA?9?$AAl?$AA1?$AA?9?$AA2?$AA?9?$AA1?$AA?$AA@ 0000000180079240     libucrt:winapi_thunks.obj
 0002:00002280       ??_C@_1DK@NDHNAHIO@?$AAa?$AAp?$AAi?$AA?9?$AAm?$AAs?$AA?9?$AAw?$AAi?$AAn?$AA?9?$AAc?$AAo?$AAr?$AAe?$AA?9?$AAw?$AAi?$AAn?$AAr?$AAt?$AA?9?$AAl?$AA1?$AA?9?$AA1?$AA?9?$AA0?$AA?$AA@ 0000000180079280     libucrt:winapi_thunks.obj
 0002:000022c0       ??_C@_1DM@KGHDGBCM@?$AAa?$AAp?$AAi?$AA?9?$AAm?$AAs?$AA?9?$AAw?$AAi?$AAn?$AA?9?$AAc?$AAo?$AAr?$AAe?$AA?9?$AAx?$AAs?$AAt?$AAa?$AAt?$AAe?$AA?9?$AAl?$AA2?$AA?9?$AA1?$AA?9?$AA0?$AA?$AA@ 00000001800792c0     libucrt:winapi_thunks.obj
 0002:00002300       ??_C@_1EO@IJIOEFOH@?$AAa?$AAp?$AAi?$AA?9?$AAm?$AAs?$AA?9?$AAw?$AAi?$AAn?$AA?9?$AAr?$AAt?$AAc?$AAo?$AAr?$AAe?$AA?9?$AAn?$AAt?$AAu?$AAs?$AAe?$AAr?$AA?9?$AAw?$AAi?$AAn?$AAd?$AAo?$AAw?$AA?9@ 0000000180079300     libucrt:winapi_thunks.obj
 0002:00002350       ??_C@_1FG@HHGEKANL@?$AAa?$AAp?$AAi?$AA?9?$AAm?$AAs?$AA?9?$AAw?$AAi?$AAn?$AA?9?$AAs?$AAe?$AAc?$AAu?$AAr?$AAi?$AAt?$AAy?$AA?9?$AAs?$AAy?$AAs?$AAt?$AAe?$AAm?$AAf?$AAu?$AAn?$AAc?$AAt?$AAi@ 0000000180079350     libucrt:winapi_thunks.obj
 0002:000023b0       ??_C@_1EG@DBIOJECG@?$AAe?$AAx?$AAt?$AA?9?$AAm?$AAs?$AA?9?$AAw?$AAi?$AAn?$AA?9?$AAn?$AAt?$AAu?$AAs?$AAe?$AAr?$AA?9?$AAd?$AAi?$AAa?$AAl?$AAo?$AAg?$AAb?$AAo?$AAx?$AA?9?$AAl?$AA1?$AA?9?$AA1@ 00000001800793b0     libucrt:winapi_thunks.obj
 0002:00002400       ??_C@_1EO@FIHMJCLF@?$AAe?$AAx?$AAt?$AA?9?$AAm?$AAs?$AA?9?$AAw?$AAi?$AAn?$AA?9?$AAn?$AAt?$AAu?$AAs?$AAe?$AAr?$AA?9?$AAw?$AAi?$AAn?$AAd?$AAo?$AAw?$AAs?$AAt?$AAa?$AAt?$AAi?$AAo?$AAn?$AA?9@ 0000000180079400     libucrt:winapi_thunks.obj
 0002:00002450       ??_C@_1BC@DNHGCMLG@?$AAa?$AAd?$AAv?$AAa?$AAp?$AAi?$AA3?$AA2?$AA?$AA@ 0000000180079450     libucrt:winapi_thunks.obj
 0002:00002468       ??_C@_1BC@GDMECMAK@?$AAk?$AAe?$AAr?$AAn?$AAe?$AAl?$AA3?$AA2?$AA?$AA@ 0000000180079468     libucrt:winapi_thunks.obj
 0002:00002480       ??_C@_1M@OAIMIKLP@?$AAn?$AAt?$AAd?$AAl?$AAl?$AA?$AA@ 0000000180079480     libucrt:winapi_thunks.obj
 0002:00002490       ??_C@_1EG@DPGNFKGC@?$AAa?$AAp?$AAi?$AA?9?$AAm?$AAs?$AA?9?$AAw?$AAi?$AAn?$AA?9?$AAa?$AAp?$AAp?$AAm?$AAo?$AAd?$AAe?$AAl?$AA?9?$AAr?$AAu?$AAn?$AAt?$AAi?$AAm?$AAe?$AA?9?$AAl?$AA1?$AA?9?$AA1@ 0000000180079490     libucrt:winapi_thunks.obj
 0002:000024d8       ??_C@_1O@BCCLBEOE@?$AAu?$AAs?$AAe?$AAr?$AA3?$AA2?$AA?$AA@ 00000001800794d8     libucrt:winapi_thunks.obj
 0002:000024e8       ??_C@_1BA@PFFKHIOG@?$AAa?$AAp?$AAi?$AA?9?$AAm?$AAs?$AA?9?$AA?$AA@ 00000001800794e8     libucrt:winapi_thunks.obj
 0002:000024f8       ??_C@_1BA@IAIFMGEF@?$AAe?$AAx?$AAt?$AA?9?$AAm?$AAs?$AA?9?$AA?$AA@ 00000001800794f8     libucrt:winapi_thunks.obj
 0002:00002510       ??_C@_0BA@FHFNEAED@AreFileApisANSI?$AA@ 0000000180079510     libucrt:winapi_thunks.obj
 0002:00002528       ??_C@_08KNHFBNJ@FlsAlloc?$AA@ 0000000180079528     libucrt:winapi_thunks.obj
 0002:00002540       ??_C@_07PEJMOBNF@FlsFree?$AA@ 0000000180079540     libucrt:winapi_thunks.obj
 0002:00002550       ??_C@_0M@GDNOONDI@FlsGetValue?$AA@ 0000000180079550     libucrt:winapi_thunks.obj
 0002:00002568       ??_C@_0M@JCPCPOEF@FlsSetValue?$AA@ 0000000180079568     libucrt:winapi_thunks.obj
 0002:00002580       ??_C@_0BA@HNOPNCHB@GetActiveWindow?$AA@ 0000000180079580     libucrt:winapi_thunks.obj
 0002:00002598       ??_C@_0BD@HHGDFDBJ@GetLastActivePopup?$AA@ 0000000180079598     libucrt:winapi_thunks.obj
 0002:000025b8       ??_C@_0BI@DFKBFLJE@GetProcessWindowStation?$AA@ 00000001800795b8     libucrt:winapi_thunks.obj
 0002:000025d8       ??_C@_0BK@DEKFELLI@GetUserObjectInformationW?$AA@ 00000001800795d8     libucrt:winapi_thunks.obj
 0002:00002600       ??_C@_0BM@HCFOFFN@InitializeCriticalSectionEx?$AA@ 0000000180079600     libucrt:winapi_thunks.obj
 0002:00002628       ??_C@_0O@KKBNKAPF@LCMapStringEx?$AA@ 0000000180079628     libucrt:winapi_thunks.obj
 0002:00002640       ??_C@_0BB@HBDEELFH@LocaleNameToLCID?$AA@ 0000000180079640     libucrt:winapi_thunks.obj
 0002:00002660       ??_C@_0M@CHKKJDAI@MessageBoxA?$AA@ 0000000180079660     libucrt:winapi_thunks.obj
 0002:00002678       ??_C@_0M@DLDCCGNP@MessageBoxW?$AA@ 0000000180079678     libucrt:winapi_thunks.obj
 0002:00002688       ??_C@_0CF@OJOFEIGO@AppPolicyGetProcessTerminationMe@ 0000000180079688     libucrt:winapi_thunks.obj
 0002:000026b8       ??_C@_0CE@OICFMIKE@AppPolicyGetShowDeveloperDiagnos@ 00000001800796b8     libucrt:winapi_thunks.obj
 0002:000026e0       ??_C@_0BL@ODDJNEDA@AppPolicyGetWindowingModel?$AA@ 00000001800796e0     libucrt:winapi_thunks.obj
 0002:00002700       __newctype                 0000000180079700     libucrt:ctype.obj
 0002:00002a00       __newclmap                 0000000180079a00     libucrt:ctype.obj
 0002:00002b80       __newcumap                 0000000180079b80     libucrt:ctype.obj
 0002:00002d00       _wctype                    0000000180079d00     libucrt:ctype.obj
 0002:00002f04       ??_C@_00CNPNBAHC@?$AA@     0000000180079f04     libucrt:mbrtowc.obj
 0002:00002f10       ?large_power_data@?1??multiply_by_power_of_ten@__crt_strtox@@YA_NAEAUbig_integer@2@I@Z@4QBIB 0000000180079f10     libucrt:cfout.obj
 0002:00003820       ?large_power_indices@?1??multiply_by_power_of_ten@__crt_strtox@@YA_NAEAUbig_integer@2@I@Z@4QBUunpack_index@?1??12@YA_N0I@Z@B 000000018007a820     libucrt:cfout.obj
 0002:000038b8       ?small_powers_of_ten@?1??multiply_by_power_of_ten@__crt_strtox@@YA_NAEAUbig_integer@2@I@Z@4QBIB 000000018007a8b8     libucrt:cfout.obj
 0002:000038dc       ??_C@_01GBGANLPD@0?$AA@    000000018007a8dc     libucrt:cfout.obj
 0002:000038e0       ??_C@_05DNEBIAHO@1?$CDINF?$AA@ 000000018007a8e0     libucrt:cfout.obj
 0002:000038e8       ??_C@_06IMKFLFPG@1?$CDQNAN?$AA@ 000000018007a8e8     libucrt:cfout.obj
 0002:000038f0       ??_C@_06PGGFOGJG@1?$CDSNAN?$AA@ 000000018007a8f0     libucrt:cfout.obj
 0002:000038f8       ??_C@_05PHHOCPM@1?$CDIND?$AA@ 000000018007a8f8     libucrt:cfout.obj
 0002:00003900       ??_C@_15PJPFLCCM@?$AAu?$AAk?$AA?$AA@ 000000018007a900     libucrt:get_qualified_locale.obj
 0002:00004750       ??_C@_15EMKDOKLE@?$AAa?$AAr?$AA?$AA@ 000000018007b750     libucrt:lcidtoname_downlevel.obj
 0002:00004758       ??_C@_15KNPADPLH@?$AAb?$AAg?$AA?$AA@ 000000018007b758     libucrt:lcidtoname_downlevel.obj
 0002:00004760       ??_C@_15EDMHLDMO@?$AAc?$AAa?$AA?$AA@ 000000018007b760     libucrt:lcidtoname_downlevel.obj
 0002:00004768       ??_C@_1O@BPEAJADD@?$AAz?$AAh?$AA?9?$AAC?$AAH?$AAS?$AA?$AA@ 000000018007b768     libucrt:lcidtoname_downlevel.obj
 0002:00004778       ??_C@_15LJNHCMNK@?$AAc?$AAs?$AA?$AA@ 000000018007b778     libucrt:lcidtoname_downlevel.obj
 0002:00004780       ??_C@_15FOMCIDHG@?$AAd?$AAa?$AA?$AA@ 000000018007b780     libucrt:lcidtoname_downlevel.obj
 0002:00004788       ??_C@_15NBKABECB@?$AAd?$AAe?$AA?$AA@ 000000018007b788     libucrt:lcidtoname_downlevel.obj
 0002:00004790       ??_C@_15GHPEIIAO@?$AAe?$AAl?$AA?$AA@ 000000018007b790     libucrt:lcidtoname_downlevel.obj
 0002:00004798       ??_C@_15MNPNEAIF@?$AAe?$AAn?$AA?$AA@ 000000018007b798     libucrt:lcidtoname_downlevel.obj
 0002:000047a0       ??_C@_15GPIOMPMH@?$AAe?$AAs?$AA?$AA@ 000000018007b7a0     libucrt:lcidtoname_downlevel.obj
 0002:000047a8       ??_C@_15NGLOAKJC@?$AAf?$AAi?$AA?$AA@ 000000018007b7a8     libucrt:lcidtoname_downlevel.obj
 0002:000047b0       ??_C@_15FBKGNKAM@?$AAf?$AAr?$AA?$AA@ 000000018007b7b0     libucrt:lcidtoname_downlevel.obj
 0002:000047b8       ??_C@_15KGGCNEFK@?$AAh?$AAe?$AA?$AA@ 000000018007b7b8     libucrt:lcidtoname_downlevel.obj
 0002:000047c0       ??_C@_15PGHLIDMF@?$AAh?$AAu?$AA?$AA@ 000000018007b7c0     libucrt:lcidtoname_downlevel.obj
 0002:000047c8       ??_C@_15BIEMAPLM@?$AAi?$AAs?$AA?$AA@ 000000018007b7c8     libucrt:lcidtoname_downlevel.obj
 0002:000047d0       ??_C@_15IFJLDHAF@?$AAi?$AAt?$AA?$AA@ 000000018007b7d0     libucrt:lcidtoname_downlevel.obj
 0002:000047d8       ??_C@_15GEMIOCAG@?$AAj?$AAa?$AA?$AA@ 000000018007b7d8     libucrt:lcidtoname_downlevel.obj
 0002:000047e0       ??_C@_15EPELEGJA@?$AAk?$AAo?$AA?$AA@ 000000018007b7e0     libucrt:lcidtoname_downlevel.obj
 0002:000047e8       ??_C@_15NDDHIMN@?$AAn?$AAl?$AA?$AA@ 000000018007b7e8     libucrt:lcidtoname_downlevel.obj
 0002:000047f0       ??_C@_15BPIGNHCD@?$AAn?$AAo?$AA?$AA@ 000000018007b7f0     libucrt:lcidtoname_downlevel.obj
 0002:000047f8       ??_C@_15DEOPBLCG@?$AAp?$AAl?$AA?$AA@ 000000018007b7f8     libucrt:lcidtoname_downlevel.obj
 0002:00004800       ??_C@_15KBECGEFG@?$AAp?$AAt?$AA?$AA@ 000000018007b800     libucrt:lcidtoname_downlevel.obj
 0002:00004808       ??_C@_15GLJCBFMD@?$AAr?$AAo?$AA?$AA@ 000000018007b808     libucrt:lcidtoname_downlevel.obj
 0002:00004810       ??_C@_15FEDGKCDI@?$AAr?$AAu?$AA?$AA@ 000000018007b810     libucrt:lcidtoname_downlevel.obj
 0002:00004818       ??_C@_15GLKMLLHM@?$AAh?$AAr?$AA?$AA@ 000000018007b818     libucrt:lcidtoname_downlevel.obj
 0002:00004820       ??_C@_15CPKMFBDB@?$AAs?$AAk?$AA?$AA@ 000000018007b820     libucrt:lcidtoname_downlevel.obj
 0002:00004828       ??_C@_15BAAIOGMK@?$AAs?$AAq?$AA?$AA@ 000000018007b828     libucrt:lcidtoname_downlevel.obj
 0002:00004830       ??_C@_15INNPNOHD@?$AAs?$AAv?$AA?$AA@ 000000018007b830     libucrt:lcidtoname_downlevel.obj
 0002:00004838       ??_C@_15CABMMOGH@?$AAt?$AAh?$AA?$AA@ 000000018007b838     libucrt:lcidtoname_downlevel.obj
 0002:00004840       ??_C@_15BPLIHJJM@?$AAt?$AAr?$AA?$AA@ 000000018007b840     libucrt:lcidtoname_downlevel.obj
 0002:00004848       ??_C@_15NEOEKKDJ@?$AAu?$AAr?$AA?$AA@ 000000018007b848     libucrt:lcidtoname_downlevel.obj
 0002:00004850       ??_C@_15NFICGAJK@?$AAi?$AAd?$AA?$AA@ 000000018007b850     libucrt:lcidtoname_downlevel.obj
 0002:00004858       ??_C@_15HPJPHDM@?$AAb?$AAe?$AA?$AA@ 000000018007b858     libucrt:lcidtoname_downlevel.obj
 0002:00004860       ??_C@_15LCHLGJII@?$AAs?$AAl?$AA?$AA@ 000000018007b860     libucrt:lcidtoname_downlevel.obj
 0002:00004868       ??_C@_15PCFJPHHO@?$AAe?$AAt?$AA?$AA@ 000000018007b868     libucrt:lcidtoname_downlevel.obj
 0002:00004870       ??_C@_15HPFPGODN@?$AAl?$AAv?$AA?$AA@ 000000018007b870     libucrt:lcidtoname_downlevel.obj
 0002:00004878       ??_C@_15NFFGKGLG@?$AAl?$AAt?$AA?$AA@ 000000018007b878     libucrt:lcidtoname_downlevel.obj
 0002:00004880       ??_C@_15BDAKCCHN@?$AAf?$AAa?$AA?$AA@ 000000018007b880     libucrt:lcidtoname_downlevel.obj
 0002:00004888       ??_C@_15NFGIAIAJ@?$AAv?$AAi?$AA?$AA@ 000000018007b888     libucrt:lcidtoname_downlevel.obj
 0002:00004890       ??_C@_15LMKNDMHN@?$AAh?$AAy?$AA?$AA@ 000000018007b890     libucrt:lcidtoname_downlevel.obj
 0002:00004898       ??_C@_15IJBHMCFL@?$AAa?$AAz?$AA?$AA@ 000000018007b898     libucrt:lcidtoname_downlevel.obj
 0002:000048a0       ??_C@_15EKOFJABL@?$AAe?$AAu?$AA?$AA@ 000000018007b8a0     libucrt:lcidtoname_downlevel.obj
 0002:000048a8       ??_C@_15BGHADCNK@?$AAm?$AAk?$AA?$AA@ 000000018007b8a8     libucrt:lcidtoname_downlevel.obj
 0002:000048b0       ??_C@_15JDNICKHM@?$AAa?$AAf?$AA?$AA@ 000000018007b8b0     libucrt:lcidtoname_downlevel.obj
 0002:000048b8       ??_C@_15KPJEDBKD@?$AAk?$AAa?$AA?$AA@ 000000018007b8b8     libucrt:lcidtoname_downlevel.obj
 0002:000048c0       ??_C@_15PDNFFFEO@?$AAf?$AAo?$AA?$AA@ 000000018007b8c0     libucrt:lcidtoname_downlevel.obj
 0002:000048c8       ??_C@_15OMLEGLOC@?$AAh?$AAi?$AA?$AA@ 000000018007b8c8     libucrt:lcidtoname_downlevel.obj
 0002:000048d0       ??_C@_15IDNNENKK@?$AAm?$AAs?$AA?$AA@ 000000018007b8d0     libucrt:lcidtoname_downlevel.obj
 0002:000048d8       ??_C@_15MACJNBMH@?$AAk?$AAk?$AA?$AA@ 000000018007b8d8     libucrt:lcidtoname_downlevel.obj
 0002:000048e0       ??_C@_15DKDJEOND@?$AAk?$AAy?$AA?$AA@ 000000018007b8e0     libucrt:lcidtoname_downlevel.obj
 0002:000048e8       ??_C@_15DFGDLJBG@?$AAs?$AAw?$AA?$AA@ 000000018007b8e8     libucrt:lcidtoname_downlevel.obj
 0002:000048f0       ??_C@_15BBFAICNG@?$AAu?$AAz?$AA?$AA@ 000000018007b8f0     libucrt:lcidtoname_downlevel.obj
 0002:000048f8       ??_C@_15DKNDCGEA@?$AAt?$AAt?$AA?$AA@ 000000018007b8f8     libucrt:lcidtoname_downlevel.obj
 0002:00004900       ??_C@_15MGIFMDPL@?$AAp?$AAa?$AA?$AA@ 000000018007b900     libucrt:lcidtoname_downlevel.obj
 0002:00004908       ??_C@_15HCNDBBA@?$AAg?$AAu?$AA?$AA@ 000000018007b908     libucrt:lcidtoname_downlevel.obj
 0002:00004910       ??_C@_15FNBEIBON@?$AAt?$AAa?$AA?$AA@ 000000018007b910     libucrt:lcidtoname_downlevel.obj
 0002:00004918       ??_C@_15NCHGBGLK@?$AAt?$AAe?$AA?$AA@ 000000018007b918     libucrt:lcidtoname_downlevel.obj
 0002:00004920       ??_C@_15PHPHCBPF@?$AAk?$AAn?$AA?$AA@ 000000018007b920     libucrt:lcidtoname_downlevel.obj
 0002:00004928       ??_C@_15DLGBCKMP@?$AAm?$AAr?$AA?$AA@ 000000018007b928     libucrt:lcidtoname_downlevel.obj
 0002:00004930       ??_C@_15EABBLBFF@?$AAs?$AAa?$AA?$AA@ 000000018007b930     libucrt:lcidtoname_downlevel.obj
 0002:00004938       ??_C@_15CBKOMCOI@?$AAm?$AAn?$AA?$AA@ 000000018007b938     libucrt:lcidtoname_downlevel.obj
 0002:00004940       ??_C@_15CKDMCJAF@?$AAg?$AAl?$AA?$AA@ 000000018007b940     libucrt:lcidtoname_downlevel.obj
 0002:00004948       ??_C@_17CNJFBPG@?$AAk?$AAo?$AAk?$AA?$AA@ 000000018007b948     libucrt:lcidtoname_downlevel.obj
 0002:00004950       ??_C@_17FFBJICPL@?$AAs?$AAy?$AAr?$AA?$AA@ 000000018007b950     libucrt:lcidtoname_downlevel.obj
 0002:00004958       ??_C@_17KPNDCPAF@?$AAd?$AAi?$AAv?$AA?$AA@ 000000018007b958     libucrt:lcidtoname_downlevel.obj
 0002:00004960       ??_C@_11LOCGONAA@?$AA?$AA@ 000000018007b960     libucrt:lcidtoname_downlevel.obj
 0002:00004968       ??_C@_1M@OKAHONE@?$AAa?$AAr?$AA?9?$AAS?$AAA?$AA?$AA@ 000000018007b968     libucrt:lcidtoname_downlevel.obj
 0002:00004978       ??_C@_1M@FFFIGIGK@?$AAb?$AAg?$AA?9?$AAB?$AAG?$AA?$AA@ 000000018007b978     libucrt:lcidtoname_downlevel.obj
 0002:00004988       ??_C@_1M@BJNKEDC@?$AAc?$AAa?$AA?9?$AAE?$AAS?$AA?$AA@ 000000018007b988     libucrt:lcidtoname_downlevel.obj
 0002:00004998       ??_C@_1M@IJJHFJHA@?$AAc?$AAs?$AA?9?$AAC?$AAZ?$AA?$AA@ 000000018007b998     libucrt:lcidtoname_downlevel.obj
 0002:000049a8       ??_C@_1M@CLPEOBGI@?$AAd?$AAa?$AA?9?$AAD?$AAK?$AA?$AA@ 000000018007b9a8     libucrt:lcidtoname_downlevel.obj
 0002:000049b8       ??_C@_1M@MCMADGCB@?$AAd?$AAe?$AA?9?$AAD?$AAE?$AA?$AA@ 000000018007b9b8     libucrt:lcidtoname_downlevel.obj
 0002:000049c8       ??_C@_1M@OOCKEMAM@?$AAe?$AAl?$AA?9?$AAG?$AAR?$AA?$AA@ 000000018007b9c8     libucrt:lcidtoname_downlevel.obj
 0002:000049d8       ??_C@_1M@DDNJFGID@?$AAf?$AAi?$AA?9?$AAF?$AAI?$AA?$AA@ 000000018007b9d8     libucrt:lcidtoname_downlevel.obj
 0002:000049e8       ??_C@_1M@GLIPPMAC@?$AAf?$AAr?$AA?9?$AAF?$AAR?$AA?$AA@ 000000018007b9e8     libucrt:lcidtoname_downlevel.obj
 0002:000049f8       ??_C@_1M@GFMCHPE@?$AAh?$AAe?$AA?9?$AAI?$AAL?$AA?$AA@ 000000018007b9f8     libucrt:lcidtoname_downlevel.obj
 0002:00004a08       ??_C@_1M@MHLPGNKM@?$AAh?$AAu?$AA?9?$AAH?$AAU?$AA?$AA@ 000000018007ba08     libucrt:lcidtoname_downlevel.obj
 0002:00004a18       ??_C@_1M@LPDDNNPN@?$AAi?$AAs?$AA?9?$AAI?$AAS?$AA?$AA@ 000000018007ba18     libucrt:lcidtoname_downlevel.obj
 0002:00004a28       ??_C@_1M@MADIPODN@?$AAi?$AAt?$AA?9?$AAI?$AAT?$AA?$AA@ 000000018007ba28     libucrt:lcidtoname_downlevel.obj
 0002:00004a38       ??_C@_1M@IHBJJGG@?$AAn?$AAl?$AA?9?$AAN?$AAL?$AA?$AA@ 000000018007ba38     libucrt:lcidtoname_downlevel.obj
 0002:00004a48       ??_C@_1M@EANAGDL@?$AAn?$AAb?$AA?9?$AAN?$AAO?$AA?$AA@ 000000018007ba48     libucrt:lcidtoname_downlevel.obj
 0002:00004a58       ??_C@_1M@NEIEMEGP@?$AAp?$AAl?$AA?9?$AAP?$AAL?$AA?$AA@ 000000018007ba58     libucrt:lcidtoname_downlevel.obj
 0002:00004a68       ??_C@_1M@BOCFIGEP@?$AAp?$AAt?$AA?9?$AAB?$AAR?$AA?$AA@ 000000018007ba68     libucrt:lcidtoname_downlevel.obj
 0002:00004a78       ??_C@_1M@IMPFOPBG@?$AAr?$AAo?$AA?9?$AAR?$AAO?$AA?$AA@ 000000018007ba78     libucrt:lcidtoname_downlevel.obj
 0002:00004a88       ??_C@_1M@IDNNEJMM@?$AAr?$AAu?$AA?9?$AAR?$AAU?$AA?$AA@ 000000018007ba88     libucrt:lcidtoname_downlevel.obj
 0002:00004a98       ??_C@_1M@LILEEOGM@?$AAh?$AAr?$AA?9?$AAH?$AAR?$AA?$AA@ 000000018007ba98     libucrt:lcidtoname_downlevel.obj
 0002:00004aa8       ??_C@_1M@FKIFEHPB@?$AAs?$AAk?$AA?9?$AAS?$AAK?$AA?$AA@ 000000018007baa8     libucrt:lcidtoname_downlevel.obj
 0002:00004ab8       ??_C@_1M@LJMAMNPJ@?$AAs?$AAq?$AA?9?$AAA?$AAL?$AA?$AA@ 000000018007bab8     libucrt:lcidtoname_downlevel.obj
 0002:00004ac8       ??_C@_1M@GIAKDKJK@?$AAs?$AAv?$AA?9?$AAS?$AAE?$AA?$AA@ 000000018007bac8     libucrt:lcidtoname_downlevel.obj
 0002:00004ad8       ??_C@_1M@MKJKIKCL@?$AAt?$AAh?$AA?9?$AAT?$AAH?$AA?$AA@ 000000018007bad8     libucrt:lcidtoname_downlevel.obj
 0002:00004ae8       ??_C@_1M@MFLCCMPB@?$AAt?$AAr?$AA?9?$AAT?$AAR?$AA?$AA@ 000000018007bae8     libucrt:lcidtoname_downlevel.obj
 0002:00004af8       ??_C@_1M@OIJHDKJN@?$AAu?$AAr?$AA?9?$AAP?$AAK?$AA?$AA@ 000000018007baf8     libucrt:lcidtoname_downlevel.obj
 0002:00004b08       ??_C@_1M@LHIPCIEK@?$AAi?$AAd?$AA?9?$AAI?$AAD?$AA?$AA@ 000000018007bb08     libucrt:lcidtoname_downlevel.obj
 0002:00004b18       ??_C@_1M@MFMOBGI@?$AAu?$AAk?$AA?9?$AAU?$AAA?$AA?$AA@ 000000018007bb18     libucrt:lcidtoname_downlevel.obj
 0002:00004b28       ??_C@_1M@OBGLJIPL@?$AAb?$AAe?$AA?9?$AAB?$AAY?$AA?$AA@ 000000018007bb28     libucrt:lcidtoname_downlevel.obj
 0002:00004b38       ??_C@_1M@BCFAJEAD@?$AAs?$AAl?$AA?9?$AAS?$AAI?$AA?$AA@ 000000018007bb38     libucrt:lcidtoname_downlevel.obj
 0002:00004b48       ??_C@_1M@FKFFEDDN@?$AAe?$AAt?$AA?9?$AAE?$AAE?$AA?$AA@ 000000018007bb48     libucrt:lcidtoname_downlevel.obj
 0002:00004b58       ??_C@_1M@KGKKAACI@?$AAl?$AAv?$AA?9?$AAL?$AAV?$AA?$AA@ 000000018007bb58     libucrt:lcidtoname_downlevel.obj
 0002:00004b68       ??_C@_1M@IFGBIJO@?$AAl?$AAt?$AA?9?$AAL?$AAT?$AA?$AA@ 000000018007bb68     libucrt:lcidtoname_downlevel.obj
 0002:00004b78       ??_C@_1M@FGEAHEDM@?$AAf?$AAa?$AA?9?$AAI?$AAR?$AA?$AA@ 000000018007bb78     libucrt:lcidtoname_downlevel.obj
 0002:00004b88       ??_C@_1M@KBMAIBFN@?$AAv?$AAi?$AA?9?$AAV?$AAN?$AA?$AA@ 000000018007bb88     libucrt:lcidtoname_downlevel.obj
 0002:00004b98       ??_C@_1M@GPCBKDJK@?$AAh?$AAy?$AA?9?$AAA?$AAM?$AA?$AA@ 000000018007bb98     libucrt:lcidtoname_downlevel.obj
 0002:00004ba8       ??_C@_1BG@BECMDDJB@?$AAa?$AAz?$AA?9?$AAA?$AAZ?$AA?9?$AAL?$AAa?$AAt?$AAn?$AA?$AA@ 000000018007bba8     libucrt:lcidtoname_downlevel.obj
 0002:00004bc0       ??_C@_1M@MAOFCAEA@?$AAe?$AAu?$AA?9?$AAE?$AAS?$AA?$AA@ 000000018007bbc0     libucrt:lcidtoname_downlevel.obj
 0002:00004bd0       ??_C@_1M@IGHABKPI@?$AAm?$AAk?$AA?9?$AAM?$AAK?$AA?$AA@ 000000018007bbd0     libucrt:lcidtoname_downlevel.obj
 0002:00004be0       ??_C@_1M@IAIGNEJG@?$AAt?$AAn?$AA?9?$AAZ?$AAA?$AA?$AA@ 000000018007bbe0     libucrt:lcidtoname_downlevel.obj
 0002:00004bf0       ??_C@_1M@IIJCOJFA@?$AAx?$AAh?$AA?9?$AAZ?$AAA?$AA?$AA@ 000000018007bbf0     libucrt:lcidtoname_downlevel.obj
 0002:00004c00       ??_C@_1M@LGPJHNJH@?$AAz?$AAu?$AA?9?$AAZ?$AAA?$AA?$AA@ 000000018007bc00     libucrt:lcidtoname_downlevel.obj
 0002:00004c10       ??_C@_1M@HOKAOIO@?$AAa?$AAf?$AA?9?$AAZ?$AAA?$AA?$AA@ 000000018007bc10     libucrt:lcidtoname_downlevel.obj
 0002:00004c20       ??_C@_1M@DPCLHLIE@?$AAk?$AAa?$AA?9?$AAG?$AAE?$AA?$AA@ 000000018007bc20     libucrt:lcidtoname_downlevel.obj
 0002:00004c30       ??_C@_1M@BLKMHJBI@?$AAf?$AAo?$AA?9?$AAF?$AAO?$AA?$AA@ 000000018007bc30     libucrt:lcidtoname_downlevel.obj
 0002:00004c40       ??_C@_1M@LGGJAPPB@?$AAh?$AAi?$AA?9?$AAI?$AAN?$AA?$AA@ 000000018007bc40     libucrt:lcidtoname_downlevel.obj
 0002:00004c50       ??_C@_1M@FIKPIHFE@?$AAm?$AAt?$AA?9?$AAM?$AAT?$AA?$AA@ 000000018007bc50     libucrt:lcidtoname_downlevel.obj
 0002:00004c60       ??_C@_1M@HEGGPBFA@?$AAs?$AAe?$AA?9?$AAN?$AAO?$AA?$AA@ 000000018007bc60     libucrt:lcidtoname_downlevel.obj
 0002:00004c70       ??_C@_1M@EIBJEEPA@?$AAm?$AAs?$AA?9?$AAM?$AAY?$AA?$AA@ 000000018007bc70     libucrt:lcidtoname_downlevel.obj
 0002:00004c80       ??_C@_1M@FHLBGMPP@?$AAk?$AAk?$AA?9?$AAK?$AAZ?$AA?$AA@ 000000018007bc80     libucrt:lcidtoname_downlevel.obj
 0002:00004c90       ??_C@_1M@NGJJLCGI@?$AAk?$AAy?$AA?9?$AAK?$AAG?$AA?$AA@ 000000018007bc90     libucrt:lcidtoname_downlevel.obj
 0002:00004ca0       ??_C@_1M@GIENNBFC@?$AAs?$AAw?$AA?9?$AAK?$AAE?$AA?$AA@ 000000018007bca0     libucrt:lcidtoname_downlevel.obj
 0002:00004cb0       ??_C@_1BG@NDGMJIMJ@?$AAu?$AAz?$AA?9?$AAU?$AAZ?$AA?9?$AAL?$AAa?$AAt?$AAn?$AA?$AA@ 000000018007bcb0     libucrt:lcidtoname_downlevel.obj
 0002:00004cc8       ??_C@_1M@IDCCIHBC@?$AAt?$AAt?$AA?9?$AAR?$AAU?$AA?$AA@ 000000018007bcc8     libucrt:lcidtoname_downlevel.obj
 0002:00004cd8       ??_C@_1M@LOICPMOJ@?$AAb?$AAn?$AA?9?$AAI?$AAN?$AA?$AA@ 000000018007bcd8     libucrt:lcidtoname_downlevel.obj
 0002:00004ce8       ??_C@_1M@KPKKNEAH@?$AAp?$AAa?$AA?9?$AAI?$AAN?$AA?$AA@ 000000018007bce8     libucrt:lcidtoname_downlevel.obj
 0002:00004cf8       ??_C@_1M@PJGPPBOG@?$AAg?$AAu?$AA?9?$AAI?$AAN?$AA?$AA@ 000000018007bcf8     libucrt:lcidtoname_downlevel.obj
 0002:00004d08       ??_C@_1M@KMKMOPHI@?$AAt?$AAa?$AA?9?$AAI?$AAN?$AA?$AA@ 000000018007bd08     libucrt:lcidtoname_downlevel.obj
 0002:00004d18       ??_C@_1M@KFEHEPAC@?$AAt?$AAe?$AA?9?$AAI?$AAN?$AA?$AA@ 000000018007bd18     libucrt:lcidtoname_downlevel.obj
 0002:00004d28       ??_C@_1M@CDCLMGHI@?$AAk?$AAn?$AA?9?$AAI?$AAN?$AA?$AA@ 000000018007bd28     libucrt:lcidtoname_downlevel.obj
 0002:00004d38       ??_C@_1M@MIODLDKF@?$AAm?$AAl?$AA?9?$AAI?$AAN?$AA?$AA@ 000000018007bd38     libucrt:lcidtoname_downlevel.obj
 0002:00004d48       ??_C@_1M@PBIEACPO@?$AAm?$AAr?$AA?9?$AAI?$AAN?$AA?$AA@ 000000018007bd48     libucrt:lcidtoname_downlevel.obj
 0002:00004d58       ??_C@_1M@NIDEAGPH@?$AAs?$AAa?$AA?9?$AAI?$AAN?$AA?$AA@ 000000018007bd58     libucrt:lcidtoname_downlevel.obj
 0002:00004d68       ??_C@_1M@FHIHCBIO@?$AAm?$AAn?$AA?9?$AAM?$AAN?$AA?$AA@ 000000018007bd68     libucrt:lcidtoname_downlevel.obj
 0002:00004d78       ??_C@_1M@JAIJPENP@?$AAc?$AAy?$AA?9?$AAG?$AAB?$AA?$AA@ 000000018007bd78     libucrt:lcidtoname_downlevel.obj
 0002:00004d88       ??_C@_1M@PHGFBEPN@?$AAg?$AAl?$AA?9?$AAE?$AAS?$AA?$AA@ 000000018007bd88     libucrt:lcidtoname_downlevel.obj
 0002:00004d98       ??_C@_1O@KPIPDNCP@?$AAk?$AAo?$AAk?$AA?9?$AAI?$AAN?$AA?$AA@ 000000018007bd98     libucrt:lcidtoname_downlevel.obj
 0002:00004da8       ??_C@_1O@KNHJLDJA@?$AAs?$AAy?$AAr?$AA?9?$AAS?$AAY?$AA?$AA@ 000000018007bda8     libucrt:lcidtoname_downlevel.obj
 0002:00004db8       ??_C@_1O@MKEKBLAH@?$AAd?$AAi?$AAv?$AA?9?$AAM?$AAV?$AA?$AA@ 000000018007bdb8     libucrt:lcidtoname_downlevel.obj
 0002:00004dc8       ??_C@_1O@OHDCKDDF@?$AAq?$AAu?$AAz?$AA?9?$AAB?$AAO?$AA?$AA@ 000000018007bdc8     libucrt:lcidtoname_downlevel.obj
 0002:00004dd8       ??_C@_1M@LEPJNLFD@?$AAn?$AAs?$AA?9?$AAZ?$AAA?$AA?$AA@ 000000018007bdd8     libucrt:lcidtoname_downlevel.obj
 0002:00004de8       ??_C@_1M@OMLEIIJB@?$AAm?$AAi?$AA?9?$AAN?$AAZ?$AA?$AA@ 000000018007bde8     libucrt:lcidtoname_downlevel.obj
 0002:00004df8       ??_C@_1M@PMPEAILG@?$AAa?$AAr?$AA?9?$AAI?$AAQ?$AA?$AA@ 000000018007bdf8     libucrt:lcidtoname_downlevel.obj
 0002:00004e08       ??_C@_1M@CNKPNOEE@?$AAd?$AAe?$AA?9?$AAC?$AAH?$AA?$AA@ 000000018007be08     libucrt:lcidtoname_downlevel.obj
 0002:00004e18       ??_C@_1M@LKMGMLKO@?$AAe?$AAn?$AA?9?$AAG?$AAB?$AA?$AA@ 000000018007be18     libucrt:lcidtoname_downlevel.obj
 0002:00004e28       ??_C@_1M@PGKJFFGL@?$AAe?$AAs?$AA?9?$AAM?$AAX?$AA?$AA@ 000000018007be28     libucrt:lcidtoname_downlevel.obj
 0002:00004e38       ??_C@_1M@DNNANBDC@?$AAf?$AAr?$AA?9?$AAB?$AAE?$AA?$AA@ 000000018007be38     libucrt:lcidtoname_downlevel.obj
 0002:00004e48       ??_C@_1M@HLGMDFHM@?$AAi?$AAt?$AA?9?$AAC?$AAH?$AA?$AA@ 000000018007be48     libucrt:lcidtoname_downlevel.obj
 0002:00004e58       ??_C@_1M@CLLBGJH@?$AAn?$AAl?$AA?9?$AAB?$AAE?$AA?$AA@ 000000018007be58     libucrt:lcidtoname_downlevel.obj
 0002:00004e68       ??_C@_1M@BODBOGLF@?$AAn?$AAn?$AA?9?$AAN?$AAO?$AA?$AA@ 000000018007be68     libucrt:lcidtoname_downlevel.obj
 0002:00004e78       ??_C@_1M@HFFAHKAD@?$AAp?$AAt?$AA?9?$AAP?$AAT?$AA?$AA@ 000000018007be78     libucrt:lcidtoname_downlevel.obj
 0002:00004e88       ??_C@_1BG@LNOAKHIE@?$AAs?$AAr?$AA?9?$AAS?$AAP?$AA?9?$AAL?$AAa?$AAt?$AAn?$AA?$AA@ 000000018007be88     libucrt:lcidtoname_downlevel.obj
 0002:00004ea0       ??_C@_1M@HBMHBGAK@?$AAs?$AAv?$AA?9?$AAF?$AAI?$AA?$AA@ 000000018007bea0     libucrt:lcidtoname_downlevel.obj
 0002:00004eb0       ??_C@_1BG@DGCJGJBE@?$AAa?$AAz?$AA?9?$AAA?$AAZ?$AA?9?$AAC?$AAy?$AAr?$AAl?$AA?$AA@ 000000018007beb0     libucrt:lcidtoname_downlevel.obj
 0002:00004ec8       ??_C@_1M@KEJDAAHB@?$AAs?$AAe?$AA?9?$AAS?$AAE?$AA?$AA@ 000000018007bec8     libucrt:lcidtoname_downlevel.obj
 0002:00004ed8       ??_C@_1M@HEIBJJAD@?$AAm?$AAs?$AA?9?$AAB?$AAN?$AA?$AA@ 000000018007bed8     libucrt:lcidtoname_downlevel.obj
 0002:00004ee8       ??_C@_1BG@PBGJMCEM@?$AAu?$AAz?$AA?9?$AAU?$AAZ?$AA?9?$AAC?$AAy?$AAr?$AAl?$AA?$AA@ 000000018007bee8     libucrt:lcidtoname_downlevel.obj
 0002:00004f00       ??_C@_1O@LAOBCMDF@?$AAq?$AAu?$AAz?$AA?9?$AAE?$AAC?$AA?$AA@ 000000018007bf00     libucrt:lcidtoname_downlevel.obj
 0002:00004f10       ??_C@_1M@POEEMAIO@?$AAa?$AAr?$AA?9?$AAE?$AAG?$AA?$AA@ 000000018007bf10     libucrt:lcidtoname_downlevel.obj
 0002:00004f20       ??_C@_1M@EFAKDEDL@?$AAz?$AAh?$AA?9?$AAH?$AAK?$AA?$AA@ 000000018007bf20     libucrt:lcidtoname_downlevel.obj
 0002:00004f30       ??_C@_1M@HKKIJHGI@?$AAd?$AAe?$AA?9?$AAA?$AAT?$AA?$AA@ 000000018007bf30     libucrt:lcidtoname_downlevel.obj
 0002:00004f40       ??_C@_1M@KBFBEHJF@?$AAe?$AAn?$AA?9?$AAA?$AAU?$AA?$AA@ 000000018007bf40     libucrt:lcidtoname_downlevel.obj
 0002:00004f50       ??_C@_1M@MNPLFAAH@?$AAe?$AAs?$AA?9?$AAE?$AAS?$AA?$AA@ 000000018007bf50     libucrt:lcidtoname_downlevel.obj
 0002:00004f60       ??_C@_1M@HJOOJFMA@?$AAf?$AAr?$AA?9?$AAC?$AAA?$AA?$AA@ 000000018007bf60     libucrt:lcidtoname_downlevel.obj
 0002:00004f70       ??_C@_1BG@JPOFPNAB@?$AAs?$AAr?$AA?9?$AAS?$AAP?$AA?9?$AAC?$AAy?$AAr?$AAl?$AA?$AA@ 000000018007bf70     libucrt:lcidtoname_downlevel.obj
 0002:00004f88       ??_C@_1M@LNFOCMOB@?$AAs?$AAe?$AA?9?$AAF?$AAI?$AA?$AA@ 000000018007bf88     libucrt:lcidtoname_downlevel.obj
 0002:00004f98       ??_C@_1O@MGJBOAMB@?$AAq?$AAu?$AAz?$AA?9?$AAP?$AAE?$AA?$AA@ 000000018007bf98     libucrt:lcidtoname_downlevel.obj
 0002:00004fa8       ??_C@_1M@GJINLBOK@?$AAa?$AAr?$AA?9?$AAL?$AAY?$AA?$AA@ 000000018007bfa8     libucrt:lcidtoname_downlevel.obj
 0002:00004fb8       ??_C@_1M@GGMNHJNL@?$AAz?$AAh?$AA?9?$AAS?$AAG?$AA?$AA@ 000000018007bfb8     libucrt:lcidtoname_downlevel.obj
 0002:00004fc8       ??_C@_1M@HOIKODND@?$AAd?$AAe?$AA?9?$AAL?$AAU?$AA?$AA@ 000000018007bfc8     libucrt:lcidtoname_downlevel.obj
 0002:00004fd8       ??_C@_1M@DDOCCGFG@?$AAe?$AAn?$AA?9?$AAC?$AAA?$AA?$AA@ 000000018007bfd8     libucrt:lcidtoname_downlevel.obj
 0002:00004fe8       ??_C@_1M@BNOEMJLF@?$AAe?$AAs?$AA?9?$AAG?$AAT?$AA?$AA@ 000000018007bfe8     libucrt:lcidtoname_downlevel.obj
 0002:00004ff8       ??_C@_1M@EOGNKEK@?$AAf?$AAr?$AA?9?$AAC?$AAH?$AA?$AA@ 000000018007bff8     libucrt:lcidtoname_downlevel.obj
 0002:00005008       ??_C@_1M@FLIDJFHL@?$AAh?$AAr?$AA?9?$AAB?$AAA?$AA?$AA@ 000000018007c008     libucrt:lcidtoname_downlevel.obj
 0002:00005018       ??_C@_1O@FMCELNAJ@?$AAs?$AAm?$AAj?$AA?9?$AAN?$AAO?$AA?$AA@ 000000018007c018     libucrt:lcidtoname_downlevel.obj
 0002:00005028       ??_C@_1M@JHGLJMGJ@?$AAa?$AAr?$AA?9?$AAD?$AAZ?$AA?$AA@ 000000018007c028     libucrt:lcidtoname_downlevel.obj
 0002:00005038       ??_C@_1M@JKKFDCNP@?$AAz?$AAh?$AA?9?$AAM?$AAO?$AA?$AA@ 000000018007c038     libucrt:lcidtoname_downlevel.obj
 0002:00005048       ??_C@_1M@GEEFALPE@?$AAd?$AAe?$AA?9?$AAL?$AAI?$AA?$AA@ 000000018007c048     libucrt:lcidtoname_downlevel.obj
 0002:00005058       ??_C@_1M@IGEOFBG@?$AAe?$AAn?$AA?9?$AAN?$AAZ?$AA?$AA@ 000000018007c058     libucrt:lcidtoname_downlevel.obj
 0002:00005068       ??_C@_1M@KDBONEHP@?$AAe?$AAs?$AA?9?$AAC?$AAR?$AA?$AA@ 000000018007c068     libucrt:lcidtoname_downlevel.obj
 0002:00005078       ??_C@_1M@FHMDOHNN@?$AAf?$AAr?$AA?9?$AAL?$AAU?$AA?$AA@ 000000018007c078     libucrt:lcidtoname_downlevel.obj
 0002:00005088       ??_C@_1BG@NFKKMAFG@?$AAb?$AAs?$AA?9?$AAB?$AAA?$AA?9?$AAL?$AAa?$AAt?$AAn?$AA?$AA@ 000000018007c088     libucrt:lcidtoname_downlevel.obj
 0002:000050a0       ??_C@_1O@IMNBEMCI@?$AAs?$AAm?$AAj?$AA?9?$AAS?$AAE?$AA?$AA@ 000000018007c0a0     libucrt:lcidtoname_downlevel.obj
 0002:000050b0       ??_C@_1M@DHHMBNDP@?$AAa?$AAr?$AA?9?$AAM?$AAA?$AA?$AA@ 000000018007c0b0     libucrt:lcidtoname_downlevel.obj
 0002:000050c0       ??_C@_1M@BNBLJCGH@?$AAe?$AAn?$AA?9?$AAI?$AAE?$AA?$AA@ 000000018007c0c0     libucrt:lcidtoname_downlevel.obj
 0002:000050d0       ??_C@_1M@GEPAFMDL@?$AAe?$AAs?$AA?9?$AAP?$AAA?$AA?$AA@ 000000018007c0d0     libucrt:lcidtoname_downlevel.obj
 0002:000050e0       ??_C@_1M@OJONDMDL@?$AAf?$AAr?$AA?9?$AAM?$AAC?$AA?$AA@ 000000018007c0e0     libucrt:lcidtoname_downlevel.obj
 0002:000050f0       ??_C@_1BG@OBCNFJB@?$AAs?$AAr?$AA?9?$AAB?$AAA?$AA?9?$AAL?$AAa?$AAt?$AAn?$AA?$AA@ 000000018007c0f0     libucrt:lcidtoname_downlevel.obj
 0002:00005108       ??_C@_1O@KEMEEGPO@?$AAs?$AAm?$AAa?$AA?9?$AAN?$AAO?$AA?$AA@ 000000018007c108     libucrt:lcidtoname_downlevel.obj
 0002:00005118       ??_C@_1M@ELMGFODK@?$AAa?$AAr?$AA?9?$AAT?$AAN?$AA?$AA@ 000000018007c118     libucrt:lcidtoname_downlevel.obj
 0002:00005128       ??_C@_1M@BHDLHFAF@?$AAe?$AAn?$AA?9?$AAZ?$AAA?$AA?$AA@ 000000018007c128     libucrt:lcidtoname_downlevel.obj
 0002:00005138       ??_C@_1M@BMGIGLIF@?$AAe?$AAs?$AA?9?$AAD?$AAO?$AA?$AA@ 000000018007c138     libucrt:lcidtoname_downlevel.obj
 0002:00005148       ??_C@_1BG@CMBHIPBE@?$AAs?$AAr?$AA?9?$AAB?$AAA?$AA?9?$AAC?$AAy?$AAr?$AAl?$AA?$AA@ 000000018007c148     libucrt:lcidtoname_downlevel.obj
 0002:00005160       ??_C@_1O@HEDBLHNP@?$AAs?$AAm?$AAa?$AA?9?$AAS?$AAE?$AA?$AA@ 000000018007c160     libucrt:lcidtoname_downlevel.obj
 0002:00005170       ??_C@_1M@DAGCADIM@?$AAa?$AAr?$AA?9?$AAO?$AAM?$AA?$AA@ 000000018007c170     libucrt:lcidtoname_downlevel.obj
 0002:00005180       ??_C@_1M@FODLMICG@?$AAe?$AAn?$AA?9?$AAJ?$AAM?$AA?$AA@ 000000018007c180     libucrt:lcidtoname_downlevel.obj
 0002:00005190       ??_C@_1M@DNMLCIHB@?$AAe?$AAs?$AA?9?$AAV?$AAE?$AA?$AA@ 000000018007c190     libucrt:lcidtoname_downlevel.obj
 0002:000051a0       ??_C@_1O@EOKHMKJK@?$AAs?$AAm?$AAs?$AA?9?$AAF?$AAI?$AA?$AA@ 000000018007c1a0     libucrt:lcidtoname_downlevel.obj
 0002:000051b0       ??_C@_1M@CAFJMKOF@?$AAa?$AAr?$AA?9?$AAY?$AAE?$AA?$AA@ 000000018007c1b0     libucrt:lcidtoname_downlevel.obj
 0002:000051c0       ??_C@_1M@CBFHIJLI@?$AAe?$AAn?$AA?9?$AAC?$AAB?$AA?$AA@ 000000018007c1c0     libucrt:lcidtoname_downlevel.obj
 0002:000051d0       ??_C@_1M@BGNFLDN@?$AAe?$AAs?$AA?9?$AAC?$AAO?$AA?$AA@ 000000018007c1d0     libucrt:lcidtoname_downlevel.obj
 0002:000051e0       ??_C@_1O@JMPHMAMC@?$AAs?$AAm?$AAn?$AA?9?$AAF?$AAI?$AA?$AA@ 000000018007c1e0     libucrt:lcidtoname_downlevel.obj
 0002:000051f0       ??_C@_1M@JLANABKE@?$AAa?$AAr?$AA?9?$AAS?$AAY?$AA?$AA@ 000000018007c1f0     libucrt:lcidtoname_downlevel.obj
 0002:00005200       ??_C@_1M@HPKGCFGN@?$AAe?$AAn?$AA?9?$AAB?$AAZ?$AA?$AA@ 000000018007c200     libucrt:lcidtoname_downlevel.obj
 0002:00005210       ??_C@_1M@OLJCMLGM@?$AAe?$AAs?$AA?9?$AAP?$AAE?$AA?$AA@ 000000018007c210     libucrt:lcidtoname_downlevel.obj
 0002:00005220       ??_C@_1M@MKKGFKLE@?$AAa?$AAr?$AA?9?$AAJ?$AAO?$AA?$AA@ 000000018007c220     libucrt:lcidtoname_downlevel.obj
 0002:00005230       ??_C@_1M@EKPGLDNI@?$AAe?$AAn?$AA?9?$AAT?$AAT?$AA?$AA@ 000000018007c230     libucrt:lcidtoname_downlevel.obj
 0002:00005240       ??_C@_1M@OONGHFHE@?$AAe?$AAs?$AA?9?$AAA?$AAR?$AA?$AA@ 000000018007c240     libucrt:lcidtoname_downlevel.obj
 0002:00005250       ??_C@_1M@OOJFGBHE@?$AAa?$AAr?$AA?9?$AAL?$AAB?$AA?$AA@ 000000018007c250     libucrt:lcidtoname_downlevel.obj
 0002:00005260       ??_C@_1M@GCEJHNEG@?$AAe?$AAn?$AA?9?$AAZ?$AAW?$AA?$AA@ 000000018007c260     libucrt:lcidtoname_downlevel.obj
 0002:00005270       ??_C@_1M@JNOCAHJI@?$AAe?$AAs?$AA?9?$AAE?$AAC?$AA?$AA@ 000000018007c270     libucrt:lcidtoname_downlevel.obj
 0002:00005280       ??_C@_1M@JEFHPGGB@?$AAa?$AAr?$AA?9?$AAK?$AAW?$AA?$AA@ 000000018007c280     libucrt:lcidtoname_downlevel.obj
 0002:00005290       ??_C@_1M@MLKIBJOJ@?$AAe?$AAn?$AA?9?$AAP?$AAH?$AA?$AA@ 000000018007c290     libucrt:lcidtoname_downlevel.obj
 0002:000052a0       ??_C@_1M@BDNIPEND@?$AAe?$AAs?$AA?9?$AAC?$AAL?$AA?$AA@ 000000018007c2a0     libucrt:lcidtoname_downlevel.obj
 0002:000052b0       ??_C@_1M@MPNMEKBD@?$AAa?$AAr?$AA?9?$AAA?$AAE?$AA?$AA@ 000000018007c2b0     libucrt:lcidtoname_downlevel.obj
 0002:000052c0       ??_C@_1M@KBJALCPI@?$AAe?$AAs?$AA?9?$AAU?$AAY?$AA?$AA@ 000000018007c2c0     libucrt:lcidtoname_downlevel.obj
 0002:000052d0       ??_C@_1M@LLCCOAGA@?$AAa?$AAr?$AA?9?$AAB?$AAH?$AA?$AA@ 000000018007c2d0     libucrt:lcidtoname_downlevel.obj
 0002:000052e0       ??_C@_1M@PBFNCDEL@?$AAe?$AAs?$AA?9?$AAP?$AAY?$AA?$AA@ 000000018007c2e0     libucrt:lcidtoname_downlevel.obj
 0002:000052f0       ??_C@_1M@EDGINPNP@?$AAa?$AAr?$AA?9?$AAQ?$AAA?$AA?$AA@ 000000018007c2f0     libucrt:lcidtoname_downlevel.obj
 0002:00005300       ??_C@_1M@MKDBIIJI@?$AAe?$AAs?$AA?9?$AAB?$AAO?$AA?$AA@ 000000018007c300     libucrt:lcidtoname_downlevel.obj
 0002:00005310       ??_C@_1M@CPKKEBLD@?$AAe?$AAs?$AA?9?$AAS?$AAV?$AA?$AA@ 000000018007c310     libucrt:lcidtoname_downlevel.obj
 0002:00005320       ??_C@_1M@NDBGMMJL@?$AAe?$AAs?$AA?9?$AAH?$AAN?$AA?$AA@ 000000018007c320     libucrt:lcidtoname_downlevel.obj
 0002:00005330       ??_C@_1M@JIJIBHDP@?$AAe?$AAs?$AA?9?$AAN?$AAI?$AA?$AA@ 000000018007c330     libucrt:lcidtoname_downlevel.obj
 0002:00005340       ??_C@_1M@CGFMKEEK@?$AAe?$AAs?$AA?9?$AAP?$AAR?$AA?$AA@ 000000018007c340     libucrt:lcidtoname_downlevel.obj
 0002:00005350       ??_C@_1O@ICJHKIIK@?$AAz?$AAh?$AA?9?$AAC?$AAH?$AAT?$AA?$AA@ 000000018007c350     libucrt:lcidtoname_downlevel.obj
 0002:00005360       ??_C@_15CLNEJCE@?$AAs?$AAr?$AA?$AA@ 000000018007c360     libucrt:lcidtoname_downlevel.obj
 0002:000061b0       ??_C@_1M@KAHEKEIG@?$AAa?$AAf?$AA?9?$AAz?$AAa?$AA?$AA@ 000000018007d1b0     libucrt:lcidtoname_downlevel.obj
 0002:000061c0       ??_C@_1M@GIECOABL@?$AAa?$AAr?$AA?9?$AAa?$AAe?$AA?$AA@ 000000018007d1c0     libucrt:lcidtoname_downlevel.obj
 0002:000061d0       ??_C@_1M@BMLMEKGI@?$AAa?$AAr?$AA?9?$AAb?$AAh?$AA?$AA@ 000000018007d1d0     libucrt:lcidtoname_downlevel.obj
 0002:000061e0       ??_C@_1M@DAPFDGGB@?$AAa?$AAr?$AA?9?$AAd?$AAz?$AA?$AA@ 000000018007d1e0     libucrt:lcidtoname_downlevel.obj
 0002:000061f0       ??_C@_1M@FJNKGKIG@?$AAa?$AAr?$AA?9?$AAe?$AAg?$AA?$AA@ 000000018007d1f0     libucrt:lcidtoname_downlevel.obj
 0002:00006200       ??_C@_1M@FLGKKCLO@?$AAa?$AAr?$AA?9?$AAi?$AAq?$AA?$AA@ 000000018007d200     libucrt:lcidtoname_downlevel.obj
 0002:00006210       ??_C@_1M@GNDIPALM@?$AAa?$AAr?$AA?9?$AAj?$AAo?$AA?$AA@ 000000018007d210     libucrt:lcidtoname_downlevel.obj
 0002:00006220       ??_C@_1M@DDMJFMGJ@?$AAa?$AAr?$AA?9?$AAk?$AAw?$AA?$AA@ 000000018007d220     libucrt:lcidtoname_downlevel.obj
 0002:00006230       ??_C@_1M@EJALMLHM@?$AAa?$AAr?$AA?9?$AAl?$AAb?$AA?$AA@ 000000018007d230     libucrt:lcidtoname_downlevel.obj
 0002:00006240       ??_C@_1M@MOBDBLOC@?$AAa?$AAr?$AA?9?$AAl?$AAy?$AA?$AA@ 000000018007d240     libucrt:lcidtoname_downlevel.obj
 0002:00006250       ??_C@_1M@JAOCLHDH@?$AAa?$AAr?$AA?9?$AAm?$AAa?$AA?$AA@ 000000018007d250     libucrt:lcidtoname_downlevel.obj
 0002:00006260       ??_C@_1M@JHPMKJIE@?$AAa?$AAr?$AA?9?$AAo?$AAm?$AA?$AA@ 000000018007d260     libucrt:lcidtoname_downlevel.obj
 0002:00006270       ??_C@_1M@OEPGHFNH@?$AAa?$AAr?$AA?9?$AAq?$AAa?$AA?$AA@ 000000018007d270     libucrt:lcidtoname_downlevel.obj
 0002:00006280       ??_C@_1M@KJDONENM@?$AAa?$AAr?$AA?9?$AAs?$AAa?$AA?$AA@ 000000018007d280     libucrt:lcidtoname_downlevel.obj
 0002:00006290       ??_C@_1M@DMJDKLKM@?$AAa?$AAr?$AA?9?$AAs?$AAy?$AA?$AA@ 000000018007d290     libucrt:lcidtoname_downlevel.obj
 0002:000062a0       ??_C@_1M@OMFIPEDC@?$AAa?$AAr?$AA?9?$AAt?$AAn?$AA?$AA@ 000000018007d2a0     libucrt:lcidtoname_downlevel.obj
 0002:000062b0       ??_C@_1M@IHMHGAON@?$AAa?$AAr?$AA?9?$AAy?$AAe?$AA?$AA@ 000000018007d2b0     libucrt:lcidtoname_downlevel.obj
 0002:000062c0       ??_C@_1BG@KDCPGJGB@?$AAa?$AAz?$AA?9?$AAa?$AAz?$AA?9?$AAc?$AAy?$AAr?$AAl?$AA?$AA@ 000000018007d2c0     libucrt:lcidtoname_downlevel.obj
 0002:000062d8       ??_C@_1BG@IBCKDDOE@?$AAa?$AAz?$AA?9?$AAa?$AAz?$AA?9?$AAl?$AAa?$AAt?$AAn?$AA?$AA@ 000000018007d2d8     libucrt:lcidtoname_downlevel.obj
 0002:000062f0       ??_C@_1M@EGPFDCPD@?$AAb?$AAe?$AA?9?$AAb?$AAy?$AA?$AA@ 000000018007d2f0     libucrt:lcidtoname_downlevel.obj
 0002:00006300       ??_C@_1M@PCMGMCGC@?$AAb?$AAg?$AA?9?$AAb?$AAg?$AA?$AA@ 000000018007d300     libucrt:lcidtoname_downlevel.obj
 0002:00006310       ??_C@_1M@BJBMFGOB@?$AAb?$AAn?$AA?9?$AAi?$AAn?$AA?$AA@ 000000018007d310     libucrt:lcidtoname_downlevel.obj
 0002:00006320       ??_C@_1BG@EAKMMACD@?$AAb?$AAs?$AA?9?$AAb?$AAa?$AA?9?$AAl?$AAa?$AAt?$AAn?$AA?$AA@ 000000018007d320     libucrt:lcidtoname_downlevel.obj
 0002:00006338       ??_C@_1M@KGADAODK@?$AAc?$AAa?$AA?9?$AAe?$AAs?$AA?$AA@ 000000018007d338     libucrt:lcidtoname_downlevel.obj
 0002:00006348       ??_C@_1M@COAJPDHI@?$AAc?$AAs?$AA?9?$AAc?$AAz?$AA?$AA@ 000000018007d348     libucrt:lcidtoname_downlevel.obj
 0002:00006358       ??_C@_1M@DHBHFONH@?$AAc?$AAy?$AA?9?$AAg?$AAb?$AA?$AA@ 000000018007d358     libucrt:lcidtoname_downlevel.obj
 0002:00006368       ??_C@_1M@IMGKELGA@?$AAd?$AAa?$AA?9?$AAd?$AAk?$AA?$AA@ 000000018007d368     libucrt:lcidtoname_downlevel.obj
 0002:00006378       ??_C@_1M@NNDGDNGA@?$AAd?$AAe?$AA?9?$AAa?$AAt?$AA?$AA@ 000000018007d378     libucrt:lcidtoname_downlevel.obj
 0002:00006388       ??_C@_1M@IKDBHEEM@?$AAd?$AAe?$AA?9?$AAc?$AAh?$AA?$AA@ 000000018007d388     libucrt:lcidtoname_downlevel.obj
 0002:00006398       ??_C@_1M@GFFOJMCJ@?$AAd?$AAe?$AA?9?$AAd?$AAe?$AA?$AA@ 000000018007d398     libucrt:lcidtoname_downlevel.obj
 0002:000063a8       ??_C@_1M@MDNLKBPM@?$AAd?$AAe?$AA?9?$AAl?$AAi?$AA?$AA@ 000000018007d3a8     libucrt:lcidtoname_downlevel.obj
 0002:000063b8       ??_C@_1M@NJBEEJNL@?$AAd?$AAe?$AA?9?$AAl?$AAu?$AA?$AA@ 000000018007d3b8     libucrt:lcidtoname_downlevel.obj
 0002:000063c8       ??_C@_1O@GNNELBAP@?$AAd?$AAi?$AAv?$AA?9?$AAm?$AAv?$AA?$AA@ 000000018007d3c8     libucrt:lcidtoname_downlevel.obj
 0002:000063d8       ??_C@_1M@EJLEOGAE@?$AAe?$AAl?$AA?9?$AAg?$AAr?$AA?$AA@ 000000018007d3d8     libucrt:lcidtoname_downlevel.obj
 0002:000063e8       ??_C@_1M@GMPONJN@?$AAe?$AAn?$AA?9?$AAa?$AAu?$AA?$AA@ 000000018007d3e8     libucrt:lcidtoname_downlevel.obj
 0002:000063f8       ??_C@_1M@NIDIIPGF@?$AAe?$AAn?$AA?9?$AAb?$AAz?$AA?$AA@ 000000018007d3f8     libucrt:lcidtoname_downlevel.obj
 0002:00006408       ??_C@_1M@JEHMIMFO@?$AAe?$AAn?$AA?9?$AAc?$AAa?$AA?$AA@ 000000018007d408     libucrt:lcidtoname_downlevel.obj
 0002:00006418       ??_C@_1M@IGMJCDLA@?$AAe?$AAn?$AA?9?$AAc?$AAb?$AA?$AA@ 000000018007d418     libucrt:lcidtoname_downlevel.obj
 0002:00006428       ??_C@_1M@BNFIGBKG@?$AAe?$AAn?$AA?9?$AAg?$AAb?$AA?$AA@ 000000018007d428     libucrt:lcidtoname_downlevel.obj
 0002:00006438       ??_C@_1M@LKIFDIGP@?$AAe?$AAn?$AA?9?$AAi?$AAe?$AA?$AA@ 000000018007d438     libucrt:lcidtoname_downlevel.obj
 0002:00006448       ??_C@_1M@PJKFGCCO@?$AAe?$AAn?$AA?9?$AAj?$AAm?$AA?$AA@ 000000018007d448     libucrt:lcidtoname_downlevel.obj
 0002:00006458       ??_C@_1M@KPPKEPBO@?$AAe?$AAn?$AA?9?$AAn?$AAz?$AA?$AA@ 000000018007d458     libucrt:lcidtoname_downlevel.obj
 0002:00006468       ??_C@_1M@GMDGLDOB@?$AAe?$AAn?$AA?9?$AAp?$AAh?$AA?$AA@ 000000018007d468     libucrt:lcidtoname_downlevel.obj
 0002:00006478       ??_C@_1M@ONGIBJNA@?$AAe?$AAn?$AA?9?$AAt?$AAt?$AA?$AA@ 000000018007d478     libucrt:lcidtoname_downlevel.obj
 0002:00006488       ??_C@_1M@LLODPCMM@?$AAe?$AAn?$AA?9?$AAu?$AAs?$AA?$AA@ 000000018007d488     libucrt:lcidtoname_downlevel.obj
 0002:00006498       ??_C@_1M@LAKFNPAN@?$AAe?$AAn?$AA?9?$AAz?$AAa?$AA?$AA@ 000000018007d498     libucrt:lcidtoname_downlevel.obj
 0002:000064a8       ??_C@_1M@MFNHNHEO@?$AAe?$AAn?$AA?9?$AAz?$AAw?$AA?$AA@ 000000018007d4a8     libucrt:lcidtoname_downlevel.obj
 0002:000064b8       ??_C@_1M@EJEINPHM@?$AAe?$AAs?$AA?9?$AAa?$AAr?$AA?$AA@ 000000018007d4b8     libucrt:lcidtoname_downlevel.obj
 0002:000064c8       ??_C@_1M@GNKPCCJA@?$AAe?$AAs?$AA?9?$AAb?$AAo?$AA?$AA@ 000000018007d4c8     libucrt:lcidtoname_downlevel.obj
 0002:000064d8       ??_C@_1M@LEEGFONL@?$AAe?$AAs?$AA?9?$AAc?$AAl?$AA?$AA@ 000000018007d4d8     libucrt:lcidtoname_downlevel.obj
 0002:000064e8       ??_C@_1M@KGPDPBDF@?$AAe?$AAs?$AA?9?$AAc?$AAo?$AA?$AA@ 000000018007d4e8     libucrt:lcidtoname_downlevel.obj
 0002:000064f8       ??_C@_1M@EIAHOHH@?$AAe?$AAs?$AA?9?$AAc?$AAr?$AA?$AA@ 000000018007d4f8     libucrt:lcidtoname_downlevel.obj
 0002:00006508       ??_C@_1M@LLPGMBIN@?$AAe?$AAs?$AA?9?$AAd?$AAo?$AA?$AA@ 000000018007d508     libucrt:lcidtoname_downlevel.obj
 0002:00006518       ??_C@_1M@DKHMKNJA@?$AAe?$AAs?$AA?9?$AAe?$AAc?$AA?$AA@ 000000018007d518     libucrt:lcidtoname_downlevel.obj
 0002:00006528       ??_C@_1M@GKGFPKAP@?$AAe?$AAs?$AA?9?$AAe?$AAs?$AA?$AA@ 000000018007d528     libucrt:lcidtoname_downlevel.obj
 0002:00006538       ??_C@_1M@LKHKGDLN@?$AAe?$AAs?$AA?9?$AAg?$AAt?$AA?$AA@ 000000018007d538     libucrt:lcidtoname_downlevel.obj
 0002:00006548       ??_C@_1M@HEIIGGJD@?$AAe?$AAs?$AA?9?$AAh?$AAn?$AA?$AA@ 000000018007d548     libucrt:lcidtoname_downlevel.obj
 0002:00006558       ??_C@_1M@FBDHPPGD@?$AAe?$AAs?$AA?9?$AAm?$AAx?$AA?$AA@ 000000018007d558     libucrt:lcidtoname_downlevel.obj
 0002:00006568       ??_C@_1M@DPAGLNDH@?$AAe?$AAs?$AA?9?$AAn?$AAi?$AA?$AA@ 000000018007d568     libucrt:lcidtoname_downlevel.obj
 0002:00006578       ??_C@_1M@MDGOPGDD@?$AAe?$AAs?$AA?9?$AAp?$AAa?$AA?$AA@ 000000018007d578     libucrt:lcidtoname_downlevel.obj
 0002:00006588       ??_C@_1M@EMAMGBGE@?$AAe?$AAs?$AA?9?$AAp?$AAe?$AA?$AA@ 000000018007d588     libucrt:lcidtoname_downlevel.obj
 0002:00006598       ??_C@_1M@IBMCAOEC@?$AAe?$AAs?$AA?9?$AAp?$AAr?$AA?$AA@ 000000018007d598     libucrt:lcidtoname_downlevel.obj
 0002:000065a8       ??_C@_1M@FGMDIJED@?$AAe?$AAs?$AA?9?$AAp?$AAy?$AA?$AA@ 000000018007d5a8     libucrt:lcidtoname_downlevel.obj
 0002:000065b8       ??_C@_1M@IIDEOLLL@?$AAe?$AAs?$AA?9?$AAs?$AAv?$AA?$AA@ 000000018007d5b8     libucrt:lcidtoname_downlevel.obj
 0002:000065c8       ??_C@_1M@GAOBIPA@?$AAe?$AAs?$AA?9?$AAu?$AAy?$AA?$AA@ 000000018007d5c8     libucrt:lcidtoname_downlevel.obj
 0002:000065d8       ??_C@_1M@JKFFICHJ@?$AAe?$AAs?$AA?9?$AAv?$AAe?$AA?$AA@ 000000018007d5d8     libucrt:lcidtoname_downlevel.obj
 0002:000065e8       ??_C@_1M@PNMLOJDF@?$AAe?$AAt?$AA?9?$AAe?$AAe?$AA?$AA@ 000000018007d5e8     libucrt:lcidtoname_downlevel.obj
 0002:000065f8       ??_C@_1M@GHHLIKEI@?$AAe?$AAu?$AA?9?$AAe?$AAs?$AA?$AA@ 000000018007d5f8     libucrt:lcidtoname_downlevel.obj
 0002:00006608       ??_C@_1M@PBNONODE@?$AAf?$AAa?$AA?9?$AAi?$AAr?$AA?$AA@ 000000018007d608     libucrt:lcidtoname_downlevel.obj
 0002:00006618       ??_C@_1M@JEEHPMIL@?$AAf?$AAi?$AA?9?$AAf?$AAi?$AA?$AA@ 000000018007d618     libucrt:lcidtoname_downlevel.obj
 0002:00006628       ??_C@_1M@LMDCNDBA@?$AAf?$AAo?$AA?9?$AAf?$AAo?$AA?$AA@ 000000018007d628     libucrt:lcidtoname_downlevel.obj
 0002:00006638       ??_C@_1M@JKEOHLDK@?$AAf?$AAr?$AA?9?$AAb?$AAe?$AA?$AA@ 000000018007d638     libucrt:lcidtoname_downlevel.obj
 0002:00006648       ??_C@_1M@NOHADPMI@?$AAf?$AAr?$AA?9?$AAc?$AAa?$AA?$AA@ 000000018007d648     libucrt:lcidtoname_downlevel.obj
 0002:00006658       ??_C@_1M@KDHIHAEC@?$AAf?$AAr?$AA?9?$AAc?$AAh?$AA?$AA@ 000000018007d658     libucrt:lcidtoname_downlevel.obj
 0002:00006668       ??_C@_1M@MMBBFGAK@?$AAf?$AAr?$AA?9?$AAf?$AAr?$AA?$AA@ 000000018007d668     libucrt:lcidtoname_downlevel.obj
 0002:00006678       ??_C@_1M@PAFNENNF@?$AAf?$AAr?$AA?9?$AAl?$AAu?$AA?$AA@ 000000018007d678     libucrt:lcidtoname_downlevel.obj
 0002:00006688       ??_C@_1M@EOHDJGDD@?$AAf?$AAr?$AA?9?$AAm?$AAc?$AA?$AA@ 000000018007d688     libucrt:lcidtoname_downlevel.obj
 0002:00006698       ??_C@_1M@FAPLLOPF@?$AAg?$AAl?$AA?9?$AAe?$AAs?$AA?$AA@ 000000018007d698     libucrt:lcidtoname_downlevel.obj
 0002:000066a8       ??_C@_1M@FOPBFLOO@?$AAg?$AAu?$AA?9?$AAi?$AAn?$AA?$AA@ 000000018007d6a8     libucrt:lcidtoname_downlevel.obj
 0002:000066b8       ??_C@_1M@KBMCINPM@?$AAh?$AAe?$AA?9?$AAi?$AAl?$AA?$AA@ 000000018007d6b8     libucrt:lcidtoname_downlevel.obj
 0002:000066c8       ??_C@_1M@BBPHKFPJ@?$AAh?$AAi?$AA?9?$AAi?$AAn?$AA?$AA@ 000000018007d6c8     libucrt:lcidtoname_downlevel.obj
 0002:000066d8       ??_C@_1M@PMBNDPHD@?$AAh?$AAr?$AA?9?$AAb?$AAa?$AA?$AA@ 000000018007d6d8     libucrt:lcidtoname_downlevel.obj
 0002:000066e8       ??_C@_1M@BPCKOEGE@?$AAh?$AAr?$AA?9?$AAh?$AAr?$AA?$AA@ 000000018007d6e8     libucrt:lcidtoname_downlevel.obj
 0002:000066f8       ??_C@_1M@GACBMHKE@?$AAh?$AAu?$AA?9?$AAh?$AAu?$AA?$AA@ 000000018007d6f8     libucrt:lcidtoname_downlevel.obj
 0002:00006708       ??_C@_1M@MILPAJJC@?$AAh?$AAy?$AA?9?$AAa?$AAm?$AA?$AA@ 000000018007d708     libucrt:lcidtoname_downlevel.obj
 0002:00006718       ??_C@_1M@BABBICEC@?$AAi?$AAd?$AA?9?$AAi?$AAd?$AA?$AA@ 000000018007d718     libucrt:lcidtoname_downlevel.obj
 0002:00006728       ??_C@_1M@BIKNHHPF@?$AAi?$AAs?$AA?9?$AAi?$AAs?$AA?$AA@ 000000018007d728     libucrt:lcidtoname_downlevel.obj
 0002:00006738       ??_C@_1M@NMPCJPHE@?$AAi?$AAt?$AA?9?$AAc?$AAh?$AA?$AA@ 000000018007d738     libucrt:lcidtoname_downlevel.obj
 0002:00006748       ??_C@_1M@GHKGFEDF@?$AAi?$AAt?$AA?9?$AAi?$AAt?$AA?$AA@ 000000018007d748     libucrt:lcidtoname_downlevel.obj
 0002:00006758       ??_C@_1M@NIEJCJJA@?$AAj?$AAa?$AA?9?$AAj?$AAp?$AA?$AA@ 000000018007d758     libucrt:lcidtoname_downlevel.obj
 0002:00006768       ??_C@_1M@JILFNBIM@?$AAk?$AAa?$AA?9?$AAg?$AAe?$AA?$AA@ 000000018007d768     libucrt:lcidtoname_downlevel.obj
 0002:00006778       ??_C@_1M@PACPMGPH@?$AAk?$AAk?$AA?9?$AAk?$AAz?$AA?$AA@ 000000018007d778     libucrt:lcidtoname_downlevel.obj
 0002:00006788       ??_C@_1M@IELFGMHA@?$AAk?$AAn?$AA?9?$AAi?$AAn?$AA?$AA@ 000000018007d788     libucrt:lcidtoname_downlevel.obj
 0002:00006798       ??_C@_1O@IBBJHCH@?$AAk?$AAo?$AAk?$AA?9?$AAi?$AAn?$AA?$AA@ 000000018007d798     libucrt:lcidtoname_downlevel.obj
 0002:000067a8       ??_C@_1M@DMHAEOGC@?$AAk?$AAo?$AA?9?$AAk?$AAr?$AA?$AA@ 000000018007d7a8     libucrt:lcidtoname_downlevel.obj
 0002:000067b8       ??_C@_1M@HBAHBIGA@?$AAk?$AAy?$AA?9?$AAk?$AAg?$AA?$AA@ 000000018007d7b8     libucrt:lcidtoname_downlevel.obj
 0002:000067c8       ??_C@_1M@KPMILCJG@?$AAl?$AAt?$AA?9?$AAl?$AAt?$AA?$AA@ 000000018007d7c8     libucrt:lcidtoname_downlevel.obj
 0002:000067d8       ??_C@_1M@BDEKKCA@?$AAl?$AAv?$AA?9?$AAl?$AAv?$AA?$AA@ 000000018007d7d8     libucrt:lcidtoname_downlevel.obj
 0002:000067e8       ??_C@_1M@ELCKCCJJ@?$AAm?$AAi?$AA?9?$AAn?$AAz?$AA?$AA@ 000000018007d7e8     libucrt:lcidtoname_downlevel.obj
 0002:000067f8       ??_C@_1M@CBOOLAPA@?$AAm?$AAk?$AA?9?$AAm?$AAk?$AA?$AA@ 000000018007d7f8     libucrt:lcidtoname_downlevel.obj
 0002:00006808       ??_C@_1M@GPHNBJKN@?$AAm?$AAl?$AA?9?$AAi?$AAn?$AA?$AA@ 000000018007d808     libucrt:lcidtoname_downlevel.obj
 0002:00006818       ??_C@_1M@PABJILIG@?$AAm?$AAn?$AA?9?$AAm?$AAn?$AA?$AA@ 000000018007d818     libucrt:lcidtoname_downlevel.obj
 0002:00006828       ??_C@_1M@FGBKKIPG@?$AAm?$AAr?$AA?9?$AAi?$AAn?$AA?$AA@ 000000018007d828     libucrt:lcidtoname_downlevel.obj
 0002:00006838       ??_C@_1M@NDBPDDAL@?$AAm?$AAs?$AA?9?$AAb?$AAn?$AA?$AA@ 000000018007d838     libucrt:lcidtoname_downlevel.obj
 0002:00006848       ??_C@_1M@OPIHOOPI@?$AAm?$AAs?$AA?9?$AAm?$AAy?$AA?$AA@ 000000018007d848     libucrt:lcidtoname_downlevel.obj
 0002:00006858       ??_C@_1M@PPDBCNFM@?$AAm?$AAt?$AA?9?$AAm?$AAt?$AA?$AA@ 000000018007d858     libucrt:lcidtoname_downlevel.obj
 0002:00006868       ??_C@_1M@KDJDKMDD@?$AAn?$AAb?$AA?9?$AAn?$AAo?$AA?$AA@ 000000018007d868     libucrt:lcidtoname_downlevel.obj
 0002:00006878       ??_C@_1M@KFCFLMJP@?$AAn?$AAl?$AA?9?$AAb?$AAe?$AA?$AA@ 000000018007d878     libucrt:lcidtoname_downlevel.obj
 0002:00006888       ??_C@_1M@KPOPDDGO@?$AAn?$AAl?$AA?9?$AAn?$AAl?$AA?$AA@ 000000018007d888     libucrt:lcidtoname_downlevel.obj
 0002:00006898       ??_C@_1M@LJKPEMLN@?$AAn?$AAn?$AA?9?$AAn?$AAo?$AA?$AA@ 000000018007d898     libucrt:lcidtoname_downlevel.obj
 0002:000068a8       ??_C@_1M@BDGHHBFL@?$AAn?$AAs?$AA?9?$AAz?$AAa?$AA?$AA@ 000000018007d8a8     libucrt:lcidtoname_downlevel.obj
 0002:000068b8       ??_C@_1M@IDEHOAP@?$AAp?$AAa?$AA?9?$AAi?$AAn?$AA?$AA@ 000000018007d8b8     libucrt:lcidtoname_downlevel.obj
 0002:000068c8       ??_C@_1M@HDBKGOGH@?$AAp?$AAl?$AA?9?$AAp?$AAl?$AA?$AA@ 000000018007d8c8     libucrt:lcidtoname_downlevel.obj
 0002:000068d8       ??_C@_1M@LJLLCMEH@?$AAp?$AAt?$AA?9?$AAb?$AAr?$AA?$AA@ 000000018007d8d8     libucrt:lcidtoname_downlevel.obj
 0002:000068e8       ??_C@_1M@NCMONAAL@?$AAp?$AAt?$AA?9?$AAp?$AAt?$AA?$AA@ 000000018007d8e8     libucrt:lcidtoname_downlevel.obj
 0002:000068f8       ??_C@_1O@EAKMAJDN@?$AAq?$AAu?$AAz?$AA?9?$AAb?$AAo?$AA?$AA@ 000000018007d8f8     libucrt:lcidtoname_downlevel.obj
 0002:00006908       ??_C@_1O@BHHPIGDN@?$AAq?$AAu?$AAz?$AA?9?$AAe?$AAc?$AA?$AA@ 000000018007d908     libucrt:lcidtoname_downlevel.obj
 0002:00006918       ??_C@_1O@GBAPEKMJ@?$AAq?$AAu?$AAz?$AA?9?$AAp?$AAe?$AA?$AA@ 000000018007d918     libucrt:lcidtoname_downlevel.obj
 0002:00006928       ??_C@_1M@CLGLEFBO@?$AAr?$AAo?$AA?9?$AAr?$AAo?$AA?$AA@ 000000018007d928     libucrt:lcidtoname_downlevel.obj
 0002:00006938       ??_C@_1M@CEEDODME@?$AAr?$AAu?$AA?9?$AAr?$AAu?$AA?$AA@ 000000018007d938     libucrt:lcidtoname_downlevel.obj
 0002:00006948       ??_C@_1M@HPKKKMPP@?$AAs?$AAa?$AA?9?$AAi?$AAn?$AA?$AA@ 000000018007d948     libucrt:lcidtoname_downlevel.obj
 0002:00006958       ??_C@_1M@BKMAIGOJ@?$AAs?$AAe?$AA?9?$AAf?$AAi?$AA?$AA@ 000000018007d958     libucrt:lcidtoname_downlevel.obj
 0002:00006968       ??_C@_1M@NDPIFLFI@?$AAs?$AAe?$AA?9?$AAn?$AAo?$AA?$AA@ 000000018007d968     libucrt:lcidtoname_downlevel.obj
 0002:00006978       ??_C@_1M@DANKKHJ@?$AAs?$AAe?$AA?9?$AAs?$AAe?$AA?$AA@ 000000018007d978     libucrt:lcidtoname_downlevel.obj
 0002:00006988       ??_C@_1M@PNBLONPJ@?$AAs?$AAk?$AA?9?$AAs?$AAk?$AA?$AA@ 000000018007d988     libucrt:lcidtoname_downlevel.obj
 0002:00006998       ??_C@_1M@LFMODOAL@?$AAs?$AAl?$AA?9?$AAs?$AAi?$AA?$AA@ 000000018007d998     libucrt:lcidtoname_downlevel.obj
 0002:000069a8       ??_C@_1O@DFKOMPG@?$AAs?$AAm?$AAa?$AA?9?$AAn?$AAo?$AA?$AA@ 000000018007d9a8     libucrt:lcidtoname_downlevel.obj
 0002:000069b8       ??_C@_1O@NDKPBNNH@?$AAs?$AAm?$AAa?$AA?9?$AAs?$AAe?$AA?$AA@ 000000018007d9b8     libucrt:lcidtoname_downlevel.obj
 0002:000069c8       ??_C@_1O@PLLKBHAB@?$AAs?$AAm?$AAj?$AA?9?$AAn?$AAo?$AA?$AA@ 000000018007d9c8     libucrt:lcidtoname_downlevel.obj
 0002:000069d8       ??_C@_1O@CLEPOGCA@?$AAs?$AAm?$AAj?$AA?9?$AAs?$AAe?$AA?$AA@ 000000018007d9d8     libucrt:lcidtoname_downlevel.obj
 0002:000069e8       ??_C@_1O@DLGJGKMK@?$AAs?$AAm?$AAn?$AA?9?$AAf?$AAi?$AA?$AA@ 000000018007d9e8     libucrt:lcidtoname_downlevel.obj
 0002:000069f8       ??_C@_1O@OJDJGAJC@?$AAs?$AAm?$AAs?$AA?9?$AAf?$AAi?$AA?$AA@ 000000018007d9f8     libucrt:lcidtoname_downlevel.obj
 0002:00006a08       ??_C@_1M@BOFOGHPB@?$AAs?$AAq?$AA?9?$AAa?$AAl?$AA?$AA@ 000000018007da08     libucrt:lcidtoname_downlevel.obj
 0002:00006a18       ??_C@_1BG@LJBBIPGB@?$AAs?$AAr?$AA?9?$AAb?$AAa?$AA?9?$AAc?$AAy?$AAr?$AAl?$AA?$AA@ 000000018007da18     libucrt:lcidtoname_downlevel.obj
 0002:00006a30       ??_C@_1BG@JLBENFOE@?$AAs?$AAr?$AA?9?$AAb?$AAa?$AA?9?$AAl?$AAa?$AAt?$AAn?$AA?$AA@ 000000018007da30     libucrt:lcidtoname_downlevel.obj
 0002:00006a48       ??_C@_1BG@KODPNHE@?$AAs?$AAr?$AA?9?$AAs?$AAp?$AA?9?$AAc?$AAy?$AAr?$AAl?$AA?$AA@ 000000018007da48     libucrt:lcidtoname_downlevel.obj
 0002:00006a60       ??_C@_1BG@CIOGKHPB@?$AAs?$AAr?$AA?9?$AAs?$AAp?$AA?9?$AAl?$AAa?$AAt?$AAn?$AA?$AA@ 000000018007da60     libucrt:lcidtoname_downlevel.obj
 0002:00006a78       ??_C@_1M@NGFJLMAC@?$AAs?$AAv?$AA?9?$AAf?$AAi?$AA?$AA@ 000000018007da78     libucrt:lcidtoname_downlevel.obj
 0002:00006a88       ??_C@_1M@MPJEJAJC@?$AAs?$AAv?$AA?9?$AAs?$AAe?$AA?$AA@ 000000018007da88     libucrt:lcidtoname_downlevel.obj
 0002:00006a98       ??_C@_1M@MPNDHLFK@?$AAs?$AAw?$AA?9?$AAk?$AAe?$AA?$AA@ 000000018007da98     libucrt:lcidtoname_downlevel.obj
 0002:00006aa8       ??_C@_1O@KOHBJJI@?$AAs?$AAy?$AAr?$AA?9?$AAs?$AAy?$AA?$AA@ 000000018007daa8     libucrt:lcidtoname_downlevel.obj
 0002:00006ab8       ??_C@_1M@LDCEFHA@?$AAt?$AAa?$AA?9?$AAi?$AAn?$AA?$AA@ 000000018007dab8     libucrt:lcidtoname_downlevel.obj
 0002:00006ac8       ??_C@_1M@CNJOFAK@?$AAt?$AAe?$AA?9?$AAi?$AAn?$AA?$AA@ 000000018007dac8     libucrt:lcidtoname_downlevel.obj
 0002:00006ad8       ??_C@_1M@GNAECACD@?$AAt?$AAh?$AA?9?$AAt?$AAh?$AA?$AA@ 000000018007dad8     libucrt:lcidtoname_downlevel.obj
 0002:00006ae8       ??_C@_1M@CHBIHOJO@?$AAt?$AAn?$AA?9?$AAz?$AAa?$AA?$AA@ 000000018007dae8     libucrt:lcidtoname_downlevel.obj
 0002:00006af8       ??_C@_1M@GCCMIGPJ@?$AAt?$AAr?$AA?9?$AAt?$AAr?$AA?$AA@ 000000018007daf8     libucrt:lcidtoname_downlevel.obj
 0002:00006b08       ??_C@_1M@CELMCNBK@?$AAt?$AAt?$AA?9?$AAr?$AAu?$AA?$AA@ 000000018007db08     libucrt:lcidtoname_downlevel.obj
 0002:00006b18       ??_C@_1M@KLMCELGA@?$AAu?$AAk?$AA?9?$AAu?$AAa?$AA?$AA@ 000000018007db18     libucrt:lcidtoname_downlevel.obj
 0002:00006b28       ??_C@_1M@EPAJJAJF@?$AAu?$AAr?$AA?9?$AAp?$AAk?$AA?$AA@ 000000018007db28     libucrt:lcidtoname_downlevel.obj
 0002:00006b38       ??_C@_1BG@GEGPMCDJ@?$AAu?$AAz?$AA?9?$AAu?$AAz?$AA?9?$AAc?$AAy?$AAr?$AAl?$AA?$AA@ 000000018007db38     libucrt:lcidtoname_downlevel.obj
 0002:00006b50       ??_C@_1BG@EGGKJILM@?$AAu?$AAz?$AA?9?$AAu?$AAz?$AA?9?$AAl?$AAa?$AAt?$AAn?$AA?$AA@ 000000018007db50     libucrt:lcidtoname_downlevel.obj
 0002:00006b68       ??_C@_1M@GFOCLFF@?$AAv?$AAi?$AA?9?$AAv?$AAn?$AA?$AA@ 000000018007db68     libucrt:lcidtoname_downlevel.obj
 0002:00006b78       ??_C@_1M@CPAMEDFI@?$AAx?$AAh?$AA?9?$AAz?$AAa?$AA?$AA@ 000000018007db78     libucrt:lcidtoname_downlevel.obj
 0002:00006b88       ??_C@_1O@EBKIFIGN@?$AAz?$AAh?$AA?9?$AAc?$AAh?$AAs?$AA?$AA@ 000000018007db88     libucrt:lcidtoname_downlevel.obj
 0002:00006b98       ??_C@_1O@NMHPGANE@?$AAz?$AAh?$AA?9?$AAc?$AAh?$AAt?$AA?$AA@ 000000018007db98     libucrt:lcidtoname_downlevel.obj
 0002:00006ba8       ??_C@_1M@LPINJOMC@?$AAz?$AAh?$AA?9?$AAc?$AAn?$AA?$AA@ 000000018007dba8     libucrt:lcidtoname_downlevel.obj
 0002:00006bb8       ??_C@_1M@OCJEJODD@?$AAz?$AAh?$AA?9?$AAh?$AAk?$AA?$AA@ 000000018007dbb8     libucrt:lcidtoname_downlevel.obj
 0002:00006bc8       ??_C@_1M@DNDLJINH@?$AAz?$AAh?$AA?9?$AAm?$AAo?$AA?$AA@ 000000018007dbc8     libucrt:lcidtoname_downlevel.obj
 0002:00006bd8       ??_C@_1M@MBFDNDND@?$AAz?$AAh?$AA?9?$AAs?$AAg?$AA?$AA@ 000000018007dbd8     libucrt:lcidtoname_downlevel.obj
 0002:00006be8       ??_C@_1M@IMEPLEPE@?$AAz?$AAh?$AA?9?$AAt?$AAw?$AA?$AA@ 000000018007dbe8     libucrt:lcidtoname_downlevel.obj
 0002:00006bf8       ??_C@_1M@BBGHNHJP@?$AAz?$AAu?$AA?9?$AAz?$AAa?$AA?$AA@ 000000018007dbf8     libucrt:lcidtoname_downlevel.obj
 0002:00006e60       __log10_256_lead           000000018007de60     libucrt:log10_256_lead_tail_table.obj
 0002:00007670       __log10_256_tail           000000018007e670     libucrt:log10_256_lead_tail_table.obj
 0002:00007e80       __log_F_inv_qword          000000018007ee80     libucrt:log_f_inv_qword_table.obj
 0002:00008690       ??_C@_05HGHHAHAP@log10?$AA@ 000000018007f690     libucrt:log_special.obj
 0002:00008698       ??_C@_1BA@BALFACEM@?$AAC?$AAO?$AAN?$AAO?$AAU?$AAT?$AA$?$AA?$AA@ 000000018007f698     libucrt:initcon.obj
 0002:000086c0       ??_C@_1BK@DBDEIDLH@?$AAK?$AAE?$AAR?$AAN?$AAE?$AAL?$AA3?$AA2?$AA?4?$AAD?$AAL?$AAL@ 000000018007f6c0     DelayImp:delayhlp.obj
 0002:000086e0       ??_C@_0BI@OMNLIJDB@AcquireSRWLockExclusive@ 000000018007f6e0     DelayImp:delayhlp.obj
 0002:000086f8       ??_C@_0BI@HMIEPCNJ@ReleaseSRWLockExclusive@ 000000018007f6f8     DelayImp:delayhlp.obj
 0002:00008710       __pfnDliFailureHook2       000000018007f710     DelayImp:delayhk1.obj
 0002:00008720       _load_config_used          000000018007f720     LIBCMT:loadcfg.obj
 0002:00008820       ??_C@_0EL@MGDEMCAM@c?3?2users?2cups?2desktop?2fabric?9mi@ 000000018007f820     main.obj
 0002:0000886c       ??_C@_06KICEIFMJ@pkcs11@   000000018007f86c     main.obj
 0002:00008878       ??_C@_0BA@OIIBEHIA@Win32?5error?5?$CFlu@ 000000018007f878     dl.obj
 0002:00008888       ??_C@_09MNJOIBHB@CKA_CLASS@ 000000018007f888     const.obj
 0002:00008898       ??_C@_09BMJHJKDI@CKA_TOKEN@ 000000018007f898     const.obj
 0002:000088a8       ??_C@_0M@FBFGEIOB@CKA_PRIVATE@ 000000018007f8a8     const.obj
 0002:000088b8       ??_C@_09DBMIJKH@CKA_LABEL@ 000000018007f8b8     const.obj
 0002:000088c8       ??_C@_0BA@BJPNDGCD@CKA_APPLICATION@ 000000018007f8c8     const.obj
 0002:000088d8       ??_C@_09IMGKMHFA@CKA_VALUE@ 000000018007f8d8     const.obj
 0002:000088e8       ??_C@_0O@EIMGJED@CKA_OBJECT_ID@ 000000018007f8e8     const.obj
 0002:000088f8       ??_C@_0BF@NIPCIKBM@CKA_CERTIFICATE_TYPE@ 000000018007f8f8     const.obj
 0002:00008910       ??_C@_0L@NOFCELAB@CKA_ISSUER@ 000000018007f910     const.obj
 0002:00008920       ??_C@_0BC@BOKEBFKJ@CKA_SERIAL_NUMBER@ 000000018007f920     const.obj
 0002:00008938       ??_C@_0O@DFAMGKNE@CKA_AC_ISSUER@ 000000018007f938     const.obj
 0002:00008948       ??_C@_09PELPBJEM@CKA_OWNER@ 000000018007f948     const.obj
 0002:00008958       ??_C@_0P@BHBAJIJE@CKA_ATTR_TYPES@ 000000018007f958     const.obj
 0002:00008968       ??_C@_0M@KNAFECA@CKA_TRUSTED@ 000000018007f968     const.obj
 0002:00008978       ??_C@_0BJ@OGLKFOGM@CKA_CERTIFICATE_CATEGORY@ 000000018007f978     const.obj
 0002:00008998       ??_C@_0BO@FDPJNJFD@CKA_JAVA_MIDP_SECURITY_DOMAIN@ 000000018007f998     const.obj
 0002:000089b8       ??_C@_07MKKDEAIP@CKA_URL@  000000018007f9b8     const.obj
 0002:000089c0       ??_C@_0BP@KNOCOJAA@CKA_HASH_OF_SUBJECT_PUBLIC_KEY@ 000000018007f9c0     const.obj
 0002:000089e0       ??_C@_0BO@IBLJGNPM@CKA_HASH_OF_ISSUER_PUBLIC_KEY@ 000000018007f9e0     const.obj
 0002:00008a00       ??_C@_0BI@GMHHCKDH@CKA_NAME_HASH_ALGORITHM@ 000000018007fa00     const.obj
 0002:00008a18       ??_C@_0BA@GONONMAG@CKA_CHECK_VALUE@ 000000018007fa18     const.obj
 0002:00008a28       ??_C@_0N@COPLHMK@CKA_KEY_TYPE@ 000000018007fa28     const.obj
 0002:00008a38       ??_C@_0M@BAHLPKHO@CKA_SUBJECT@ 000000018007fa38     const.obj
 0002:00008a44       ??_C@_06GPEMOHIJ@CKA_ID@   000000018007fa44     const.obj
 0002:00008a50       ??_C@_0O@HLDDMML@CKA_SENSITIVE@ 000000018007fa50     const.obj
 0002:00008a60       ??_C@_0M@FABFPAAO@CKA_ENCRYPT@ 000000018007fa60     const.obj
 0002:00008a70       ??_C@_0M@JOLIKEGK@CKA_DECRYPT@ 000000018007fa70     const.obj
 0002:00008a80       ??_C@_08LFGOKAJG@CKA_WRAP@ 000000018007fa80     const.obj
 0002:00008a90       ??_C@_0L@JMAMPINJ@CKA_UNWRAP@ 000000018007fa90     const.obj
 0002:00008aa0       ??_C@_08BHDKJFKF@CKA_SIGN@ 000000018007faa0     const.obj
 0002:00008ab0       ??_C@_0BB@MHHCGIDB@CKA_SIGN_RECOVER@ 000000018007fab0     const.obj
 0002:00008ac8       ??_C@_0L@FMFGOAKF@CKA_VERIFY@ 000000018007fac8     const.obj
 0002:00008ad8       ??_C@_0BD@CJDHDBME@CKA_VERIFY_RECOVER@ 000000018007fad8     const.obj
 0002:00008af0       ??_C@_0L@FGEGJDGP@CKA_DERIVE@ 000000018007faf0     const.obj
 0002:00008b00       ??_C@_0P@BOLEFJMA@CKA_START_DATE@ 000000018007fb00     const.obj
 0002:00008b10       ??_C@_0N@GDAKMNCO@CKA_END_DATE@ 000000018007fb10     const.obj
 0002:00008b20       ??_C@_0M@KEOPPPCG@CKA_MODULUS@ 000000018007fb20     const.obj
 0002:00008b30       ??_C@_0BB@DLIFBMGC@CKA_MODULUS_BITS@ 000000018007fb30     const.obj
 0002:00008b48       ??_C@_0BE@CMNBNIGE@CKA_PUBLIC_EXPONENT@ 000000018007fb48     const.obj
 0002:00008b60       ??_C@_0BF@DIDKBPGC@CKA_PRIVATE_EXPONENT@ 000000018007fb60     const.obj
 0002:00008b78       ??_C@_0M@IOACCKDG@CKA_PRIME_1@ 000000018007fb78     const.obj
 0002:00008b88       ??_C@_0M@KFCPHJPF@CKA_PRIME_2@ 000000018007fb88     const.obj
 0002:00008b98       ??_C@_0P@BFFMMLGM@CKA_EXPONENT_1@ 000000018007fb98     const.obj
 0002:00008ba8       ??_C@_0P@DOHBJIKP@CKA_EXPONENT_2@ 000000018007fba8     const.obj
 0002:00008bb8       ??_C@_0BA@MPLAMIAN@CKA_COEFFICIENT@ 000000018007fbb8     const.obj
 0002:00008bc8       ??_C@_09FIJIMLOF@CKA_PRIME@ 000000018007fbc8     const.obj
 0002:00008bd8       ??_C@_0N@DGGEIOHF@CKA_SUBPRIME@ 000000018007fbd8     const.obj
 0002:00008be8       ??_C@_08HHNFNBBP@CKA_BASE@ 000000018007fbe8     const.obj
 0002:00008bf8       ??_C@_0P@DMODBPL@CKA_PRIME_BITS@ 000000018007fbf8     const.obj
 0002:00008c08       ??_C@_0BC@DJKCHCHJ@CKA_SUBPRIME_BITS@ 000000018007fc08     const.obj
 0002:00008c20       ??_C@_0BD@GPMDAJHI@CKA_SUB_PRIME_BITS@ 000000018007fc20     const.obj
 0002:00008c38       ??_C@_0P@MCCLKOIC@CKA_VALUE_BITS@ 000000018007fc38     const.obj
 0002:00008c48       ??_C@_0O@FHNLFBHO@CKA_VALUE_LEN@ 000000018007fc48     const.obj
 0002:00008c58       ??_C@_0BA@NDJMKFHM@CKA_EXTRACTABLE@ 000000018007fc58     const.obj
 0002:00008c68       ??_C@_09DJJPIHP@CKA_LOCAL@ 000000018007fc68     const.obj
 0002:00008c78       ??_C@_0BG@OCOJMEEN@CKA_NEVER_EXTRACTABLE@ 000000018007fc78     const.obj
 0002:00008c90       ??_C@_0BF@HEPAFEGJ@CKA_ALWAYS_SENSITIVE@ 000000018007fc90     const.obj
 0002:00008ca8       ??_C@_0BG@BFKFDIBJ@CKA_KEY_GEN_MECHANISM@ 000000018007fca8     const.obj
 0002:00008cc0       ??_C@_0P@LLJCBKBH@CKA_MODIFIABLE@ 000000018007fcc0     const.obj
 0002:00008cd0       ??_C@_0N@FBBCDNKM@CKA_COPYABLE@ 000000018007fcd0     const.obj
 0002:00008ce0       ??_C@_0BA@DFJHENEO@CKA_DESTROYABLE@ 000000018007fce0     const.obj
 0002:00008cf0       ??_C@_0BB@LHIKFHLC@CKA_ECDSA_PARAMS@ 000000018007fcf0     const.obj
 0002:00008d08       ??_C@_0O@HFKMDJKC@CKA_EC_PARAMS@ 000000018007fd08     const.obj
 0002:00008d18       ??_C@_0N@JMIMLOFG@CKA_EC_POINT@ 000000018007fd18     const.obj
 0002:00008d28       ??_C@_0BD@EEKLDBEH@CKA_SECONDARY_AUTH@ 000000018007fd28     const.obj
 0002:00008d40       ??_C@_0BD@HFFEGCLO@CKA_AUTH_PIN_FLAGS@ 000000018007fd40     const.obj
 0002:00008d58       ??_C@_0BI@NKKNOGMJ@CKA_ALWAYS_AUTHENTICATE@ 000000018007fd58     const.obj
 0002:00008d70       ??_C@_0BG@GLDMFBP@CKA_WRAP_WITH_TRUSTED@ 000000018007fd70     const.obj
 0002:00008d88       ??_C@_0BC@PFNCMDAC@CKA_WRAP_TEMPLATE@ 000000018007fd88     const.obj
 0002:00008da0       ??_C@_0BE@EOLAOOJF@CKA_UNWRAP_TEMPLATE@ 000000018007fda0     const.obj
 0002:00008db8       ??_C@_0BE@KIEHPMIK@CKA_DERIVE_TEMPLATE@ 000000018007fdb8     const.obj
 0002:00008dd0       ??_C@_0P@IFDDFMEC@CKA_OTP_FORMAT@ 000000018007fdd0     const.obj
 0002:00008de0       ??_C@_0P@LGOPIGEL@CKA_OTP_LENGTH@ 000000018007fde0     const.obj
 0002:00008df0       ??_C@_0BG@CGHJCFKF@CKA_OTP_TIME_INTERVAL@ 000000018007fdf0     const.obj
 0002:00008e08       ??_C@_0BL@DOFHBFKK@CKA_OTP_USER_FRIENDLY_MODE@ 000000018007fe08     const.obj
 0002:00008e28       ??_C@_0BO@CMDGKCMC@CKA_OTP_CHALLENGE_REQUIREMENT@ 000000018007fe28     const.obj
 0002:00008e48       ??_C@_0BJ@HBKNDDAM@CKA_OTP_TIME_REQUIREMENT@ 000000018007fe48     const.obj
 0002:00008e68       ??_C@_0BM@CJHJDJAK@CKA_OTP_COUNTER_REQUIREMENT@ 000000018007fe68     const.obj
 0002:00008e88       ??_C@_0BI@CFNBLBFG@CKA_OTP_PIN_REQUIREMENT@ 000000018007fe88     const.obj
 0002:00008ea0       ??_C@_0BA@HILMAGNA@CKA_OTP_COUNTER@ 000000018007fea0     const.obj
 0002:00008eb0       ??_C@_0N@DOGNPFBM@CKA_OTP_TIME@ 000000018007feb0     const.obj
 0002:00008ec0       ??_C@_0BI@PENNHEOI@CKA_OTP_USER_IDENTIFIER@ 000000018007fec0     const.obj
 0002:00008ed8       ??_C@_0BL@CAIILMB@CKA_OTP_SERVICE_IDENTIFIER@ 000000018007fed8     const.obj
 0002:00008ef8       ??_C@_0BF@FMEPMPEE@CKA_OTP_SERVICE_LOGO@ 000000018007fef8     const.obj
 0002:00008f10       ??_C@_0BK@IJGJNOIN@CKA_OTP_SERVICE_LOGO_TYPE@ 000000018007ff10     const.obj
 0002:00008f30       ??_C@_0BF@GKJMHNLN@CKA_GOSTR3410_PARAMS@ 000000018007ff30     const.obj
 0002:00008f48       ??_C@_0BF@HNOHGJPO@CKA_GOSTR3411_PARAMS@ 000000018007ff48     const.obj
 0002:00008f60       ??_C@_0BF@OGOCAJCC@CKA_GOST28147_PARAMS@ 000000018007ff60     const.obj
 0002:00008f78       ??_C@_0BE@CBDMMIKH@CKA_HW_FEATURE_TYPE@ 000000018007ff78     const.obj
 0002:00008f90       ??_C@_0BC@HLOIELLI@CKA_RESET_ON_INIT@ 000000018007ff90     const.obj
 0002:00008fa8       ??_C@_0O@ODIDJMPO@CKA_HAS_RESET@ 000000018007ffa8     const.obj
 0002:00008fb8       ??_C@_0M@NKBGOHJJ@CKA_PIXEL_X@ 000000018007ffb8     const.obj
 0002:00008fc8       ??_C@_0M@MDANNGNI@CKA_PIXEL_Y@ 000000018007ffc8     const.obj
 0002:00008fd8       ??_C@_0P@NBKHPJCD@CKA_RESOLUTION@ 000000018007ffd8     const.obj
 0002:00008fe8       ??_C@_0O@MMPLNHHG@CKA_CHAR_ROWS@ 000000018007ffe8     const.obj
 0002:00008ff8       ??_C@_0BB@GAMGHEJC@CKA_CHAR_COLUMNS@ 000000018007fff8     const.obj
 0002:00009010       ??_C@_09HEHDEICJ@CKA_COLOR@ 0000000180080010     const.obj
 0002:00009020       ??_C@_0BD@GGGEJHBH@CKA_BITS_PER_PIXEL@ 0000000180080020     const.obj
 0002:00009038       ??_C@_0O@JMGAKAPL@CKA_CHAR_SETS@ 0000000180080038     const.obj
 0002:00009048       ??_C@_0BF@FOICJAOC@CKA_ENCODING_METHODS@ 0000000180080048     const.obj
 0002:00009060       ??_C@_0P@LJEHMMBD@CKA_MIME_TYPES@ 0000000180080060     const.obj
 0002:00009070       ??_C@_0BD@KJGKFAHN@CKA_MECHANISM_TYPE@ 0000000180080070     const.obj
 0002:00009088       ??_C@_0BM@OAGFCKMD@CKA_REQUIRED_CMS_ATTRIBUTES@ 0000000180080088     const.obj
 0002:000090a8       ??_C@_0BL@NEKOJPON@CKA_DEFAULT_CMS_ATTRIBUTES@ 00000001800800a8     const.obj
 0002:000090c8       ??_C@_0BN@MEAJAIHL@CKA_SUPPORTED_CMS_ATTRIBUTES@ 00000001800800c8     const.obj
 0002:000090e8       ??_C@_0BH@LBLLCPA@CKA_ALLOWED_MECHANISMS@ 00000001800800e8     const.obj
 0002:00009100       ??_C@_0BD@PGOEHMGB@CKA_VENDOR_DEFINED@ 0000000180080100     const.obj
 0002:00009118       ??_C@_0P@LDEOADAA@CKF_RW_SESSION@ 0000000180080118     const.obj
 0002:00009128       ??_C@_0BD@FLGIELOP@CKF_SERIAL_SESSION@ 0000000180080128     const.obj
 0002:0000913c       ??_C@_06LNEBBADM@CKF_HW@   000000018008013c     const.obj
 0002:00009148       ??_C@_0M@LCMJOLHH@CKF_ENCRYPT@ 0000000180080148     const.obj
 0002:00009158       ??_C@_0M@HMGELPBD@CKF_DECRYPT@ 0000000180080158     const.obj
 0002:00009168       ??_C@_0L@PCCBHIGM@CKF_DIGEST@ 0000000180080168     const.obj
 0002:00009178       ??_C@_08NCJNKLCL@CKF_SIGN@ 0000000180080178     const.obj
 0002:00009188       ??_C@_0BB@FMHDGHCL@CKF_SIGN_RECOVER@ 0000000180080188     const.obj
 0002:000091a0       ??_C@_0L@DIDHINGM@CKF_VERIFY@ 00000001800801a0     const.obj
 0002:000091b0       ??_C@_0BD@JKFENIP@CKF_VERIFY_RECOVER@ 00000001800801b0     const.obj
 0002:000091c8       ??_C@_0N@NADAPAOM@CKF_GENERATE@ 00000001800801c8     const.obj
 0002:000091d8       ??_C@_0BG@ELHJDMBC@CKF_GENERATE_KEY_PAIR@ 00000001800801d8     const.obj
 0002:000091f0       ??_C@_08HAMJJOBI@CKF_WRAP@ 00000001800801f0     const.obj
 0002:00009200       ??_C@_0L@PIGNJFBA@CKF_UNWRAP@ 0000000180080200     const.obj
 0002:00009210       ??_C@_0L@DCCHPOKG@CKF_DERIVE@ 0000000180080210     const.obj
 0002:00009220       ??_C@_07LMLJMLFB@CKF_RNG@  0000000180080220     const.obj
 0002:00009228       ??_C@_0BE@OHHPDCDB@CKF_WRITE_PROTECTED@ 0000000180080228     const.obj
 0002:00009240       ??_C@_0BD@DLJPKAJI@CKF_LOGIN_REQUIRED@ 0000000180080240     const.obj
 0002:00009258       ??_C@_0BJ@EOIOMEJC@CKF_USER_PIN_INITIALIZED@ 0000000180080258     const.obj
 0002:00009278       ??_C@_0BL@MOAHCAHD@CKF_RESTORE_KEY_NOT_NEEDED@ 0000000180080278     const.obj
 0002:00009298       ??_C@_0BD@BBCNMFCH@CKF_CLOCK_ON_TOKEN@ 0000000180080298     const.obj
 0002:000092b0       ??_C@_0CC@GKJBDOMB@CKF_PROTECTED_AUTHENTICATION_PA@ 00000001800802b0     const.obj
 0002:000092d8       ??_C@_0BL@IICNNGGJ@CKF_DUAL_CRYPTO_OPERATIONS@ 00000001800802d8     const.obj
 0002:000092f8       ??_C@_0BG@FEGGHBFI@CKF_TOKEN_INITIALIZED@ 00000001800802f8     const.obj
 0002:00009310       ??_C@_0BN@GBMOAPJL@CKF_SECONDARY_AUTHENTICATION@ 0000000180080310     const.obj
 0002:00009330       ??_C@_0BH@BNOBOCHH@CKF_USER_PIN_COUNT_LOW@ 0000000180080330     const.obj
 0002:00009348       ??_C@_0BH@KPBOOPAG@CKF_USER_PIN_FINAL_TRY@ 0000000180080348     const.obj
 0002:00009360       ??_C@_0BE@DGMHOPHL@CKF_USER_PIN_LOCKED@ 0000000180080360     const.obj
 0002:00009378       ??_C@_0BL@JJJPLKGB@CKF_USER_PIN_TO_BE_CHANGED@ 0000000180080378     const.obj
 0002:00009398       ??_C@_0BF@MHPCNKHA@CKF_SO_PIN_COUNT_LOW@ 0000000180080398     const.obj
 0002:000093b0       ??_C@_0BF@HFANNHAB@CKF_SO_PIN_FINAL_TRY@ 00000001800803b0     const.obj
 0002:000093c8       ??_C@_0BC@EEEFGMMA@CKF_SO_PIN_LOCKED@ 00000001800803c8     const.obj
 0002:000093e0       ??_C@_0BJ@CJNJEMKI@CKF_SO_PIN_TO_BE_CHANGED@ 00000001800803e0     const.obj
 0002:00009400       ??_C@_0BA@ODKADHEH@CKF_ERROR_STATE@ 0000000180080400     const.obj
 0002:00009410       ??_C@_08MJIJIMGD@CKO_DATA@ 0000000180080410     const.obj
 0002:00009420       ??_C@_0BA@KIIJPOAM@CKO_CERTIFICATE@ 0000000180080420     const.obj
 0002:00009430       ??_C@_0P@DDMNKKJA@CKO_PUBLIC_KEY@ 0000000180080430     const.obj
 0002:00009440       ??_C@_0BA@MACCBKAF@CKO_PRIVATE_KEY@ 0000000180080440     const.obj
 0002:00009450       ??_C@_0P@CKLICCHE@CKO_SECRET_KEY@ 0000000180080450     const.obj
 0002:00009460       ??_C@_0P@FNCCNEKH@CKO_HW_FEATURE@ 0000000180080460     const.obj
 0002:00009470       ??_C@_0BG@JHAKICJD@CKO_DOMAIN_PARAMETERS@ 0000000180080470     const.obj
 0002:00009488       ??_C@_0O@CBCIMGMG@CKO_MECHANISM@ 0000000180080488     const.obj
 0002:00009498       ??_C@_0M@DEDDCLLD@CKO_OTP_KEY@ 0000000180080498     const.obj
 0002:000094a8       ??_C@_0BD@LHMAIEPH@CKO_VENDOR_DEFINED@ 00000001800804a8     const.obj
 0002:000094c0       ??_C@_07ECIDEPCK@CKK_RSA@  00000001800804c0     const.obj
 0002:000094c8       ??_C@_07DHPBEHGJ@CKK_DSA@  00000001800804c8     const.obj
 0002:000094d0       ??_C@_06IBJBCDHH@CKK_DH@   00000001800804d0     const.obj
 0002:000094d8       ??_C@_09EHHNGJJE@CKK_ECDSA@ 00000001800804d8     const.obj
 0002:000094e4       ??_C@_06GDKHJAIL@CKK_EC@   00000001800804e4     const.obj
 0002:000094f0       ??_C@_0N@BCIJHHFG@CKK_X9_42_DH@ 00000001800804f0     const.obj
 0002:00009500       ??_C@_07HHDJIIPN@CKK_KEA@  0000000180080500     const.obj
 0002:00009508       ??_C@_0BD@OLNKPNLG@CKK_GENERIC_SECRET@ 0000000180080508     const.obj
 0002:00009520       ??_C@_07FKLHMGGP@CKK_RC2@  0000000180080520     const.obj
 0002:00009528       ??_C@_07MONGBOJ@CKK_RC4@   0000000180080528     const.obj
 0002:00009530       ??_C@_07FHKOOIHI@CKK_DES@  0000000180080530     const.obj
 0002:00009538       ??_C@_08LDPJADJH@CKK_DES2@ 0000000180080538     const.obj
 0002:00009548       ??_C@_08KKOCDCNG@CKK_DES3@ 0000000180080548     const.obj
 0002:00009558       ??_C@_08LNBMIEPB@CKK_CAST@ 0000000180080558     const.obj
 0002:00009568       ??_C@_09DOGMLLDO@CKK_CAST3@ 0000000180080568     const.obj
 0002:00009578       ??_C@_09GIDGBMLI@CKK_CAST5@ 0000000180080578     const.obj
 0002:00009588       ??_C@_0M@IHAPAKJL@CKK_CAST128@ 0000000180080588     const.obj
 0002:00009598       ??_C@_07BFPGFAKI@CKK_RC5@  0000000180080598     const.obj
 0002:000095a0       ??_C@_08OPGMFFLE@CKK_IDEA@ 00000001800805a0     const.obj
 0002:000095b0       ??_C@_0N@LOMEFFDK@CKK_SKIPJACK@ 00000001800805b0     const.obj
 0002:000095c0       ??_C@_09OCAFBLAI@CKK_BATON@ 00000001800805c0     const.obj
 0002:000095d0       ??_C@_0M@GBNPIGIF@CKK_JUNIPER@ 00000001800805d0     const.obj
 0002:000095e0       ??_C@_08OEIOIKGK@CKK_CDMF@ 00000001800805e0     const.obj
 0002:000095f0       ??_C@_07GAHABIEK@CKK_AES@  00000001800805f0     const.obj
 0002:000095f8       ??_C@_0N@EGCADKMO@CKK_BLOWFISH@ 00000001800805f8     const.obj
 0002:00009608       ??_C@_0M@FDOKMNMN@CKK_TWOFISH@ 0000000180080608     const.obj
 0002:00009618       ??_C@_0M@MDPANNCO@CKK_SECURID@ 0000000180080618     const.obj
 0002:00009628       ??_C@_08ELDABBFC@CKK_HOTP@ 0000000180080628     const.obj
 0002:00009638       ??_C@_08JHPGGFID@CKK_ACTI@ 0000000180080638     const.obj
 0002:00009648       ??_C@_0N@KOMCPMJJ@CKK_CAMELLIA@ 0000000180080648     const.obj
 0002:00009658       ??_C@_08KDHEOPFC@CKK_ARIA@ 0000000180080658     const.obj
 0002:00009668       ??_C@_0N@CCDDGEEB@CKK_MD5_HMAC@ 0000000180080668     const.obj
 0002:00009678       ??_C@_0P@JIGDLMLH@CKK_SHA_1_HMAC@ 0000000180080678     const.obj
 0002:00009688       ??_C@_0BD@PDLMGBMB@CKK_RIPEMD128_HMAC@ 0000000180080688     const.obj
 0002:000096a0       ??_C@_0BD@EEBJCBFM@CKK_RIPEMD160_HMAC@ 00000001800806a0     const.obj
 0002:000096b8       ??_C@_0BA@CGOAOOOP@CKK_SHA256_HMAC@ 00000001800806b8     const.obj
 0002:000096c8       ??_C@_0BA@DNABPOFE@CKK_SHA384_HMAC@ 00000001800806c8     const.obj
 0002:000096d8       ??_C@_0BA@DCIEKJMP@CKK_SHA512_HMAC@ 00000001800806d8     const.obj
 0002:000096e8       ??_C@_0BA@LLLKPGNP@CKK_SHA224_HMAC@ 00000001800806e8     const.obj
 0002:000096f8       ??_C@_08PHEJLH@CKK_SEED@   00000001800806f8     const.obj
 0002:00009708       ??_C@_0O@LAHABEIA@CKK_GOSTR3410@ 0000000180080708     const.obj
 0002:00009718       ??_C@_0O@KJGLCFMB@CKK_GOSTR3411@ 0000000180080718     const.obj
 0002:00009728       ??_C@_0O@LBAAIONF@CKK_GOST28147@ 0000000180080728     const.obj
 0002:00009738       ??_C@_0BD@MEMIKDDI@CKK_VENDOR_DEFINED@ 0000000180080738     const.obj
 0002:00009750       ??_C@_0BK@OBHLJKJH@CKM_RSA_PKCS_KEY_PAIR_GEN@ 0000000180080750     const.obj
 0002:00009770       ??_C@_0N@OLBLKKAI@CKM_RSA_PKCS@ 0000000180080770     const.obj
 0002:00009780       ??_C@_0N@BPDMNCHE@CKM_RSA_9796@ 0000000180080780     const.obj
 0002:00009790       ??_C@_0O@HNECCHDE@CKM_RSA_X_509@ 0000000180080790     const.obj
 0002:000097a0       ??_C@_0BB@PFDLLNOO@CKM_MD2_RSA_PKCS@ 00000001800807a0     const.obj
 0002:000097b8       ??_C@_0BB@NMAAKIGN@CKM_MD5_RSA_PKCS@ 00000001800807b8     const.obj
 0002:000097d0       ??_C@_0BC@GEDKBFJH@CKM_SHA1_RSA_PKCS@ 00000001800807d0     const.obj
 0002:000097e8       ??_C@_0BH@KOJKGLEP@CKM_RIPEMD128_RSA_PKCS@ 00000001800807e8     const.obj
 0002:00009800       ??_C@_0BH@BHFPLBHF@CKM_RIPEMD160_RSA_PKCS@ 0000000180080800     const.obj
 0002:00009818       ??_C@_0BC@HHGGIMIL@CKM_RSA_PKCS_OAEP@ 0000000180080818     const.obj
 0002:00009830       ??_C@_0BL@DKJDPLF@CKM_RSA_X9_31_KEY_PAIR_GEN@ 0000000180080830     const.obj
 0002:00009850       ??_C@_0O@PFDEIGOP@CKM_RSA_X9_31@ 0000000180080850     const.obj
 0002:00009860       ??_C@_0BD@JFALCJIF@CKM_SHA1_RSA_X9_31@ 0000000180080860     const.obj
 0002:00009878       ??_C@_0BB@BJHMJPF@CKM_RSA_PKCS_PSS@ 0000000180080878     const.obj
 0002:00009890       ??_C@_0BG@NLCOAKHI@CKM_SHA1_RSA_PKCS_PSS@ 0000000180080890     const.obj
 0002:000098a8       ??_C@_0BF@PJEPAELN@CKM_DSA_KEY_PAIR_GEN@ 00000001800808a8     const.obj
 0002:000098c0       ??_C@_07OBKIKEHE@CKM_DSA@  00000001800808c0     const.obj
 0002:000098c8       ??_C@_0N@DFJLJJIG@CKM_DSA_SHA1@ 00000001800808c8     const.obj
 0002:000098d8       ??_C@_0P@GKHKEMFB@CKM_DSA_SHA224@ 00000001800808d8     const.obj
 0002:000098e8       ??_C@_0P@FNADDIFG@CKM_DSA_SHA256@ 00000001800808e8     const.obj
 0002:000098f8       ??_C@_0P@NPFBKOOC@CKM_DSA_SHA384@ 00000001800808f8     const.obj
 0002:00009908       ??_C@_0P@KDLBGNDH@CKM_DSA_SHA512@ 0000000180080908     const.obj
 0002:00009918       ??_C@_0BJ@MJHCJMDD@CKM_DH_PKCS_KEY_PAIR_GEN@ 0000000180080918     const.obj
 0002:00009938       ??_C@_0BD@EMECGPAM@CKM_DH_PKCS_DERIVE@ 0000000180080938     const.obj
 0002:00009950       ??_C@_0BK@NBLCIMC@CKM_X9_42_DH_KEY_PAIR_GEN@ 0000000180080950     const.obj
 0002:00009970       ??_C@_0BE@DMJPFJAH@CKM_X9_42_DH_DERIVE@ 0000000180080970     const.obj
 0002:00009988       ??_C@_0BL@GBPDDHLB@CKM_X9_42_DH_HYBRID_DERIVE@ 0000000180080988     const.obj
 0002:000099a8       ??_C@_0BF@IHFMHLNP@CKM_X9_42_MQV_DERIVE@ 00000001800809a8     const.obj
 0002:000099c0       ??_C@_0BE@BMOIGCLP@CKM_SHA256_RSA_PKCS@ 00000001800809c0     const.obj
 0002:000099d8       ??_C@_0BE@HLNADBF@CKM_SHA384_RSA_PKCS@ 00000001800809d8     const.obj
 0002:000099f0       ??_C@_0BE@NCEECMBK@CKM_SHA512_RSA_PKCS@ 00000001800809f0     const.obj
 0002:00009a08       ??_C@_0BI@CMGKNOP@CKM_SHA256_RSA_PKCS_PSS@ 0000000180080a08     const.obj
 0002:00009a20       ??_C@_0BI@CEKMJFGE@CKM_SHA384_RSA_PKCS_PSS@ 0000000180080a20     const.obj
 0002:00009a38       ??_C@_0BI@HMBJPIEA@CKM_SHA512_RSA_PKCS_PSS@ 0000000180080a38     const.obj
 0002:00009a50       ??_C@_0BE@DABMDCPB@CKM_SHA224_RSA_PKCS@ 0000000180080a50     const.obj
 0002:00009a68       ??_C@_0BI@FHLJOEAL@CKM_SHA224_RSA_PKCS_PSS@ 0000000180080a68     const.obj
 0002:00009a80       ??_C@_0BA@GLCNOBHE@CKM_RC2_KEY_GEN@ 0000000180080a80     const.obj
 0002:00009a90       ??_C@_0M@HNFJBDHO@CKM_RC2_ECB@ 0000000180080a90     const.obj
 0002:00009aa0       ??_C@_0M@EAOLBHNE@CKM_RC2_CBC@ 0000000180080aa0     const.obj
 0002:00009ab0       ??_C@_0M@KCHCNOLO@CKM_RC2_MAC@ 0000000180080ab0     const.obj
 0002:00009ac0       ??_C@_0BE@FNMFPMO@CKM_RC2_MAC_GENERAL@ 0000000180080ac0     const.obj
 0002:00009ad8       ??_C@_0BA@OPAKMKMC@CKM_RC2_CBC_PAD@ 0000000180080ad8     const.obj
 0002:00009ae8       ??_C@_0BA@GGDDJBDD@CKM_RC4_KEY_GEN@ 0000000180080ae8     const.obj
 0002:00009af8       ??_C@_07NKLEICPE@CKM_RC4@  0000000180080af8     const.obj
 0002:00009b00       ??_C@_0BA@FOJIAMGF@CKM_DES_KEY_GEN@ 0000000180080b00     const.obj
 0002:00009b10       ??_C@_0M@GHPFMCBH@CKM_DES_ECB@ 0000000180080b10     const.obj
 0002:00009b20       ??_C@_0M@FKEHMGLN@CKM_DES_CBC@ 0000000180080b20     const.obj
 0002:00009b30       ??_C@_0M@LINOAPNH@CKM_DES_MAC@ 0000000180080b30     const.obj
 0002:00009b40       ??_C@_0BE@IDECLCBJ@CKM_DES_MAC_GENERAL@ 0000000180080b40     const.obj
 0002:00009b58       ??_C@_0BA@NKLPCHND@CKM_DES_CBC_PAD@ 0000000180080b58     const.obj
 0002:00009b68       ??_C@_0BB@BDCIAPFB@CKM_DES2_KEY_GEN@ 0000000180080b68     const.obj
 0002:00009b80       ??_C@_0BB@PMOKGEGP@CKM_DES3_KEY_GEN@ 0000000180080b80     const.obj
 0002:00009b98       ??_C@_0N@DADECIGL@CKM_DES3_ECB@ 0000000180080b98     const.obj
 0002:00009ba8       ??_C@_0N@NIGCMMB@CKM_DES3_CBC@ 0000000180080ba8     const.obj
 0002:00009bb8       ??_C@_0N@OPBPOFKL@CKM_DES3_MAC@ 0000000180080bb8     const.obj
 0002:00009bc8       ??_C@_0BF@IPOKBBFF@CKM_DES3_MAC_GENERAL@ 0000000180080bc8     const.obj
 0002:00009be0       ??_C@_0BB@HIMNEPNJ@CKM_DES3_CBC_PAD@ 0000000180080be0     const.obj
 0002:00009bf8       ??_C@_0BG@HIBJLFGI@CKM_DES3_CMAC_GENERAL@ 0000000180080bf8     const.obj
 0002:00009c10       ??_C@_0O@GMNNKMPE@CKM_DES3_CMAC@ 0000000180080c10     const.obj
 0002:00009c20       ??_C@_0BB@PGNMIPEJ@CKM_CDMF_KEY_GEN@ 0000000180080c20     const.obj
 0002:00009c38       ??_C@_0N@PEPBDONN@CKM_CDMF_ECB@ 0000000180080c38     const.obj
 0002:00009c48       ??_C@_0N@MJEDDKHH@CKM_CDMF_CBC@ 0000000180080c48     const.obj
 0002:00009c58       ??_C@_0N@CLNKPDBN@CKM_CDMF_MAC@ 0000000180080c58     const.obj
 0002:00009c68       ??_C@_0BF@MGMNKGJN@CKM_CDMF_MAC_GENERAL@ 0000000180080c68     const.obj
 0002:00009c80       ??_C@_0BB@HCPLKEPP@CKM_CDMF_CBC_PAD@ 0000000180080c80     const.obj
 0002:00009c98       ??_C@_0O@ICFOIGDM@CKM_DES_OFB64@ 0000000180080c98     const.obj
 0002:00009ca8       ??_C@_0N@OJEFCEGN@CKM_DES_OFB8@ 0000000180080ca8     const.obj
 0002:00009cb8       ??_C@_0O@PFJMEGEH@CKM_DES_CFB64@ 0000000180080cb8     const.obj
 0002:00009cc8       ??_C@_0N@CMLFMJGM@CKM_DES_CFB8@ 0000000180080cc8     const.obj
 0002:00009cd8       ??_C@_07IBNLHEDO@CKM_MD2@  0000000180080cd8     const.obj
 0002:00009ce0       ??_C@_0N@PCBJAIM@CKM_MD2_HMAC@ 0000000180080ce0     const.obj
 0002:00009cf0       ??_C@_0BF@NEKNCEJE@CKM_MD2_HMAC_GENERAL@ 0000000180080cf0     const.obj
 0002:00009d08       ??_C@_07MOJKOCPJ@CKM_MD5@  0000000180080d08     const.obj
 0002:00009d10       ??_C@_0N@MKIGKOAC@CKM_MD5_HMAC@ 0000000180080d10     const.obj
 0002:00009d20       ??_C@_0BF@EPKMCLIO@CKM_MD5_HMAC_GENERAL@ 0000000180080d20     const.obj
 0002:00009d38       ??_C@_09DCLGMACE@CKM_SHA_1@ 0000000180080d38     const.obj
 0002:00009d48       ??_C@_0P@DIIGGDGK@CKM_SHA_1_HMAC@ 0000000180080d48     const.obj
 0002:00009d58       ??_C@_0BH@NDJMGNPG@CKM_SHA_1_HMAC_GENERAL@ 0000000180080d58     const.obj
 0002:00009d70       ??_C@_0O@OGMFFKCN@CKM_RIPEMD128@ 0000000180080d70     const.obj
 0002:00009d80       ??_C@_0BD@FEIINGMJ@CKM_RIPEMD128_HMAC@ 0000000180080d80     const.obj
 0002:00009d98       ??_C@_0BL@ODNLBGKC@CKM_RIPEMD128_HMAC_GENERAL@ 0000000180080d98     const.obj
 0002:00009db8       ??_C@_0O@CJBFHIPJ@CKM_RIPEMD160@ 0000000180080db8     const.obj
 0002:00009dc8       ??_C@_0BD@ODCNJGFE@CKM_RIPEMD160_HMAC@ 0000000180080dc8     const.obj
 0002:00009de0       ??_C@_0BL@PIGDJGKC@CKM_RIPEMD160_HMAC_GENERAL@ 0000000180080de0     const.obj
 0002:00009e00       ??_C@_0L@HLGIEEGG@CKM_SHA256@ 0000000180080e00     const.obj
 0002:00009e10       ??_C@_0BA@NOCCKFFJ@CKM_SHA256_HMAC@ 0000000180080e10     const.obj
 0002:00009e20       ??_C@_0BI@FCAKPCFO@CKM_SHA256_HMAC_GENERAL@ 0000000180080e20     const.obj
 0002:00009e38       ??_C@_0L@EMBBDAGB@CKM_SHA224@ 0000000180080e38     const.obj
 0002:00009e48       ??_C@_0BA@EDHILNGJ@CKM_SHA224_HMAC@ 0000000180080e48     const.obj
 0002:00009e58       ??_C@_0BI@HHFLLLK@CKM_SHA224_HMAC_GENERAL@ 0000000180080e58     const.obj
 0002:00009e70       ??_C@_0L@PJDKNCNC@CKM_SHA384@ 0000000180080e70     const.obj
 0002:00009e80       ??_C@_0BA@MFMDLFOC@CKM_SHA384_HMAC@ 0000000180080e80     const.obj
 0002:00009e90       ??_C@_0BI@HEGAMKNF@CKM_SHA384_HMAC_GENERAL@ 0000000180080e90     const.obj
 0002:00009ea8       ??_C@_0L@IFNKBBAH@CKM_SHA512@ 0000000180080ea8     const.obj
 0002:00009eb8       ??_C@_0BA@MKEGOCHJ@CKM_SHA512_HMAC@ 0000000180080eb8     const.obj
 0002:00009ec8       ??_C@_0BI@CMNFKHPB@CKM_SHA512_HMAC_GENERAL@ 0000000180080ec8     const.obj
 0002:00009ee0       ??_C@_0BE@NDDGGDLF@CKM_SECURID_KEY_GEN@ 0000000180080ee0     const.obj
 0002:00009ef8       ??_C@_0M@MOOOKNGJ@CKM_SECURID@ 0000000180080ef8     const.obj
 0002:00009f08       ??_C@_0BB@JPIMJPAF@CKM_HOTP_KEY_GEN@ 0000000180080f08     const.obj
 0002:00009f20       ??_C@_08CIOACEGI@CKM_HOTP@ 0000000180080f20     const.obj
 0002:00009f30       ??_C@_08PECGFALJ@CKM_ACTI@ 0000000180080f30     const.obj
 0002:00009f40       ??_C@_0BB@MGKIHCEO@CKM_ACTI_KEY_GEN@ 0000000180080f40     const.obj
 0002:00009f58       ??_C@_0BB@LBKEEGEB@CKM_CAST_KEY_GEN@ 0000000180080f58     const.obj
 0002:00009f70       ??_C@_0N@MFOOHELK@CKM_CAST_ECB@ 0000000180080f70     const.obj
 0002:00009f80       ??_C@_0N@PIFMHABA@CKM_CAST_CBC@ 0000000180080f80     const.obj
 0002:00009f90       ??_C@_0N@BKMFLJHK@CKM_CAST_MAC@ 0000000180080f90     const.obj
 0002:00009fa0       ??_C@_0BF@JCFJAEHA@CKM_CAST_MAC_GENERAL@ 0000000180080fa0     const.obj
 0002:00009fb8       ??_C@_0BB@DFIDGNPH@CKM_CAST_CBC_PAD@ 0000000180080fb8     const.obj
 0002:00009fd0       ??_C@_0BC@MAAGLMPE@CKM_CAST3_KEY_GEN@ 0000000180080fd0     const.obj
 0002:00009fe8       ??_C@_0O@JIPBOMII@CKM_CAST3_ECB@ 0000000180080fe8     const.obj
 0002:00009ff8       ??_C@_0O@KFEDOICC@CKM_CAST3_CBC@ 0000000180080ff8     const.obj
 0002:0000a008       ??_C@_0O@EHNKCBEI@CKM_CAST3_MAC@ 0000000180081008     const.obj
 0002:0000a018       ??_C@_0BG@LLJFNDBP@CKM_CAST3_MAC_GENERAL@ 0000000180081018     const.obj
 0002:0000a030       ??_C@_0BC@EECBJHEC@CKM_CAST3_CBC_PAD@ 0000000180081030     const.obj
 0002:0000a048       ??_C@_0BC@MNBIMMLD@CKM_CAST5_KEY_GEN@ 0000000180081048     const.obj
 0002:0000a060       ??_C@_0BE@GKPDNDPI@CKM_CAST128_KEY_GEN@ 0000000180081060     const.obj
 0002:0000a078       ??_C@_0O@EOKIAPJF@CKM_CAST5_ECB@ 0000000180081078     const.obj
 0002:0000a088       ??_C@_0BA@MNEKEMIC@CKM_CAST128_ECB@ 0000000180081088     const.obj
 0002:0000a098       ??_C@_0O@HDBKALDP@CKM_CAST5_CBC@ 0000000180081098     const.obj
 0002:0000a0a8       ??_C@_0BA@PAPIEICI@CKM_CAST128_CBC@ 00000001800810a8     const.obj
 0002:0000a0b8       ??_C@_0O@JBIDMCFF@CKM_CAST5_MAC@ 00000001800810b8     const.obj
 0002:0000a0c8       ??_C@_0BA@BCGBIBEC@CKM_CAST128_MAC@ 00000001800810c8     const.obj
 0002:0000a0d8       ??_C@_0BG@EDFHJIKJ@CKM_CAST5_MAC_GENERAL@ 00000001800810d8     const.obj
 0002:0000a0f0       ??_C@_0BI@ONAALPLE@CKM_CAST128_MAC_GENERAL@ 00000001800810f0     const.obj
 0002:0000a108       ??_C@_0BC@EJDPOHAF@CKM_CAST5_CBC_PAD@ 0000000180081108     const.obj
 0002:0000a120       ??_C@_0BE@OONEPIEO@CKM_CAST128_CBC_PAD@ 0000000180081120     const.obj
 0002:0000a138       ??_C@_0BA@IJPBPKAN@CKM_RC5_KEY_GEN@ 0000000180081138     const.obj
 0002:0000a148       ??_C@_0M@GAFMCDMG@CKM_RC5_ECB@ 0000000180081148     const.obj
 0002:0000a158       ??_C@_0M@FNOOCHGM@CKM_RC5_CBC@ 0000000180081158     const.obj
 0002:0000a168       ??_C@_0M@LPHHOOAG@CKM_RC5_MAC@ 0000000180081168     const.obj
 0002:0000a178       ??_C@_0BE@GABBPFAO@CKM_RC5_MAC_GENERAL@ 0000000180081178     const.obj
 0002:0000a190       ??_C@_0BA@NNGNBLL@CKM_RC5_CBC_PAD@ 0000000180081190     const.obj
 0002:0000a1a0       ??_C@_0BB@JEJMBDFD@CKM_IDEA_KEY_GEN@ 00000001800811a0     const.obj
 0002:0000a1b8       ??_C@_0N@EPDFMKJM@CKM_IDEA_ECB@ 00000001800811b8     const.obj
 0002:0000a1c8       ??_C@_0N@HCIHMODG@CKM_IDEA_CBC@ 00000001800811c8     const.obj
 0002:0000a1d8       ??_C@_0N@JABOAHFM@CKM_IDEA_MAC@ 00000001800811d8     const.obj
 0002:0000a1e8       ??_C@_0BF@FOKFBPID@CKM_IDEA_MAC_GENERAL@ 00000001800811e8     const.obj
 0002:0000a200       ??_C@_0BB@BALLDIOF@CKM_IDEA_CBC_PAD@ 0000000180081200     const.obj
 0002:0000a218       ??_C@_0BL@NCMPGHNL@CKM_GENERIC_SECRET_KEY_GEN@ 0000000180081218     const.obj
 0002:0000a238       ??_C@_0BN@DLDCOLBJ@CKM_CONCATENATE_BASE_AND_KEY@ 0000000180081238     const.obj
 0002:0000a258       ??_C@_0BO@IINIHHLK@CKM_CONCATENATE_BASE_AND_DATA@ 0000000180081258     const.obj
 0002:0000a278       ??_C@_0BO@FKDIIACA@CKM_CONCATENATE_DATA_AND_BASE@ 0000000180081278     const.obj
 0002:0000a298       ??_C@_0BG@MNIFHBJK@CKM_XOR_BASE_AND_DATA@ 0000000180081298     const.obj
 0002:0000a2b0       ??_C@_0BJ@EDILCHAN@CKM_EXTRACT_KEY_FROM_KEY@ 00000001800812b0     const.obj
 0002:0000a2d0       ??_C@_0BM@NHKFNFEO@CKM_SSL3_PRE_MASTER_KEY_GEN@ 00000001800812d0     const.obj
 0002:0000a2f0       ??_C@_0BL@KCCJNLHH@CKM_SSL3_MASTER_KEY_DERIVE@ 00000001800812f0     const.obj
 0002:0000a310       ??_C@_0BM@HLLECAII@CKM_SSL3_KEY_AND_MAC_DERIVE@ 0000000180081310     const.obj
 0002:0000a330       ??_C@_0BO@KNJNAFCK@CKM_SSL3_MASTER_KEY_DERIVE_DH@ 0000000180081330     const.obj
 0002:0000a350       ??_C@_0BL@LJLIOIBN@CKM_TLS_PRE_MASTER_KEY_GEN@ 0000000180081350     const.obj
 0002:0000a370       ??_C@_0BK@NEBCGPOA@CKM_TLS_MASTER_KEY_DERIVE@ 0000000180081370     const.obj
 0002:0000a390       ??_C@_0BL@BFKJBNNL@CKM_TLS_KEY_AND_MAC_DERIVE@ 0000000180081390     const.obj
 0002:0000a3b0       ??_C@_0BN@GEGDCJLB@CKM_TLS_MASTER_KEY_DERIVE_DH@ 00000001800813b0     const.obj
 0002:0000a3d0       ??_C@_0M@JAJJBNAB@CKM_TLS_PRF@ 00000001800813d0     const.obj
 0002:0000a3e0       ??_C@_0BB@CJIBEHBL@CKM_SSL3_MD5_MAC@ 00000001800813e0     const.obj
 0002:0000a3f8       ??_C@_0BC@BLBOONOH@CKM_SSL3_SHA1_MAC@ 00000001800813f8     const.obj
 0002:0000a410       ??_C@_0BH@NOFOKBGP@CKM_MD5_KEY_DERIVATION@ 0000000180081410     const.obj
 0002:0000a428       ??_C@_0BH@POMMNNCE@CKM_MD2_KEY_DERIVATION@ 0000000180081428     const.obj
 0002:0000a440       ??_C@_0BI@NGNLOANI@CKM_SHA1_KEY_DERIVATION@ 0000000180081440     const.obj
 0002:0000a458       ??_C@_0BK@KAGJBDKG@CKM_SHA256_KEY_DERIVATION@ 0000000180081458     const.obj
 0002:0000a478       ??_C@_0BK@FABMMMNC@CKM_SHA384_KEY_DERIVATION@ 0000000180081478     const.obj
 0002:0000a498       ??_C@_0BK@JCPHGICE@CKM_SHA512_KEY_DERIVATION@ 0000000180081498     const.obj
 0002:0000a4b8       ??_C@_0BK@JFHLIJAF@CKM_SHA224_KEY_DERIVATION@ 00000001800814b8     const.obj
 0002:0000a4d8       ??_C@_0BE@KKBFPBMN@CKM_PBE_MD2_DES_CBC@ 00000001800814d8     const.obj
 0002:0000a4f0       ??_C@_0BE@EIMJOKLE@CKM_PBE_MD5_DES_CBC@ 00000001800814f0     const.obj
 0002:0000a508       ??_C@_0BF@IBJCEGJI@CKM_PBE_MD5_CAST_CBC@ 0000000180081508     const.obj
 0002:0000a520       ??_C@_0BG@EGFJCNAG@CKM_PBE_MD5_CAST3_CBC@ 0000000180081520     const.obj
 0002:0000a538       ??_C@_0BG@JAAAMOBL@CKM_PBE_MD5_CAST5_CBC@ 0000000180081538     const.obj
 0002:0000a550       ??_C@_0BI@OKBOHMKL@CKM_PBE_MD5_CAST128_CBC@ 0000000180081550     const.obj
 0002:0000a568       ??_C@_0BH@NJEBJDJE@CKM_PBE_SHA1_CAST5_CBC@ 0000000180081568     const.obj
 0002:0000a580       ??_C@_0BJ@EDNPJMCH@CKM_PBE_SHA1_CAST128_CBC@ 0000000180081580     const.obj
 0002:0000a5a0       ??_C@_0BF@MFEKAAIC@CKM_PBE_SHA1_RC4_128@ 00000001800815a0     const.obj
 0002:0000a5b8       ??_C@_0BE@OMMECEEP@CKM_PBE_SHA1_RC4_40@ 00000001800815b8     const.obj
 0002:0000a5d0       ??_C@_0BK@JEIMHKND@CKM_PBE_SHA1_DES3_EDE_CBC@ 00000001800815d0     const.obj
 0002:0000a5f0       ??_C@_0BK@HLEOBBON@CKM_PBE_SHA1_DES2_EDE_CBC@ 00000001800815f0     const.obj
 0002:0000a610       ??_C@_0BJ@DAHOHFOG@CKM_PBE_SHA1_RC2_128_CBC@ 0000000180081610     const.obj
 0002:0000a630       ??_C@_0BI@BCKLIJGF@CKM_PBE_SHA1_RC2_40_CBC@ 0000000180081630     const.obj
 0002:0000a648       ??_C@_0BA@MPPPCCLA@CKM_PKCS5_PBKD2@ 0000000180081648     const.obj
 0002:0000a658       ??_C@_0BM@PGBFCDHB@CKM_PBA_SHA1_WITH_SHA1_HMAC@ 0000000180081658     const.obj
 0002:0000a678       ??_C@_0BM@KLDDLLJG@CKM_WTLS_PRE_MASTER_KEY_GEN@ 0000000180081678     const.obj
 0002:0000a698       ??_C@_0BL@OIKILELJ@CKM_WTLS_MASTER_KEY_DERIVE@ 0000000180081698     const.obj
 0002:0000a6b8       ??_C@_0CC@HGCABNL@CKM_WTLS_MASTER_KEY_DERIVE_DH_E@ 00000001800816b8     const.obj
 0002:0000a6e0       ??_C@_0N@JCEFCPPJ@CKM_WTLS_PRF@ 00000001800816e0     const.obj
 0002:0000a6f0       ??_C@_0CD@GNLPMPCJ@CKM_WTLS_SERVER_KEY_AND_MAC_DER@ 00000001800816f0     const.obj
 0002:0000a718       ??_C@_0CD@LKIEEMLE@CKM_WTLS_CLIENT_KEY_AND_MAC_DER@ 0000000180081718     const.obj
 0002:0000a740       ??_C@_0BD@OKGAENEH@CKM_KEY_WRAP_LYNKS@ 0000000180081740     const.obj
 0002:0000a758       ??_C@_0BG@DEGGLGNC@CKM_KEY_WRAP_SET_OAEP@ 0000000180081758     const.obj
 0002:0000a770       ??_C@_0BF@NNHPCMOP@CKM_CAMELLIA_KEY_GEN@ 0000000180081770     const.obj
 0002:0000a788       ??_C@_0BB@DANECFEA@CKM_CAMELLIA_ECB@ 0000000180081788     const.obj
 0002:0000a7a0       ??_C@_0BB@NGGCBOK@CKM_CAMELLIA_CBC@ 00000001800817a0     const.obj
 0002:0000a7b8       ??_C@_0BB@OPPPOIIA@CKM_CAMELLIA_MAC@ 00000001800817b8     const.obj
 0002:0000a7d0       ??_C@_0BJ@FMGFBFBH@CKM_CAMELLIA_MAC_GENERAL@ 00000001800817d0     const.obj
 0002:0000a7f0       ??_C@_0BF@FJFIAHFJ@CKM_CAMELLIA_CBC_PAD@ 00000001800817f0     const.obj
 0002:0000a808       ??_C@_0BO@LNNHHOHA@CKM_CAMELLIA_ECB_ENCRYPT_DATA@ 0000000180081808     const.obj
 0002:0000a828       ??_C@_0BO@NHAIDAB@CKM_CAMELLIA_CBC_ENCRYPT_DATA@ 0000000180081828     const.obj
 0002:0000a848       ??_C@_0BB@EGBENNDI@CKM_CAMELLIA_CTR@ 0000000180081848     const.obj
 0002:0000a860       ??_C@_0BB@CHKABKOF@CKM_ARIA_KEY_GEN@ 0000000180081860     const.obj
 0002:0000a878       ??_C@_0N@IJJJDKFM@CKM_ARIA_ECB@ 0000000180081878     const.obj
 0002:0000a888       ??_C@_0N@LECLDOPG@CKM_ARIA_CBC@ 0000000180081888     const.obj
 0002:0000a898       ??_C@_0N@FGLCPHJM@CKM_ARIA_MAC@ 0000000180081898     const.obj
 0002:0000a8a8       ??_C@_0BF@EIPGKOID@CKM_ARIA_MAC_GENERAL@ 00000001800818a8     const.obj
 0002:0000a8c0       ??_C@_0BB@KDIHDBFD@CKM_ARIA_CBC_PAD@ 00000001800818c0     const.obj
 0002:0000a8d8       ??_C@_0BK@ICNJOHMH@CKM_ARIA_ECB_ENCRYPT_DATA@ 00000001800818d8     const.obj
 0002:0000a8f8       ??_C@_0BK@DCHOBKLG@CKM_ARIA_CBC_ENCRYPT_DATA@ 00000001800818f8     const.obj
 0002:0000a918       ??_C@_0BB@GHEIFEIE@CKM_SEED_KEY_GEN@ 0000000180081918     const.obj
 0002:0000a930       ??_C@_0N@OKLMJDFO@CKM_SEED_ECB@ 0000000180081930     const.obj
 0002:0000a940       ??_C@_0N@NHAOJHPE@CKM_SEED_CBC@ 0000000180081940     const.obj
 0002:0000a950       ??_C@_0N@DFJHFOJO@CKM_SEED_MAC@ 0000000180081950     const.obj
 0002:0000a960       ??_C@_0BF@FBBDKGFL@CKM_SEED_MAC_GENERAL@ 0000000180081960     const.obj
 0002:0000a978       ??_C@_0BB@ODGPHPDC@CKM_SEED_CBC_PAD@ 0000000180081978     const.obj
 0002:0000a990       ??_C@_0BK@MKMBEAOD@CKM_SEED_ECB_ENCRYPT_DATA@ 0000000180081990     const.obj
 0002:0000a9b0       ??_C@_0BK@HKGGLNJC@CKM_SEED_CBC_ENCRYPT_DATA@ 00000001800819b0     const.obj
 0002:0000a9d0       ??_C@_0BF@JNDHCOKC@CKM_SKIPJACK_KEY_GEN@ 00000001800819d0     const.obj
 0002:0000a9e8       ??_C@_0BD@PLEDKDEI@CKM_SKIPJACK_ECB64@ 00000001800819e8     const.obj
 0002:0000aa00       ??_C@_0BD@KIMGAOIA@CKM_SKIPJACK_CBC64@ 0000000180081a00     const.obj
 0002:0000aa18       ??_C@_0BD@JCDIAPFO@CKM_SKIPJACK_OFB64@ 0000000180081a18     const.obj
 0002:0000aa30       ??_C@_0BD@OFPKMPCF@CKM_SKIPJACK_CFB64@ 0000000180081a30     const.obj
 0002:0000aa48       ??_C@_0BD@LFGLKKEI@CKM_SKIPJACK_CFB32@ 0000000180081a48     const.obj
 0002:0000aa60       ??_C@_0BD@NCIDLLCC@CKM_SKIPJACK_CFB16@ 0000000180081a60     const.obj
 0002:0000aa78       ??_C@_0BC@JAEGPBPG@CKM_SKIPJACK_CFB8@ 0000000180081a78     const.obj
 0002:0000aa90       ??_C@_0BC@HFDPFPIK@CKM_SKIPJACK_WRAP@ 0000000180081a90     const.obj
 0002:0000aaa8       ??_C@_0BK@MKGMCJAE@CKM_SKIPJACK_PRIVATE_WRAP@ 0000000180081aa8     const.obj
 0002:0000aac8       ??_C@_0BE@HHGJGCDH@CKM_SKIPJACK_RELAYX@ 0000000180081ac8     const.obj
 0002:0000aae0       ??_C@_0BF@IKHLGABC@CKM_KEA_KEY_PAIR_GEN@ 0000000180081ae0     const.obj
 0002:0000aaf8       ??_C@_0BD@LHFBDAI@CKM_KEA_KEY_DERIVE@ 0000000180081af8     const.obj
 0002:0000ab10       ??_C@_0BH@OAFJBGIE@CKM_FORTEZZA_TIMESTAMP@ 0000000180081b10     const.obj
 0002:0000ab28       ??_C@_0BC@KHPBPJKK@CKM_BATON_KEY_GEN@ 0000000180081b28     const.obj
 0002:0000ab40       ??_C@_0BB@IFLPLEJA@CKM_BATON_ECB128@ 0000000180081b40     const.obj
 0002:0000ab58       ??_C@_0BA@JIPJGEHA@CKM_BATON_ECB96@ 0000000180081b58     const.obj
 0002:0000ab68       ??_C@_0BB@BAFDHLLP@CKM_BATON_CBC128@ 0000000180081b68     const.obj
 0002:0000ab80       ??_C@_0BC@FOPNGGDE@CKM_BATON_COUNTER@ 0000000180081b80     const.obj
 0002:0000ab98       ??_C@_0BC@CHNDACFN@CKM_BATON_SHUFFLE@ 0000000180081b98     const.obj
 0002:0000abb0       ??_C@_0P@KAACMDHE@CKM_BATON_WRAP@ 0000000180081bb0     const.obj
 0002:0000abc0       ??_C@_0BH@LFKOBJKD@CKM_ECDSA_KEY_PAIR_GEN@ 0000000180081bc0     const.obj
 0002:0000abd8       ??_C@_0BE@KMPKBEBP@CKM_EC_KEY_PAIR_GEN@ 0000000180081bd8     const.obj
 0002:0000abf0       ??_C@_09IBBCGABD@CKM_ECDSA@ 0000000180081bf0     const.obj
 0002:0000ac00       ??_C@_0P@EKJCFLOL@CKM_ECDSA_SHA1@ 0000000180081c00     const.obj
 0002:0000ac10       ??_C@_0BB@MPEDIFCO@CKM_ECDSA_SHA224@ 0000000180081c10     const.obj
 0002:0000ac28       ??_C@_0BB@PIDKPBCJ@CKM_ECDSA_SHA256@ 0000000180081c28     const.obj
 0002:0000ac40       ??_C@_0BB@HKGIGHJN@CKM_ECDSA_SHA384@ 0000000180081c40     const.obj
 0002:0000ac58       ??_C@_0BB@GIIKEEI@CKM_ECDSA_SHA512@ 0000000180081c58     const.obj
 0002:0000ac70       ??_C@_0BB@BMMNGMPO@CKM_ECDH1_DERIVE@ 0000000180081c70     const.obj
 0002:0000ac88       ??_C@_0BK@FFLEIJJF@CKM_ECDH1_COFACTOR_DERIVE@ 0000000180081c88     const.obj
 0002:0000aca8       ??_C@_0BB@IEDJBEDE@CKM_ECMQV_DERIVE@ 0000000180081ca8     const.obj
 0002:0000acc0       ??_C@_0BE@PJNOFODH@CKM_JUNIPER_KEY_GEN@ 0000000180081cc0     const.obj
 0002:0000acd8       ??_C@_0BD@HEOBCHOI@CKM_JUNIPER_ECB128@ 0000000180081cd8     const.obj
 0002:0000acf0       ??_C@_0BD@OBANOIMH@CKM_JUNIPER_CBC128@ 0000000180081cf0     const.obj
 0002:0000ad08       ??_C@_0BE@NCMBKJ@CKM_JUNIPER_COUNTER@ 0000000180081d08     const.obj
 0002:0000ad20       ??_C@_0BE@HJPMKFMA@CKM_JUNIPER_SHUFFLE@ 0000000180081d20     const.obj
 0002:0000ad38       ??_C@_0BB@LEPBPOGP@CKM_JUNIPER_WRAP@ 0000000180081d38     const.obj
 0002:0000ad50       ??_C@_0N@DEBCKGMK@CKM_FASTHASH@ 0000000180081d50     const.obj
 0002:0000ad60       ??_C@_0BA@MGDLHLHF@CKM_AES_KEY_GEN@ 0000000180081d60     const.obj
 0002:0000ad70       ??_C@_0M@CPBFMMHD@CKM_AES_ECB@ 0000000180081d70     const.obj
 0002:0000ad80       ??_C@_0M@BCKHMINJ@CKM_AES_CBC@ 0000000180081d80     const.obj
 0002:0000ad90       ??_C@_0M@PADOABLD@CKM_AES_MAC@ 0000000180081d90     const.obj
 0002:0000ada0       ??_C@_0BE@PJBLGPAP@CKM_AES_MAC_GENERAL@ 0000000180081da0     const.obj
 0002:0000adb8       ??_C@_0BA@ECBMFAMD@CKM_AES_CBC_PAD@ 0000000180081db8     const.obj
 0002:0000adc8       ??_C@_0M@FJNFDEAL@CKM_AES_CTR@ 0000000180081dc8     const.obj
 0002:0000add8       ??_C@_0M@EAMOAFEK@CKM_AES_CTS@ 0000000180081dd8     const.obj
 0002:0000ade8       ??_C@_0N@HPKOBFEG@CKM_AES_CMAC@ 0000000180081de8     const.obj
 0002:0000adf8       ??_C@_0BF@PDNBPMPM@CKM_AES_CMAC_GENERAL@ 0000000180081df8     const.obj
 0002:0000ae10       ??_C@_0BF@GOHJEKBG@CKM_BLOWFISH_KEY_GEN@ 0000000180081e10     const.obj
 0002:0000ae28       ??_C@_0BB@MAHAHCH@CKM_BLOWFISH_CBC@ 0000000180081e28     const.obj
 0002:0000ae40       ??_C@_0BE@MKPMNLBE@CKM_TWOFISH_KEY_GEN@ 0000000180081e40     const.obj
 0002:0000ae58       ??_C@_0BA@CIMJIJPH@CKM_TWOFISH_CBC@ 0000000180081e58     const.obj
 0002:0000ae68       ??_C@_0M@CIEBIDH@CKM_AES_GCM@ 0000000180081e68     const.obj
 0002:0000ae78       ??_C@_0M@INOGIPGA@CKM_AES_CCM@ 0000000180081e78     const.obj
 0002:0000ae88       ??_C@_0BB@DMGAFMAF@CKM_AES_KEY_WRAP@ 0000000180081e88     const.obj
 0002:0000aea0       ??_C@_0BF@IMOJAKII@CKM_AES_KEY_WRAP_PAD@ 0000000180081ea0     const.obj
 0002:0000aeb8       ??_C@_0BF@OKFOGBKA@CKM_BLOWFISH_CBC_PAD@ 0000000180081eb8     const.obj
 0002:0000aed0       ??_C@_0BE@EONLPAKC@CKM_TWOFISH_CBC_PAD@ 0000000180081ed0     const.obj
 0002:0000aee8       ??_C@_0BJ@OJPJGIBI@CKM_DES_ECB_ENCRYPT_DATA@ 0000000180081ee8     const.obj
 0002:0000af08       ??_C@_0BJ@FJFOJFGJ@CKM_DES_CBC_ENCRYPT_DATA@ 0000000180081f08     const.obj
 0002:0000af28       ??_C@_0BK@FAPKCIGP@CKM_DES3_ECB_ENCRYPT_DATA@ 0000000180081f28     const.obj
 0002:0000af48       ??_C@_0BK@OAFNNFBO@CKM_DES3_CBC_ENCRYPT_DATA@ 0000000180081f48     const.obj
 0002:0000af68       ??_C@_0BJ@GENKOPDN@CKM_AES_ECB_ENCRYPT_DATA@ 0000000180081f68     const.obj
 0002:0000af88       ??_C@_0BJ@NEHNBCEM@CKM_AES_CBC_ENCRYPT_DATA@ 0000000180081f88     const.obj
 0002:0000afa8       ??_C@_0BL@NPBHOGHC@CKM_GOSTR3410_KEY_PAIR_GEN@ 0000000180081fa8     const.obj
 0002:0000afc8       ??_C@_0O@FPENLBGA@CKM_GOSTR3410@ 0000000180081fc8     const.obj
 0002:0000afd8       ??_C@_0BN@KBAAKHGA@CKM_GOSTR3410_WITH_GOSTR3411@ 0000000180081fd8     const.obj
 0002:0000aff8       ??_C@_0BH@IANPANIH@CKM_GOSTR3410_KEY_WRAP@ 0000000180081ff8     const.obj
 0002:0000b010       ??_C@_0BF@ELAKEGLI@CKM_GOSTR3410_DERIVE@ 0000000180082010     const.obj
 0002:0000b028       ??_C@_0O@EGFGIACB@CKM_GOSTR3411@ 0000000180082028     const.obj
 0002:0000b038       ??_C@_0BD@IJMDNIHF@CKM_GOSTR3411_HMAC@ 0000000180082038     const.obj
 0002:0000b050       ??_C@_0BG@HPNFBDGF@CKM_GOST28147_KEY_GEN@ 0000000180082050     const.obj
 0002:0000b068       ??_C@_0BC@LDMMHLNE@CKM_GOST28147_ECB@ 0000000180082068     const.obj
 0002:0000b080       ??_C@_0O@FODNCLDF@CKM_GOST28147@ 0000000180082080     const.obj
 0002:0000b090       ??_C@_0BC@GMOHLGBE@CKM_GOST28147_MAC@ 0000000180082090     const.obj
 0002:0000b0a8       ??_C@_0BH@CBGOKCAJ@CKM_GOST28147_KEY_WRAP@ 00000001800820a8     const.obj
 0002:0000b0c0       ??_C@_0BG@DPNLPBHD@CKM_DSA_PARAMETER_GEN@ 00000001800820c0     const.obj
 0002:0000b0d8       ??_C@_0BK@DFOLGCMM@CKM_DH_PKCS_PARAMETER_GEN@ 00000001800820d8     const.obj
 0002:0000b0f8       ??_C@_0BL@PPJFMJPC@CKM_X9_42_DH_PARAMETER_GEN@ 00000001800820f8     const.obj
 0002:0000b118       ??_C@_0M@EGGDOOPM@CKM_AES_OFB@ 0000000180082118     const.obj
 0002:0000b128       ??_C@_0O@BDLFINAD@CKM_AES_CFB64@ 0000000180082128     const.obj
 0002:0000b138       ??_C@_0N@GGCCIMCD@CKM_AES_CFB8@ 0000000180082138     const.obj
 0002:0000b148       ??_C@_0P@BHNPBMMH@CKM_AES_CFB128@ 0000000180082148     const.obj
 0002:0000b158       ??_C@_0BF@LJNGLJHM@CKM_RSA_PKCS_TPM_1_1@ 0000000180082158     const.obj
 0002:0000b170       ??_C@_0BK@GLEFODON@CKM_RSA_PKCS_OAEP_TPM_1_1@ 0000000180082170     const.obj
 0002:0000b190       ??_C@_0BD@GDPMBEDA@CKM_VENDOR_DEFINED@ 0000000180082190     const.obj
 0002:0000b1a8       ??_C@_08CEGPCOPD@CKC_WTLS@ 00000001800821a8     const.obj
 0002:0000b1b8       ??_C@_09PADEFIJJ@CKC_X_509@ 00000001800821b8     const.obj
 0002:0000b1c8       ??_C@_0BE@LOMFCFIN@CKC_X_509_ATTR_CERT@ 00000001800821c8     const.obj
 0002:0000b1e0       ??_C@_0O@LNPKBFHL@CKG_MGF1_SHA1@ 00000001800821e0     const.obj
 0002:0000b1f0       ??_C@_0BA@BIBPOAMM@CKG_MGF1_SHA256@ 00000001800821f0     const.obj
 0002:0000b200       ??_C@_0BA@JKENHGHI@CKG_MGF1_SHA384@ 0000000180082200     const.obj
 0002:0000b210       ??_C@_0BA@OGKNLFKN@CKG_MGF1_SHA512@ 0000000180082210     const.obj
 0002:0000b220       ??_C@_0BA@CPGGJEML@CKG_MGF1_SHA224@ 0000000180082220     const.obj
 0002:0000b230       ??_C@_08PJNOIMHF@CKD_NULL@ 0000000180082230     const.obj
 0002:0000b240       ??_C@_0N@CEKIKENJ@CKD_SHA1_KDF@ 0000000180082240     const.obj
 0002:0000b250       ??_C@_0BC@JNMFLCOL@CKD_SHA1_KDF_ASN1@ 0000000180082250     const.obj
 0002:0000b268       ??_C@_0BJ@OBBAENNF@CKD_SHA1_KDF_CONCATENATE@ 0000000180082268     const.obj
 0002:0000b288       ??_C@_0P@CLDBBLAM@CKD_SHA224_KDF@ 0000000180082288     const.obj
 0002:0000b298       ??_C@_0P@KDFOIEIJ@CKD_SHA256_KDF@ 0000000180082298     const.obj
 0002:0000b2a8       ??_C@_0P@EDOLEENM@CKD_SHA384_KDF@ 00000001800822a8     const.obj
 0002:0000b2b8       ??_C@_0P@MGEFOLJF@CKD_SHA512_KDF@ 00000001800822b8     const.obj
 0002:0000b2c8       ??_C@_0BE@MEBPDIIH@CKD_CPDIVERSIFY_KDF@ 00000001800822c8     const.obj
 0002:0000b2e0       ??_C@_0BC@PGANCHEB@CK_PARAMS_AES_CBC@ 00000001800822e0     const.obj
 0002:0000b2f8       ??_C@_0BC@GJEMGAPI@CK_PARAMS_AES_CCM@ 00000001800822f8     const.obj
 0002:0000b310       ??_C@_0BC@OGCOPHKP@CK_PARAMS_AES_GCM@ 0000000180082310     const.obj
 0002:0000b328       ??_C@_0BH@POHNPNAB@CK_PARAMS_AES_GCM_v240@ 0000000180082328     const.obj
 0002:0000b340       ??_C@_0BD@LHIGNENH@CK_PARAMS_RSA_OAEP@ 0000000180082340     const.obj
 0002:0000b358       ??_C@_0BC@FLKDDIIK@CK_PARAMS_RSA_PSS@ 0000000180082358     const.obj
 0002:0000b370       ??_C@_0BA@DPPGFPFH@CK_PARAMS_EC_DH@ 0000000180082370     const.obj
 0002:0000b380       ??_C@_0CD@KMGFEEJ@CKF_LIBRARY_CANT_CREATE_OS_THRE@ 0000000180082380     const.obj
 0002:0000b3a8       ??_C@_0BC@LPGDCDHO@CKF_OS_LOCKING_OK@ 00000001800823a8     const.obj
 0002:0000b3bc       ??_C@_06IGJCJKG@CKU_SO@    00000001800823bc     const.obj
 0002:0000b3c8       ??_C@_08NBLMOGBA@CKU_USER@ 00000001800823c8     const.obj
 0002:0000b3d8       ??_C@_0BF@FHFANCKO@CKU_CONTEXT_SPECIFIC@ 00000001800823d8     const.obj
 0002:0000b3ed       ??_C@_00CNPNBAHC@@         00000001800823ed     error.obj
 0002:0000b3f0       ??_C@_01EEMJAFIK@?6@       00000001800823f0     error.obj
 0002:0000b3f8       ??_C@_0BH@HHEKKLAD@?5?5?5?5at?5Error?5?$CInative?$CJ?5@ 00000001800823f8     error.obj
 0002:0000b410       ??_C@_01JLIPDDHJ@?3@       0000000180082410     error.obj
 0002:0000b418       ??_C@_0BA@JFNIOLAK@string?5too?5long@ 0000000180082418     error.obj
 0002:0000b428       ??_7?$_Ref_count@V?$basic_string@DU?$char_traits@D@std@@V?$allocator@D@2@@std@@@std@@6B@ 0000000180082428     error.obj
 0002:0000b450       ??_C@_1HO@EIMGKFNC@?$AAc?$AA?3?$AA?2?$AAu?$AAs?$AAe?$AAr?$AAs?$AA?2?$AAc?$AAu?$AAp?$AAs?$AA?2?$AAd@ 0000000180082450     template.obj
 0002:0000b4d0       ??_C@_1BO@OPFMAOCA@?$AAl?$AAe?$AAn?$AA?5?$AA?$DM?$AA?$DN?$AA?5?$AAI?$AAN?$AAT?$AA_?$AAM?$AAA?$AAX@ 00000001800824d0     template.obj
 0002:0000b4f0       ??_C@_1BE@CKDJNAPC@?$AAs?$AAt?$AAr?$AA_?$AA?5?$AA?$CB?$AA?$DN?$AA?5?$AA0@ 00000001800824f0     template.obj
 0002:0000b508       ??_C@_0O@NIPGCINC@Unknown?5error@ 0000000180082508     template.obj
 0002:0000b518       ??_C@_0O@MEKKFKMC@v2c_ATTRIBUTE@ 0000000180082518     template.obj
 0002:0000b528       ??_C@_0BL@PHLKAJDF@Parameter?51?5MUST?5be?5Object@ 0000000180082528     template.obj
 0002:0000b544       ??_C@_04GPMDFGEJ@type@     0000000180082544     template.obj
 0002:0000b550       ??_C@_0BN@CMBFNKCC@Member?5?8type?8?5MUST?5be?5Number@ 0000000180082550     template.obj
 0002:0000b570       ??_C@_05MFEJDJP@value@     0000000180082570     template.obj
 0002:0000b578       ??_C@_0CD@PKLDBAPO@Member?5?8value?8?5MUST?5has?5wrong?5t@ 0000000180082578     template.obj
 0002:0000b5a0       ??_C@_0O@LCAAJCCP@c2v_ATTRIBUTE@ 00000001800825a0     template.obj
 0002:0000b5b0       ??_C@_0BF@KENGPIJN@Parameter?51?5is?5EMPTY@ 00000001800825b0     template.obj
 0002:0000b5c8       ??_C@_0BB@FPOGEKLC@Attributes?3?3Push@ 00000001800825c8     template.obj
 0002:0000b5e0       ??_C@_0BD@LEJBMGFG@Attributes?3?3FromV8@ 00000001800825e0     template.obj
 0002:0000b5f8       ??_C@_0BK@PHFFAGDE@Parameter?51?5MUST?5be?5Array@ 00000001800825f8     template.obj
 0002:0000b614       ??_C@_06IJDLPEM@length@    0000000180082614     template.obj
 0002:0000b620       ??_C@_0BB@BBPPICNG@Attributes?3?3ToV8@ 0000000180082620     template.obj
 0002:0000b638       ??_C@_0CD@HBLLEJID@V8Converter?$DMstruct?5TEMPLATE?$DO?3?3T@ 0000000180082638     template.obj
 0002:0000b660       ??_C@_0BA@IOJHHLDM@Not?5implemented@ 0000000180082660     template.obj
 0002:0000b670       ??_C@_0CF@HPOLBEDL@V8Converter?$DMstruct?5TEMPLATE?$DO?3?3F@ 0000000180082670     template.obj
 0002:0000b698       ??_7?$V8Converter@UTEMPLATE@@@@6B@ 0000000180082698     template.obj
 0002:0000b6b8       ??_7Attributes@@6B@        00000001800826b8     template.obj
 0002:0000b6d8       ??_7?$_Ref_count@VError@@@std@@6B@ 00000001800826d8     template.obj
 0002:0000b6f8       ??_7?$_Ref_count@UCK_ATTRIBUTE@@@std@@6B@ 00000001800826f8     template.obj
 0002:0000b718       ??_C@_0BC@LLPBBJHL@Mechanism?3?3FromV8@ 0000000180082718     mech.obj
 0002:0000b730       ??_C@_09ONMFBHMB@mechanism@ 0000000180082730     mech.obj
 0002:0000b740       ??_C@_0CF@KOEEJHBJ@Attribute?5?8mechanism?8?5MUST?5be?5N@ 0000000180082740     mech.obj
 0002:0000b768       ??_C@_09DAGAJHIH@parameter@ 0000000180082768     mech.obj
 0002:0000b778       ??_C@_0DF@LILFIINM@Attribute?5?8parameter?8?5MUST?5be?5N@ 0000000180082778     mech.obj
 0002:0000b7b0       ??_C@_0BP@JKFGFBNH@Unknown?5type?5Mech?5param?5in?5use@ 00000001800827b0     mech.obj
 0002:0000b7d0       ??_C@_0BA@IHGIBOEJ@Mechanism?3?3ToV8@ 00000001800827d0     mech.obj
 0002:0000b7e0       ??_C@_0CH@MFMBINPM@V8Converter?$DMstruct?5CK_MECHANISM@ 00000001800827e0     mech.obj
 0002:0000b808       ??_C@_0CJ@ELEFMDNB@V8Converter?$DMstruct?5CK_MECHANISM@ 0000000180082808     mech.obj
 0002:0000b838       ??_7?$_Ref_count@VParamAesGCM@@@std@@6B@ 0000000180082838     mech.obj
 0002:0000b838       ??_7?$_Ref_count@VParamRsaOAEP@@@std@@6B@ 0000000180082838     mech.obj
 0002:0000b838       ??_7?$_Ref_count@VParamRsaPSS@@@std@@6B@ 0000000180082838     mech.obj
 0002:0000b838       ??_7?$_Ref_count@VParamAesCCM@@@std@@6B@ 0000000180082838     mech.obj
 0002:0000b838       ??_7?$_Ref_count@VParamBuffer@@@std@@6B@ 0000000180082838     mech.obj
 0002:0000b838       ??_7?$_Ref_count@VParamAesCBC@@@std@@6B@ 0000000180082838     mech.obj
 0002:0000b838       ??_7?$_Ref_count@VParamAesGCMv240@@@std@@6B@ 0000000180082838     mech.obj
 0002:0000b838       ??_7?$_Ref_count@VAttributes@@@std@@6B@ 0000000180082838     pkcs11.obj
 0002:0000b838       ??_7?$_Ref_count@VParamEcdh1@@@std@@6B@ 0000000180082838     mech.obj
 0002:0000b838       ??_7?$_Ref_count@VMechanism@@@std@@6B@ 0000000180082838     node.obj
 0002:0000b858       ??_7ParamRsaOAEP@@6B@      0000000180082858     mech.obj
 0002:0000b878       ??_7ParamBuffer@@6B@       0000000180082878     mech.obj
 0002:0000b898       ??_7Mechanism@@6B@         0000000180082898     mech.obj
 0002:0000b8b8       ??_7ParamAesCBC@@6B@       00000001800828b8     mech.obj
 0002:0000b8d8       ??_7ParamAesCCM@@6B@       00000001800828d8     mech.obj
 0002:0000b8f8       ??_7ParamBase@@6B@         00000001800828f8     mech.obj
 0002:0000b918       ??_7ParamRsaPSS@@6B@       0000000180082918     mech.obj
 0002:0000b938       ??_7ParamEcdh1@@6B@        0000000180082938     mech.obj
 0002:0000b958       ??_7ParamAesGCMv240@@6B@   0000000180082958     mech.obj
 0002:0000b978       ??_7?$V8Converter@UCK_MECHANISM@@@@6B@ 0000000180082978     mech.obj
 0002:0000b998       ??_7ParamAesGCM@@6B@       0000000180082998     mech.obj
 0002:0000b9b8       ??_C@_0BE@EENKKFMG@ParamBuffer?3?3FromV8@ 00000001800829b8     param.obj
 0002:0000b9d0       ??_C@_0DM@MMIHLDEP@Cannot?5create?5ParamBuffer?4?5Para@ 00000001800829d0     param.obj
 0002:0000ba10       ??_C@_0BD@OLBABOEK@vector?$DMT?$DO?5too?5long@ 0000000180082a10     param.obj
 0002:0000ba28       ??_C@_0BE@DCDJDJKA@ParamAesCBC?3?3FromV8@ 0000000180082a28     param_aes.obj
 0002:0000ba3c       ??_C@_02DONNAIDC@iv@       0000000180082a3c     param_aes.obj
 0002:0000ba40       ??_C@_0BO@OOIIGGLM@Attribute?5?8iv?8?5MUST?5be?5BUFFER@ 0000000180082a40     param_aes.obj
 0002:0000ba60       ??_C@_04PJOLNDGD@data@     0000000180082a60     param_aes.obj
 0002:0000ba68       ??_C@_0CH@HAJGMIKE@Attribute?5?8data?8?5MUST?5be?5NULL?5?$HM@ 0000000180082a68     param_aes.obj
 0002:0000ba90       ??_C@_0BE@ONHONGND@ParamAesCCM?3?3FromV8@ 0000000180082a90     param_aes.obj
 0002:0000baa8       ??_C@_07LDPMHAML@dataLen@  0000000180082aa8     param_aes.obj
 0002:0000bab0       ??_C@_0CD@JFNEHNHP@Attribute?5?8dataLen?8?5MUST?5be?5NUM@ 0000000180082ab0     param_aes.obj
 0002:0000bad8       ??_C@_0CJ@NIJOFAE@Attribute?5?8nonce?8?5MUST?5be?5NULL?5@ 0000000180082ad8     param_aes.obj
 0002:0000bb04       ??_C@_03BFKFLPDB@aad@      0000000180082b04     param_aes.obj
 0002:0000bb08       ??_C@_0CH@HKFDBLIC@Attribute?5?8aad?8?5MUST?5be?5NULL?5?$HM?$HM@ 0000000180082b08     param_aes.obj
 0002:0000bb30       ??_C@_06PBGIHEKB@macLen@   0000000180082b30     param_aes.obj
 0002:0000bb38       ??_C@_0CC@GLIGMIKG@Attribute?5?8macLen?8?5MUST?5be?5NUMB@ 0000000180082b38     param_aes.obj
 0002:0000bb60       ??_C@_0BE@OOHIONKM@ParamAesGCM?3?3FromV8@ 0000000180082b60     param_aes.obj
 0002:0000bb78       ??_C@_07LJAAJOFG@tagBits@  0000000180082b78     param_aes.obj
 0002:0000bb80       ??_C@_0CD@LODIOKMN@Attribute?5?8tagBits?8?5MUST?5be?5NUM@ 0000000180082b80     param_aes.obj
 0002:0000bba4       ??_C@_06JCDBJOHC@ivBits@   0000000180082ba4     param_aes.obj
 0002:0000bbb0       ??_C@_0CC@IHDIBDMH@Attribute?5?8ivBits?8?5MUST?5be?5NUMB@ 0000000180082bb0     param_aes.obj
 0002:0000bbd8       ??_C@_0CG@BOJEAOPA@Attribute?5?8iv?8?5MUST?5be?5NULL?5?$HM?$HM?5@ 0000000180082bd8     param_aes.obj
 0002:0000bc00       ??_C@_0BI@BIFCNBFH@ParamAesGCMv240?3?3FromV8@ 0000000180082c00     param_aes.obj
 0002:0000bc18       ??_C@_0BF@CLLMPEPK@ParamRsaOAEP?3?3FromV8@ 0000000180082c18     param_rsa.obj
 0002:0000bc30       ??_C@_03GJMIBOLJ@mgf@      0000000180082c30     param_rsa.obj
 0002:0000bc38       ??_C@_0BP@NFGPJHCA@Attribute?5?8mgf?8?5MUST?5be?5NUMBER@ 0000000180082c38     param_rsa.obj
 0002:0000bc58       ??_C@_06OEKOLKIL@source@   0000000180082c58     param_rsa.obj
 0002:0000bc60       ??_C@_0CC@HCCFNMCI@Attribute?5?8source?8?5MUST?5be?5NUMB@ 0000000180082c60     param_rsa.obj
 0002:0000bc88       ??_C@_07NIDPGPFG@hashAlg@  0000000180082c88     param_rsa.obj
 0002:0000bc90       ??_C@_0CD@GBDPOIKL@Attribute?5?8hashAlg?8?5MUST?5be?5NUM@ 0000000180082c90     param_rsa.obj
 0002:0000bcb8       ??_C@_0L@GEIFAJHP@sourceData@ 0000000180082cb8     param_rsa.obj
 0002:0000bcc8       ??_C@_0CO@HOHCJIHI@Attribute?5?8sourceData?8?5MUST?5be?5@ 0000000180082cc8     param_rsa.obj
 0002:0000bcf8       ??_C@_0BE@BOFNANDC@ParamRsaPSS?3?3FromV8@ 0000000180082cf8     param_rsa.obj
 0002:0000bd10       ??_C@_07ICAHNAPN@saltLen@  0000000180082d10     param_rsa.obj
 0002:0000bd18       ??_C@_0CD@NNEMMLN@Attribute?5?8saltLen?8?5MUST?5be?5NUM@ 0000000180082d18     param_rsa.obj
 0002:0000bd40       ??_C@_0BD@LJEHMEIF@ParamEcdh1?3?3FromV8@ 0000000180082d40     param_ecdh.obj
 0002:0000bd54       ??_C@_03EOOFPPDM@kdf@      0000000180082d54     param_ecdh.obj
 0002:0000bd58       ??_C@_0BP@PCBKIMFM@Attribute?5?8kdf?8?5MUST?5be?5NUMBER@ 0000000180082d58     param_ecdh.obj
 0002:0000bd78       ??_C@_0L@NPPJOHOE@sharedData@ 0000000180082d78     param_ecdh.obj
 0002:0000bd88       ??_C@_0CN@KLKKFJGO@Attribute?5?8sharedData?8?5MUST?5be?5@ 0000000180082d88     param_ecdh.obj
 0002:0000bdb8       ??_C@_0L@BOFCMOKN@publicData@ 0000000180082db8     param_ecdh.obj
 0002:0000bdc8       ??_C@_0CG@GKLENOHI@Attribute?5?8publicData?8?5MUST?5be?5@ 0000000180082dc8     param_ecdh.obj
 0002:0000bdf0       ??_7?$_Ref_count_obj@UKEY_PAIR@@@std@@6B@ 0000000180082df0     pkcs11.obj
 0002:0000be10       ??_7?$_Ref_count_obj@UCK_TOKEN_INFO@@@std@@6B@ 0000000180082e10     pkcs11.obj
 0002:0000be30       ??_7?$_Ref_count_obj@UCK_MECHANISM_INFO@@@std@@6B@ 0000000180082e30     pkcs11.obj
 0002:0000be30       ??_7?$_Ref_count_obj@UCK_SESSION_INFO@@@std@@6B@ 0000000180082e30     pkcs11.obj
 0002:0000be50       ??_7?$_Ref_count_obj@UCK_INFO@@@std@@6B@ 0000000180082e50     pkcs11.obj
 0002:0000be70       ??_7?$_Ref_count_obj@UCK_SLOT_INFO@@@std@@6B@ 0000000180082e70     pkcs11.obj
 0002:0000be90       ??_C@_06MLBJGKKG@CKR_OK@   0000000180082e90     pkcs11.obj
 0002:0000be98       ??_C@_0L@JIDCKNME@CKR_CANCEL@ 0000000180082e98     pkcs11.obj
 0002:0000bea8       ??_C@_0BA@HHDKGBBP@CKR_HOST_MEMORY@ 0000000180082ea8     pkcs11.obj
 0002:0000beb8       ??_C@_0BE@FOAEJLLC@CKR_SLOT_ID_INVALID@ 0000000180082eb8     pkcs11.obj
 0002:0000bed0       ??_C@_0BC@BPPOLCIH@CKR_GENERAL_ERROR@ 0000000180082ed0     pkcs11.obj
 0002:0000bee8       ??_C@_0BE@DIFKEOGI@CKR_FUNCTION_FAILED@ 0000000180082ee8     pkcs11.obj
 0002:0000bf00       ??_C@_0BC@LNHMJFHC@CKR_ARGUMENTS_BAD@ 0000000180082f00     pkcs11.obj
 0002:0000bf18       ??_C@_0N@KFPEOGN@CKR_NO_EVENT@ 0000000180082f18     pkcs11.obj
 0002:0000bf28       ??_C@_0BL@NDINCBKJ@CKR_NEED_TO_CREATE_THREADS@ 0000000180082f28     pkcs11.obj
 0002:0000bf48       ??_C@_0O@OHMKMDKB@CKR_CANT_LOCK@ 0000000180082f48     pkcs11.obj
 0002:0000bf58       ??_C@_0BI@IDDIMLAI@CKR_ATTRIBUTE_READ_ONLY@ 0000000180082f58     pkcs11.obj
 0002:0000bf70       ??_C@_0BI@LPANBEIN@CKR_ATTRIBUTE_SENSITIVE@ 0000000180082f70     pkcs11.obj
 0002:0000bf88       ??_C@_0BL@CJHMMHEH@CKR_ATTRIBUTE_TYPE_INVALID@ 0000000180082f88     pkcs11.obj
 0002:0000bfa8       ??_C@_0BM@LMONJDMA@CKR_ATTRIBUTE_VALUE_INVALID@ 0000000180082fa8     pkcs11.obj
 0002:0000bfc8       ??_C@_0BB@HONBBNLK@CKR_DATA_INVALID@ 0000000180082fc8     pkcs11.obj
 0002:0000bfe0       ??_C@_0BD@BPCFCEOF@CKR_DATA_LEN_RANGE@ 0000000180082fe0     pkcs11.obj
 0002:0000bff8       ??_C@_0BB@OAEPJIAO@CKR_DEVICE_ERROR@ 0000000180082ff8     pkcs11.obj
 0002:0000c010       ??_C@_0BC@EDKNPIJF@CKR_DEVICE_MEMORY@ 0000000180083010     pkcs11.obj
 0002:0000c028       ??_C@_0BD@CLPGKOPG@CKR_DEVICE_REMOVED@ 0000000180083028     pkcs11.obj
 0002:0000c040       ??_C@_0BL@HMMBAKLE@CKR_ENCRYPTED_DATA_INVALID@ 0000000180083040     pkcs11.obj
 0002:0000c060       ??_C@_0BN@CHFIOLM@CKR_ENCRYPTED_DATA_LEN_RANGE@ 0000000180083060     pkcs11.obj
 0002:0000c080       ??_C@_0BG@GFNGJBLD@CKR_FUNCTION_CANCELED@ 0000000180083080     pkcs11.obj
 0002:0000c098       ??_C@_0BK@CPMALGEH@CKR_FUNCTION_NOT_PARALLEL@ 0000000180083098     pkcs11.obj
 0002:0000c0b8       ??_C@_0BL@FLCFPGMF@CKR_FUNCTION_NOT_SUPPORTED@ 00000001800830b8     pkcs11.obj
 0002:0000c0d8       ??_C@_0BH@JBCBCIHC@CKR_KEY_HANDLE_INVALID@ 00000001800830d8     pkcs11.obj
 0002:0000c0f0       ??_C@_0BD@DCCEPOIK@CKR_KEY_SIZE_RANGE@ 00000001800830f0     pkcs11.obj
 0002:0000c108       ??_C@_0BK@FBLHAPGA@CKR_KEY_TYPE_INCONSISTENT@ 0000000180083108     pkcs11.obj
 0002:0000c128       ??_C@_0BD@CADJPHKC@CKR_KEY_NOT_NEEDED@ 0000000180083128     pkcs11.obj
 0002:0000c140       ??_C@_0BA@PBNACHHM@CKR_KEY_CHANGED@ 0000000180083140     pkcs11.obj
 0002:0000c150       ??_C@_0P@CIJPGKMN@CKR_KEY_NEEDED@ 0000000180083150     pkcs11.obj
 0002:0000c160       ??_C@_0BF@GCBGIGLD@CKR_KEY_INDIGESTIBLE@ 0000000180083160     pkcs11.obj
 0002:0000c178       ??_C@_0BP@PCNBFOEJ@CKR_KEY_FUNCTION_NOT_PERMITTED@ 0000000180083178     pkcs11.obj
 0002:0000c198       ??_C@_0BG@IEKNAGOL@CKR_KEY_NOT_WRAPPABLE@ 0000000180083198     pkcs11.obj
 0002:0000c1b0       ??_C@_0BG@OIKHBDLJ@CKR_KEY_UNEXTRACTABLE@ 00000001800831b0     pkcs11.obj
 0002:0000c1c8       ??_C@_0BG@FIBINAPL@CKR_MECHANISM_INVALID@ 00000001800831c8     pkcs11.obj
 0002:0000c1e0       ??_C@_0BM@NHMBLBHF@CKR_MECHANISM_PARAM_INVALID@ 00000001800831e0     pkcs11.obj
 0002:0000c200       ??_C@_0BK@NIGFIGL@CKR_OBJECT_HANDLE_INVALID@ 0000000180083200     pkcs11.obj
 0002:0000c220       ??_C@_0BF@LACBDJFM@CKR_OPERATION_ACTIVE@ 0000000180083220     pkcs11.obj
 0002:0000c238       ??_C@_0BO@NIGNIKB@CKR_OPERATION_NOT_INITIALIZED@ 0000000180083238     pkcs11.obj
 0002:0000c258       ??_C@_0BC@PIDGDJNE@CKR_PIN_INCORRECT@ 0000000180083258     pkcs11.obj
 0002:0000c270       ??_C@_0BA@PDLKJELN@CKR_PIN_INVALID@ 0000000180083270     pkcs11.obj
 0002:0000c280       ??_C@_0BC@MEAAAEMN@CKR_PIN_LEN_RANGE@ 0000000180083280     pkcs11.obj
 0002:0000c298       ??_C@_0BA@PPOOFJBC@CKR_PIN_EXPIRED@ 0000000180083298     pkcs11.obj
 0002:0000c2a8       ??_C@_0P@JGPCDBMN@CKR_PIN_LOCKED@ 00000001800832a8     pkcs11.obj
 0002:0000c2b8       ??_C@_0BD@EFPEBFCO@CKR_SESSION_CLOSED@ 00000001800832b8     pkcs11.obj
 0002:0000c2d0       ??_C@_0BC@GFNLAALM@CKR_SESSION_COUNT@ 00000001800832d0     pkcs11.obj
 0002:0000c2e8       ??_C@_0BL@JFEIAJEO@CKR_SESSION_HANDLE_INVALID@ 00000001800832e8     pkcs11.obj
 0002:0000c308       ??_C@_0CD@CNJKDODF@CKR_SESSION_PARALLEL_NOT_SUPPOR@ 0000000180083308     pkcs11.obj
 0002:0000c330       ??_C@_0BG@NACFPKBK@CKR_SESSION_READ_ONLY@ 0000000180083330     pkcs11.obj
 0002:0000c348       ??_C@_0BD@CJEENIOI@CKR_SESSION_EXISTS@ 0000000180083348     pkcs11.obj
 0002:0000c360       ??_C@_0BN@FEECMDLD@CKR_SESSION_READ_ONLY_EXISTS@ 0000000180083360     pkcs11.obj
 0002:0000c380       ??_C@_0CB@MOHOJDLI@CKR_SESSION_READ_WRITE_SO_EXIST@ 0000000180083380     pkcs11.obj
 0002:0000c3a8       ??_C@_0BG@FJFGJBPL@CKR_SIGNATURE_INVALID@ 00000001800833a8     pkcs11.obj
 0002:0000c3c0       ??_C@_0BI@BCEJLCCN@CKR_SIGNATURE_LEN_RANGE@ 00000001800833c0     pkcs11.obj
 0002:0000c3d8       ??_C@_0BI@OKLBFCJN@CKR_TEMPLATE_INCOMPLETE@ 00000001800833d8     pkcs11.obj
 0002:0000c3f0       ??_C@_0BK@NFOMODKD@CKR_TEMPLATE_INCONSISTENT@ 00000001800833f0     pkcs11.obj
 0002:0000c410       ??_C@_0BG@GJCOFLCP@CKR_TOKEN_NOT_PRESENT@ 0000000180083410     pkcs11.obj
 0002:0000c428       ??_C@_0BJ@DKIDJOKM@CKR_TOKEN_NOT_RECOGNIZED@ 0000000180083428     pkcs11.obj
 0002:0000c448       ??_C@_0BK@LICPHIEK@CKR_TOKEN_WRITE_PROTECTED@ 0000000180083448     pkcs11.obj
 0002:0000c468       ??_C@_0CC@BHIKKBJK@CKR_UNWRAPPING_KEY_HANDLE_INVAL@ 0000000180083468     pkcs11.obj
 0002:0000c490       ??_C@_0BO@EDNGDMCF@CKR_UNWRAPPING_KEY_SIZE_RANGE@ 0000000180083490     pkcs11.obj
 0002:0000c4b0       ??_C@_0CF@FNADNHJM@CKR_UNWRAPPING_KEY_TYPE_INCONSI@ 00000001800834b0     pkcs11.obj
 0002:0000c4d8       ??_C@_0BL@HHCLDMIB@CKR_USER_ALREADY_LOGGED_IN@ 00000001800834d8     pkcs11.obj
 0002:0000c4f8       ??_C@_0BH@PHIJDFPC@CKR_USER_NOT_LOGGED_IN@ 00000001800834f8     pkcs11.obj
 0002:0000c510       ??_C@_0BN@CJFMMEDO@CKR_USER_PIN_NOT_INITIALIZED@ 0000000180083510     pkcs11.obj
 0002:0000c530       ??_C@_0BG@ECPOFDO@CKR_USER_TYPE_INVALID@ 0000000180083530     pkcs11.obj
 0002:0000c548       ??_C@_0CD@GJCCPLNL@CKR_USER_ANOTHER_ALREADY_LOGGED@ 0000000180083548     pkcs11.obj
 0002:0000c570       ??_C@_0BI@MGNIFGMM@CKR_USER_TOO_MANY_TYPES@ 0000000180083570     pkcs11.obj
 0002:0000c588       ??_C@_0BI@CPLHFH@CKR_WRAPPED_KEY_INVALID@ 0000000180083588     pkcs11.obj
 0002:0000c5a0       ??_C@_0BK@MCPGJNEM@CKR_WRAPPED_KEY_LEN_RANGE@ 00000001800835a0     pkcs11.obj
 0002:0000c5c0       ??_C@_0CA@DLBMIHED@CKR_WRAPPING_KEY_HANDLE_INVALID@ 00000001800835c0     pkcs11.obj
 0002:0000c5e0       ??_C@_0BM@OCCHBGKK@CKR_WRAPPING_KEY_SIZE_RANGE@ 00000001800835e0     pkcs11.obj
 0002:0000c600       ??_C@_0CD@FOJGMFK@CKR_WRAPPING_KEY_TYPE_INCONSIST@ 0000000180083600     pkcs11.obj
 0002:0000c628       ??_C@_0BO@GILEANPO@CKR_RANDOM_SEED_NOT_SUPPORTED@ 0000000180083628     pkcs11.obj
 0002:0000c648       ??_C@_0BC@JEFNGGNK@CKR_RANDOM_NO_RNG@ 0000000180083648     pkcs11.obj
 0002:0000c660       ??_C@_0BK@MMHDGADE@CKR_DOMAIN_PARAMS_INVALID@ 0000000180083660     pkcs11.obj
 0002:0000c680       ??_C@_0BF@DHOMKFCE@CKR_BUFFER_TOO_SMALL@ 0000000180083680     pkcs11.obj
 0002:0000c698       ??_C@_0BI@JPLEOJGD@CKR_SAVED_STATE_INVALID@ 0000000180083698     pkcs11.obj
 0002:0000c6b0       ??_C@_0BK@NJDKONLD@CKR_INFORMATION_SENSITIVE@ 00000001800836b0     pkcs11.obj
 0002:0000c6d0       ??_C@_0BF@EAMMCHLP@CKR_STATE_UNSAVEABLE@ 00000001800836d0     pkcs11.obj
 0002:0000c6e8       ??_C@_0BN@ODFNBLKM@CKR_CRYPTOKI_NOT_INITIALIZED@ 00000001800836e8     pkcs11.obj
 0002:0000c708       ??_C@_0CB@JBBGANIO@CKR_CRYPTOKI_ALREADY_INITIALIZE@ 0000000180083708     pkcs11.obj
 0002:0000c730       ??_C@_0O@GIMOJHGA@CKR_MUTEX_BAD@ 0000000180083730     pkcs11.obj
 0002:0000c740       ??_C@_0BF@NLNAHNBM@CKR_MUTEX_NOT_LOCKED@ 0000000180083740     pkcs11.obj
 0002:0000c758       ??_C@_0BB@NJDNOJFN@CKR_NEW_PIN_MODE@ 0000000180083758     pkcs11.obj
 0002:0000c770       ??_C@_0N@IBMCNMKC@CKR_NEXT_OTP@ 0000000180083770     pkcs11.obj
 0002:0000c780       ??_C@_0BM@BEBGKNGK@CKR_EXCEEDED_MAX_ITERATIONS@ 0000000180083780     pkcs11.obj
 0002:0000c7a0       ??_C@_0BK@DDACINGN@CKR_FIPS_SELF_TEST_FAILED@ 00000001800837a0     pkcs11.obj
 0002:0000c7c0       ??_C@_0BI@DBKJEDBC@CKR_LIBRARY_LOAD_FAILED@ 00000001800837c0     pkcs11.obj
 0002:0000c7d8       ??_C@_0BB@KHDMCHOF@CKR_PIN_TOO_WEAK@ 00000001800837d8     pkcs11.obj
 0002:0000c7f0       ??_C@_0BH@GOEMHDMP@CKR_PUBLIC_KEY_INVALID@ 00000001800837f0     pkcs11.obj
 0002:0000c808       ??_C@_0BG@GCNMIEKF@CKR_FUNCTION_REJECTED@ 0000000180083808     pkcs11.obj
 0002:0000c820       ??_C@_0BD@LCCPLOJI@CKR_VENDOR_DEFINED@ 0000000180083820     pkcs11.obj
 0002:0000c838       ??_C@_0N@MKGENLFL@PKCS11?3?3Load@ 0000000180083838     pkcs11.obj
 0002:0000c848       ??_C@_0BC@GHFGDNNP@C_GetFunctionList@ 0000000180083848     pkcs11.obj
 0002:0000c860       ??_C@_0CH@DNNJCGBB@Cannot?5load?5symbol?5?8C_GetFuncti@ 0000000180083860     pkcs11.obj
 0002:0000c888       ??_C@_0BF@NHDADFIO@PKCS11?3?3C_Initialize@ 0000000180083888     pkcs11.obj
 0002:0000c8a0       ??_C@_0BD@HFKPPCBN@PKCS11?3?3C_Finalize@ 00000001800838a0     pkcs11.obj
 0002:0000c8b8       ??_C@_0BC@DGJPFCGF@PKCS11?3?3C_GetInfo@ 00000001800838b8     pkcs11.obj
 0002:0000c8d0       ??_C@_0BG@BLCIOBIA@PKCS11?3?3C_GetSlotList@ 00000001800838d0     pkcs11.obj
 0002:0000c8e8       ??_C@_0BG@PNMEPMEI@PKCS11?3?3C_GetSlotInfo@ 00000001800838e8     pkcs11.obj
 0002:0000c900       ??_C@_0BH@KHAABBPA@PKCS11?3?3C_GetTokenInfo@ 0000000180083900     pkcs11.obj
 0002:0000c918       ??_C@_0BL@EPKKLPPO@PKCS11?3?3C_GetMechanismList@ 0000000180083918     pkcs11.obj
 0002:0000c938       ??_C@_0BL@KJEGKCDG@PKCS11?3?3C_GetMechanismInfo@ 0000000180083938     pkcs11.obj
 0002:0000c958       ??_C@_0BE@LNIIEJKM@PKCS11?3?3C_InitToken@ 0000000180083958     pkcs11.obj
 0002:0000c970       ??_C@_0BC@GIJBOCHD@PKCS11?3?3C_InitPIN@ 0000000180083970     pkcs11.obj
 0002:0000c988       ??_C@_0BB@JPMKLBGE@PKCS11?3?3C_SetPIN@ 0000000180083988     pkcs11.obj
 0002:0000c9a0       ??_C@_0BG@LGGPJDBL@PKCS11?3?3C_OpenSession@ 00000001800839a0     pkcs11.obj
 0002:0000c9b8       ??_C@_0BH@MGIEFLJC@PKCS11?3?3C_CloseSession@ 00000001800839b8     pkcs11.obj
 0002:0000c9d0       ??_C@_0BL@GMNHALFC@PKCS11?3?3C_CloseAllSessions@ 00000001800839d0     pkcs11.obj
 0002:0000c9f0       ??_C@_0BJ@PACCDHFG@PKCS11?3?3C_GetSessionInfo@ 00000001800839f0     pkcs11.obj
 0002:0000ca10       ??_C@_0BA@OPNCJBDF@PKCS11?3?3C_Login@ 0000000180083a10     pkcs11.obj
 0002:0000ca20       ??_C@_0BB@CIBHLJAN@PKCS11?3?3C_Logout@ 0000000180083a20     pkcs11.obj
 0002:0000ca38       ??_C@_0BK@MPHAHLBI@PKCS11?3?3C_FindObjectsInit@ 0000000180083a38     pkcs11.obj
 0002:0000ca58       ??_C@_0BG@DGNLMJNP@PKCS11?3?3C_FindObjects@ 0000000180083a58     pkcs11.obj
 0002:0000ca70       ??_C@_0BL@BOKHPLGB@PKCS11?3?3C_FindObjectsFinal@ 0000000180083a70     pkcs11.obj
 0002:0000ca90       ??_C@_0BM@JLHHILLF@PKCS11?3?3C_GetAttributeValue@ 0000000180083a90     pkcs11.obj
 0002:0000cab0       ??_C@_0BM@LOHMAAKL@PKCS11?3?3C_SetAttributeValue@ 0000000180083ab0     pkcs11.obj
 0002:0000cad0       ??_C@_0BH@CHBGJOPB@PKCS11?3?3C_CreateObject@ 0000000180083ad0     pkcs11.obj
 0002:0000cae8       ??_C@_0BF@OOHKGIDA@PKCS11?3?3C_CopyObject@ 0000000180083ae8     pkcs11.obj
 0002:0000cb00       ??_C@_0BI@DGAKEFNL@PKCS11?3?3C_DestroyObject@ 0000000180083b00     pkcs11.obj
 0002:0000cb18       ??_C@_0BI@IMOMJNK@PKCS11?3?3C_GetObjectSize@ 0000000180083b18     pkcs11.obj
 0002:0000cb30       ??_C@_0M@GMOFMBMI@crypto_init@ 0000000180083b30     pkcs11.obj
 0002:0000cb40       ??_C@_0O@KCMHGKKG@crypto_update@ 0000000180083b40     pkcs11.obj
 0002:0000cb50       ??_C@_0N@JINHLMAP@crypto_final@ 0000000180083b50     pkcs11.obj
 0002:0000cb60       ??_C@_0BG@GFIBLGCN@PKCS11?3?3C_EncryptInit@ 0000000180083b60     pkcs11.obj
 0002:0000cb78       ??_C@_0BC@MCMMMBCI@PKCS11?3?3C_Encrypt@ 0000000180083b78     pkcs11.obj
 0002:0000cb90       ??_C@_0BI@EPKPIAPE@PKCS11?3?3C_EncryptUpdate@ 0000000180083b90     pkcs11.obj
 0002:0000cba8       ??_C@_0BH@EILOMOIP@PKCS11?3?3C_EncryptFinal@ 0000000180083ba8     pkcs11.obj
 0002:0000cbc0       ??_C@_0BG@NNAFHNAG@PKCS11?3?3C_DecryptInit@ 0000000180083bc0     pkcs11.obj
 0002:0000cbd8       ??_C@_0BC@MGBJFEM@PKCS11?3?3C_Decrypt@ 0000000180083bd8     pkcs11.obj
 0002:0000cbf0       ??_C@_0BI@DFGJNOCB@PKCS11?3?3C_DecryptUpdate@ 0000000180083bf0     pkcs11.obj
 0002:0000cc08       ??_C@_0BH@OELKLDAE@PKCS11?3?3C_DecryptFinal@ 0000000180083c08     pkcs11.obj
 0002:0000cc20       ??_C@_0BF@MPFBHPIL@PKCS11?3?3C_DigestInit@ 0000000180083c20     pkcs11.obj
 0002:0000cc38       ??_C@_0BB@KGJBIIKB@PKCS11?3?3C_Digest@ 0000000180083c38     pkcs11.obj
 0002:0000cc50       ??_C@_0BH@FFEKELFP@PKCS11?3?3C_DigestUpdate@ 0000000180083c50     pkcs11.obj
 0002:0000cc68       ??_C@_0BG@HHKBBIJL@PKCS11?3?3C_DigestFinal@ 0000000180083c68     pkcs11.obj
 0002:0000cc80       ??_C@_0BE@FABMJCCI@PKCS11?3?3C_DigestKey@ 0000000180083c80     pkcs11.obj
 0002:0000cc98       ??_C@_0BD@COHJKENB@PKCS11?3?3C_SignInit@ 0000000180083c98     pkcs11.obj
 0002:0000ccb0       ??_C@_0P@CFBBJKFE@PKCS11?3?3C_Sign@ 0000000180083cb0     pkcs11.obj
 0002:0000ccc0       ??_C@_0BF@EBPBEPF@PKCS11?3?3C_SignUpdate@ 0000000180083cc0     pkcs11.obj
 0002:0000ccd8       ??_C@_0BE@PMPOIIKK@PKCS11?3?3C_SignFinal@ 0000000180083cd8     pkcs11.obj
 0002:0000ccf0       ??_C@_0BK@CLBOCCKD@PKCS11?3?3C_SignRecoverInit@ 0000000180083cf0     pkcs11.obj
 0002:0000cd10       ??_C@_0BG@OHMFPONB@PKCS11?3?3C_SignRecover@ 0000000180083d10     pkcs11.obj
 0002:0000cd28       ??_C@_0BF@BLHHFAMJ@PKCS11?3?3C_VerifyInit@ 0000000180083d28     pkcs11.obj
 0002:0000cd40       ??_C@_0BB@GMIHHNKB@PKCS11?3?3C_Verify@ 0000000180083d40     pkcs11.obj
 0002:0000cd58       ??_C@_0BH@DMNEIPKH@PKCS11?3?3C_VerifyUpdate@ 0000000180083d58     pkcs11.obj
 0002:0000cd70       ??_C@_0BG@OPKHBOAI@PKCS11?3?3C_VerifyFinal@ 0000000180083d70     pkcs11.obj
 0002:0000cd88       ??_C@_0BM@IJOJBNPH@PKCS11?3?3C_VerifyRecoverInit@ 0000000180083d88     pkcs11.obj
 0002:0000cda8       ??_C@_0BI@GCJIAFJC@PKCS11?3?3C_VerifyRecover@ 0000000180083da8     pkcs11.obj
 0002:0000cdc0       ??_C@_0BG@CEGOJKPC@PKCS11?3?3C_GenerateKey@ 0000000180083dc0     pkcs11.obj
 0002:0000cdd8       ??_C@_0BK@PKBAPFIE@PKCS11?3?3C_GenerateKeyPair@ 0000000180083dd8     pkcs11.obj
 0002:0000cdf8       ??_C@_0BC@JOEFNMFD@PKCS11?3?3C_WrapKey@ 0000000180083df8     pkcs11.obj
 0002:0000ce10       ??_C@_0BE@JJENIDAM@PKCS11?3?3C_UnwrapKey@ 0000000180083e10     pkcs11.obj
 0002:0000ce28       ??_C@_0BE@EIJOBLIG@PKCS11?3?3C_DeriveKey@ 0000000180083e28     pkcs11.obj
 0002:0000ce40       ??_C@_0BF@JPMABIP@PKCS11?3?3C_SeedRandom@ 0000000180083e40     pkcs11.obj
 0002:0000ce58       ??_C@_0BJ@LGPKAGP@PKCS11?3?3C_GenerateRandom@ 0000000180083e58     pkcs11.obj
 0002:0000ce78       ??_C@_0BI@CFPLBAOH@invalid?5string?5position@ 0000000180083e78     pkcs11.obj
 0002:0000ce90       ??_C@_1FM@LOELJOFK@?$AAs?$AAi?$AAz?$AAe?$AA?5?$AA?$DM?$AA?$DN?$AA?5?$AAi?$AAm?$AAp?$AA?3?$AA?3?$AAk?$AAM@ 0000000180083e90     async.obj
 0002:0000cef0       ??_C@_0L@BCENACFO@privateKey@ 0000000180083ef0     async.obj
 0002:0000cf00       ??_C@_09IDENFCJL@publicKey@ 0000000180083f00     async.obj
 0002:0000cf10       ??_C@_1IA@OHMGJDJM@?$AAc?$AA?3?$AA?2?$AAu?$AAs?$AAe?$AAr?$AAs?$AA?2?$AAc?$AAu?$AAp?$AAs?$AA?2?$AA?4@ 0000000180083f10     node.obj
 0002:0000cf90       ??_C@_1DG@OKCGPKIB@?$AAp?$AAe?$AAr?$AAs?$AAi?$AAs?$AAt?$AAe?$AAn?$AAt?$AA?$CI?$AA?$CJ?$AA?4?$AAI?$AAs@ 0000000180083f90     node.obj
 0002:0000cfc8       ??_C@_1CO@EGNPJLKI@?$AAp?$AAe?$AAr?$AAs?$AAi?$AAs?$AAt?$AAe?$AAn?$AAt?$AA?$CI?$AA?$CJ?$AA?4?$AAI?$AAs@ 0000000180083fc8     node.obj
 0002:0000d000       ??_C@_1EC@NOLNIHNJ@?$AAh?$AAa?$AAn?$AAd?$AAl?$AAe?$AA?9?$AA?$DO?$AAI?$AAn?$AAt?$AAe?$AAr?$AAn?$AAa@ 0000000180084000     node.obj
 0002:0000d048       ??_C@_1DA@FBGAEOIO@?$AA?$CB?$AAp?$AAe?$AAr?$AAs?$AAi?$AAs?$AAt?$AAe?$AAn?$AAt?$AA?$CI?$AA?$CJ?$AA?4?$AAI@ 0000000180084048     node.obj
 0002:0000d078       ??_C@_1CO@JCKLEFMA@?$AA?$CB?$AAp?$AAe?$AAr?$AAs?$AAi?$AAs?$AAt?$AAe?$AAn?$AAt?$AA?$CI?$AA?$CJ?$AA?4?$AAI@ 0000000180084078     node.obj
 0002:0000d0a8       ??_C@_1BE@GMLLOIPJ@?$AAr?$AAe?$AAf?$AAs?$AA_?$AA?5?$AA?$DO?$AA?5?$AA0@ 00000001800840a8     node.obj
 0002:0000d0c0       ??_C@_1CC@GBFLAAPF@?$AAw?$AAr?$AAa?$AAp?$AA?9?$AA?$DO?$AAr?$AAe?$AAf?$AAs?$AA_?$AA?5?$AA?$DN?$AA?$DN?$AA?5@ 00000001800840c0     node.obj
 0002:0000d0f0       ??_C@_1KK@FIAJFCAI@?$AAc?$AA?3?$AA?2?$AAu?$AAs?$AAe?$AAr?$AAs?$AA?2?$AAc?$AAu?$AAp?$AAs?$AA?2?$AAd@ 00000001800840f0     node.obj
 0002:0000d1a0       ??_C@_1FK@CBGIJHDF@?$AAv?$AAa?$AAl?$AAu?$AAe?$AA?4?$AAs?$AAi?$AAz?$AAe?$AA?$CI?$AA?$CJ?$AA?5?$AA?$DM?$AA?$DN@ 00000001800841a0     node.obj
 0002:0000d200       ??_C@_0BA@KEENCHNI@nan?3AsyncWorker@ 0000000180084200     node.obj
 0002:0000d210       ??_C@_0N@FDHHCDGC@v8_to_handle@ 0000000180084210     node.obj
 0002:0000d220       ??_C@_0CH@DHIFDOPA@Buffer?5size?5is?5less?5than?5CK_ULO@ 0000000180084220     node.obj
 0002:0000d248       ??_C@_05FEBMJMCL@major@    0000000180084248     node.obj
 0002:0000d250       ??_C@_05OLAOEALN@minor@    0000000180084250     node.obj
 0002:0000d258       ??_C@_05ILHMOJGN@slice@    0000000180084258     node.obj
 0002:0000d260       ??_C@_06BMGDJFJ@PKCS11@    0000000180084260     node.obj
 0002:0000d268       ??_C@_07DNOEMIL@libPath@   0000000180084268     node.obj
 0002:0000d270       ??_C@_04EONOHKEP@load@     0000000180084270     node.obj
 0002:0000d278       ??_C@_05LBOHBHFK@close@    0000000180084278     node.obj
 0002:0000d280       ??_C@_0N@ICFELPDB@C_Initialize@ 0000000180084280     node.obj
 0002:0000d290       ??_C@_0L@LCMAJGMD@C_Finalize@ 0000000180084290     node.obj
 0002:0000d2a0       ??_C@_09IOFDDIBO@C_GetInfo@ 00000001800842a0     node.obj
 0002:0000d2b0       ??_C@_0O@EAKDCLBH@C_GetSlotList@ 00000001800842b0     node.obj
 0002:0000d2c0       ??_C@_0O@KGEPDGNP@C_GetSlotInfo@ 00000001800842c0     node.obj
 0002:0000d2d0       ??_C@_0P@MJDAJMNN@C_GetTokenInfo@ 00000001800842d0     node.obj
 0002:0000d2e0       ??_C@_0BD@IBFDDKGC@C_GetMechanismList@ 00000001800842e0     node.obj
 0002:0000d2f8       ??_C@_0BD@GHLPCHKK@C_GetMechanismInfo@ 00000001800842f8     node.obj
 0002:0000d310       ??_C@_0M@NMCENJBL@C_InitToken@ 0000000180084310     node.obj
 0002:0000d320       ??_C@_09NAFNIIAI@C_InitPIN@ 0000000180084320     node.obj
 0002:0000d330       ??_C@_08OOAFMFFD@C_SetPIN@ 0000000180084330     node.obj
 0002:0000d340       ??_C@_0O@ONOEFJIM@C_OpenSession@ 0000000180084340     node.obj
 0002:0000d350       ??_C@_0P@KILENGLP@C_CloseSession@ 0000000180084350     node.obj
 0002:0000d360       ??_C@_0BD@KCCOIOMO@C_CloseAllSessions@ 0000000180084360     node.obj
 0002:0000d378       ??_C@_0BB@EDABPMBE@C_GetSessionInfo@ 0000000180084378     node.obj
 0002:0000d390       ??_C@_07JBCDCPHB@C_Login@  0000000180084390     node.obj
 0002:0000d398       ??_C@_08FJNIMNDK@C_Logout@ 0000000180084398     node.obj
 0002:0000d3a8       ??_C@_0P@EJCGBDNM@C_CreateObject@ 00000001800843a8     node.obj
 0002:0000d3b8       ??_C@_0N@LLBOOCIP@C_CopyObject@ 00000001800843b8     node.obj
 0002:0000d3c8       ??_C@_0BA@HDLLCJCD@C_DestroyObject@ 00000001800843c8     node.obj
 0002:0000d3d8       ??_C@_0BA@ENHPKFCC@C_GetObjectSize@ 00000001800843d8     node.obj
 0002:0000d3e8       ??_C@_0BC@FHBBHIGP@C_FindObjectsInit@ 00000001800843e8     node.obj
 0002:0000d400       ??_C@_0O@GNFAADEI@C_FindObjects@ 0000000180084400     node.obj
 0002:0000d410       ??_C@_0BD@NAFOHOPN@C_FindObjectsFinal@ 0000000180084410     node.obj
 0002:0000d428       ??_C@_0BE@GCAAKNFP@C_GetAttributeValue@ 0000000180084428     node.obj
 0002:0000d440       ??_C@_0BE@EHALCGEB@C_SetAttributeValue@ 0000000180084440     node.obj
 0002:0000d458       ??_C@_0O@DOAKHMLK@C_EncryptInit@ 0000000180084458     node.obj
 0002:0000d468       ??_C@_09HKAAKLFD@C_Encrypt@ 0000000180084468     node.obj
 0002:0000d478       ??_C@_0BA@KBOOMAM@C_EncryptUpdate@ 0000000180084478     node.obj
 0002:0000d488       ??_C@_0P@CGIOEDKC@C_EncryptFinal@ 0000000180084488     node.obj
 0002:0000d498       ??_C@_0O@IGIOLHJB@C_DecryptInit@ 0000000180084498     node.obj
 0002:0000d4a8       ??_C@_09LEKNPPDH@C_Decrypt@ 00000001800844a8     node.obj
 0002:0000d4b8       ??_C@_0BA@HANILCNJ@C_DecryptUpdate@ 00000001800844b8     node.obj
 0002:0000d4c8       ??_C@_0P@IKIKDOCJ@C_DecryptFinal@ 00000001800844c8     node.obj
 0002:0000d4d8       ??_C@_0N@JKDFPFDE@C_DigestInit@ 00000001800844d8     node.obj
 0002:0000d4e8       ??_C@_08NHFOPMJG@C_Digest@ 00000001800844e8     node.obj
 0002:0000d4f8       ??_C@_0P@DLHKMGHC@C_DigestUpdate@ 00000001800844f8     node.obj
 0002:0000d508       ??_C@_0O@CMCKNCAM@C_DigestFinal@ 0000000180084508     node.obj
 0002:0000d518       ??_C@_0M@DBLAACJP@C_DigestKey@ 0000000180084518     node.obj
 0002:0000d528       ??_C@_0L@OJBGMAAP@C_SignInit@ 0000000180084528     node.obj
 0002:0000d534       ??_C@_06GFNDGDFJ@C_Sign@   0000000180084534     node.obj
 0002:0000d540       ??_C@_0N@FBHLJOEK@C_SignUpdate@ 0000000180084540     node.obj
 0002:0000d550       ??_C@_0M@JNFCBIBN@C_SignFinal@ 0000000180084550     node.obj
 0002:0000d560       ??_C@_0BC@LDHPCBNE@C_SignRecoverInit@ 0000000180084560     node.obj
 0002:0000d578       ??_C@_0O@LMEODEEG@C_SignRecover@ 0000000180084578     node.obj
 0002:0000d588       ??_C@_0N@EOBDNKHG@C_VerifyInit@ 0000000180084588     node.obj
 0002:0000d598       ??_C@_08BNEIAJJG@C_Verify@ 0000000180084598     node.obj
 0002:0000d5a8       ??_C@_0P@FCOEACIK@C_VerifyUpdate@ 00000001800845a8     node.obj
 0002:0000d5b8       ??_C@_0O@LECMNEJP@C_VerifyFinal@ 00000001800845b8     node.obj
 0002:0000d5c8       ??_C@_0BE@HAJODLBN@C_VerifyRecoverInit@ 00000001800845c8     node.obj
 0002:0000d5e0       ??_C@_0BA@CHCJGJGK@C_VerifyRecover@ 00000001800845e0     node.obj
 0002:0000d5f0       ??_C@_0O@HPOFFAGF@C_GenerateKey@ 00000001800845f0     node.obj
 0002:0000d600       ??_C@_0BC@GCHBPGPD@C_GenerateKeyPair@ 0000000180084600     node.obj
 0002:0000d618       ??_C@_09CGIJLGCI@C_WrapKey@ 0000000180084618     node.obj
 0002:0000d628       ??_C@_0M@PIOBBDLL@C_UnwrapKey@ 0000000180084628     node.obj
 0002:0000d638       ??_C@_0M@CJDCILDB@C_DeriveKey@ 0000000180084638     node.obj
 0002:0000d648       ??_C@_0N@FMJIILDA@C_SeedRandom@ 0000000180084648     node.obj
 0002:0000d658       ??_C@_0BB@LIEMGLCN@C_GenerateRandom@ 0000000180084658     node.obj
 0002:0000d670       ??_C@_0N@OMAIHFDG@?5is?5REQUIRED@ 0000000180084670     node.obj
 0002:0000d680       ??_C@_0L@GAPENNGB@Parameter?5@ 0000000180084680     node.obj
 0002:0000d68c       ??_C@_06ENNEIMBA@String@   000000018008468c     node.obj
 0002:0000d698       ??_C@_0L@GBPGFPMI@?5?5MUST?5be?5@ 0000000180084698     node.obj
 0002:0000d6a4       ??_C@_05GECEPKB@flags@     00000001800846a4     node.obj
 0002:0000d6b0       ??_C@_0BC@HGDNBAPC@libraryParameters@ 00000001800846b0     node.obj
 0002:0000d6c8       ??_C@_0BG@DIHNBGCD@WPKCS11?3?3C_Initialize@ 00000001800846c8     node.obj
 0002:0000d6e0       ??_C@_0DE@KMFAMKKJ@Parameter?5has?5wrong?5type?4?5Shoul@ 00000001800846e0     node.obj
 0002:0000d718       ??_C@_0BA@CCPJBLAF@cryptokiVersion@ 0000000180084718     node.obj
 0002:0000d728       ??_C@_0P@IHICGLLO@manufacturerID@ 0000000180084728     node.obj
 0002:0000d738       ??_C@_0BD@OAEGDBON@libraryDescription@ 0000000180084738     node.obj
 0002:0000d750       ??_C@_0P@NINAKELA@libraryVersion@ 0000000180084750     node.obj
 0002:0000d760       ??_C@_06LBMCOACO@Buffer@   0000000180084760     node.obj
 0002:0000d768       ??_C@_0BA@CBKDOBCM@slotDescription@ 0000000180084768     node.obj
 0002:0000d778       ??_C@_0BA@ONMJCOP@hardwareVersion@ 0000000180084778     node.obj
 0002:0000d788       ??_C@_0BA@GGECKCCL@firmwareVersion@ 0000000180084788     node.obj
 0002:0000d798       ??_C@_05IDCCNNGI@label@    0000000180084798     node.obj
 0002:0000d7a0       ??_C@_05NCCFOPHA@model@    00000001800847a0     node.obj
 0002:0000d7a8       ??_C@_0N@OMOHFKCJ@serialNumber@ 00000001800847a8     node.obj
 0002:0000d7b8       ??_C@_0BA@JKGECCLK@maxSessionCount@ 00000001800847b8     node.obj
 0002:0000d7c8       ??_C@_0N@NICNJIDO@sessionCount@ 00000001800847c8     node.obj
 0002:0000d7d8       ??_C@_0BC@OGNHKBIC@maxRwSessionCount@ 00000001800847d8     node.obj
 0002:0000d7f0       ??_C@_0P@JCIMOEBG@rwSessionCount@ 00000001800847f0     node.obj
 0002:0000d800       ??_C@_09ECENNBOF@maxPinLen@ 0000000180084800     node.obj
 0002:0000d810       ??_C@_09EDEBELFB@minPinLen@ 0000000180084810     node.obj
 0002:0000d820       ??_C@_07DLBCCALN@utcTime@  0000000180084820     node.obj
 0002:0000d828       ??_C@_0BC@LHNHFCPL@totalPublicMemory@ 0000000180084828     node.obj
 0002:0000d840       ??_C@_0BB@MNOOFIFP@freePublicMemory@ 0000000180084840     node.obj
 0002:0000d858       ??_C@_0BD@KBJPNAJK@totalPrivateMemory@ 0000000180084858     node.obj
 0002:0000d870       ??_C@_0BC@HAFOIOGB@freePrivateMemory@ 0000000180084870     node.obj
 0002:0000d884       ??_C@_06IONACMBM@Number@   0000000180084884     node.obj
 0002:0000d890       ??_C@_0L@EPEOHOKG@minKeySize@ 0000000180084890     node.obj
 0002:0000d8a0       ??_C@_0L@IDEDAFKJ@maxKeySize@ 00000001800848a0     node.obj
 0002:0000d8ac       ??_C@_06NEEEMOAP@slotID@   00000001800848ac     node.obj
 0002:0000d8b4       ??_C@_05HDBKIDE@state@     00000001800848b4     node.obj
 0002:0000d8c0       ??_C@_0M@EBLDIFKJ@deviceError@ 00000001800848c0     node.obj
 0002:0000d8d0       ??_C@_1CE@IAEMMFJ@?$AA?$CB?$AAh?$AAa?$AAn?$AAd?$AAl?$AAe?$AA?4?$AAI?$AAs?$AAE?$AAm?$AAp?$AAt?$AAy@ 00000001800848d0     node.obj
 0002:0000d8f8       ??_7ObjectWrap@node@@6B@   00000001800848f8     node.obj
 0002:0000d910       ??_7AsyncWorker@Nan@@6B@   0000000180084910     node.obj
 0002:0000d940       ??_7AsyncGenerateKey@@6B@  0000000180084940     node.obj
 0002:0000d970       ??_7WPKCS11@@6B@           0000000180084970     node.obj
 0002:0000d988       ??_7AsyncGenerateKeyPair@@6B@ 0000000180084988     node.obj
 0002:0000d9b8       ??_7AsyncCrypto@@6B@       00000001800849b8     node.obj
 0002:0000d9e8       ??_7AsyncWrapKey@@6B@      00000001800849e8     node.obj
 0002:0000da18       ??_7AsyncUnwrapKey@@6B@    0000000180084a18     node.obj
 0002:0000da48       ??_7?$_Ref_count@VPKCS11@@@std@@6B@ 0000000180084a48     node.obj
 0002:0000da68       ??_7AsyncDeriveKey@@6B@    0000000180084a68     node.obj
 0002:0000da98       ??_C@_08HCOMDCCD@iojs?4exe@ 0000000180084a98     win_delay_load_hook.obj
 0002:0000daa8       ??_C@_08JDDNMFDB@node?4exe@ 0000000180084aa8     win_delay_load_hook.obj
 0002:0000dab8       __pfnDliNotifyHook2        0000000180084ab8     win_delay_load_hook.obj
 0002:0000dae8       __real@3ff0000000000000    0000000180084ae8     const.obj
 0002:0000daf0       __real@4000000000000000    0000000180084af0     const.obj
 0002:0000daf8       __real@4008000000000000    0000000180084af8     const.obj
 0002:0000db00       __real@4010000000000000    0000000180084b00     const.obj
 0002:0000db08       __real@4014000000000000    0000000180084b08     const.obj
 0002:0000db10       __real@4018000000000000    0000000180084b10     const.obj
 0002:0000db18       __real@401c000000000000    0000000180084b18     const.obj
 0002:0000db20       __real@4020000000000000    0000000180084b20     const.obj
 0002:0000db28       __real@4022000000000000    0000000180084b28     const.obj
 0002:0000db30       __real@4024000000000000    0000000180084b30     const.obj
 0002:0000db38       __real@4026000000000000    0000000180084b38     const.obj
 0002:0000db40       __real@4028000000000000    0000000180084b40     const.obj
 0002:0000db48       __real@402a000000000000    0000000180084b48     const.obj
 0002:0000db50       __real@402c000000000000    0000000180084b50     const.obj
 0002:0000db58       __real@4030000000000000    0000000180084b58     const.obj
 0002:0000db60       __real@4031000000000000    0000000180084b60     const.obj
 0002:0000db68       __real@4032000000000000    0000000180084b68     const.obj
 0002:0000db70       __real@4033000000000000    0000000180084b70     const.obj
 0002:0000db78       __real@4034000000000000    0000000180084b78     const.obj
 0002:0000db80       __real@4035000000000000    0000000180084b80     const.obj
 0002:0000db88       __real@4036000000000000    0000000180084b88     const.obj
 0002:0000db90       __real@4037000000000000    0000000180084b90     const.obj
 0002:0000db98       __real@4038000000000000    0000000180084b98     const.obj
 0002:0000dba0       __real@4039000000000000    0000000180084ba0     const.obj
 0002:0000dba8       __real@403a000000000000    0000000180084ba8     const.obj
 0002:0000dbb0       __real@403b000000000000    0000000180084bb0     const.obj
 0002:0000dbb8       __real@403c000000000000    0000000180084bb8     const.obj
 0002:0000dbc0       __real@403d000000000000    0000000180084bc0     const.obj
 0002:0000dbc8       __real@403e000000000000    0000000180084bc8     const.obj
 0002:0000dbd0       __real@403f000000000000    0000000180084bd0     const.obj
 0002:0000dbd8       __real@4040000000000000    0000000180084bd8     const.obj
 0002:0000dbe0       __real@4040800000000000    0000000180084be0     const.obj
 0002:0000dbe8       __real@4041000000000000    0000000180084be8     const.obj
 0002:0000dbf0       __real@4041800000000000    0000000180084bf0     const.obj
 0002:0000dbf8       __real@4042000000000000    0000000180084bf8     const.obj
 0002:0000dc00       __real@4042800000000000    0000000180084c00     const.obj
 0002:0000dc08       __real@4043000000000000    0000000180084c08     const.obj
 0002:0000dc10       __real@4043800000000000    0000000180084c10     const.obj
 0002:0000dc18       __real@4044000000000000    0000000180084c18     const.obj
 0002:0000dc20       __real@4044800000000000    0000000180084c20     const.obj
 0002:0000dc28       __real@4045000000000000    0000000180084c28     const.obj
 0002:0000dc30       __real@4045800000000000    0000000180084c30     const.obj
 0002:0000dc38       __real@4046000000000000    0000000180084c38     const.obj
 0002:0000dc40       __real@4046800000000000    0000000180084c40     const.obj
 0002:0000dc48       __real@4047000000000000    0000000180084c48     const.obj
 0002:0000dc50       __real@4047800000000000    0000000180084c50     const.obj
 0002:0000dc58       __real@4048000000000000    0000000180084c58     const.obj
 0002:0000dc60       __real@4048800000000000    0000000180084c60     const.obj
 0002:0000dc68       __real@4049000000000000    0000000180084c68     const.obj
 0002:0000dc70       __real@4049800000000000    0000000180084c70     const.obj
 0002:0000dc78       __real@4050000000000000    0000000180084c78     const.obj
 0002:0000dc80       __real@4050400000000000    0000000180084c80     const.obj
 0002:0000dc88       __real@4050800000000000    0000000180084c88     const.obj
 0002:0000dc90       __real@4050c00000000000    0000000180084c90     const.obj
 0002:0000dc98       __real@4051000000000000    0000000180084c98     const.obj
 0002:0000dca0       __real@4051400000000000    0000000180084ca0     const.obj
 0002:0000dca8       __real@4051800000000000    0000000180084ca8     const.obj
 0002:0000dcb0       __real@4051c00000000000    0000000180084cb0     const.obj
 0002:0000dcb8       __real@4060000000000000    0000000180084cb8     const.obj
 0002:0000dcc0       __real@4060200000000000    0000000180084cc0     const.obj
 0002:0000dcc8       __real@4060400000000000    0000000180084cc8     const.obj
 0002:0000dcd0       __real@4060600000000000    0000000180084cd0     const.obj
 0002:0000dcd8       __real@4060800000000000    0000000180084cd8     const.obj
 0002:0000dce0       __real@4060a00000000000    0000000180084ce0     const.obj
 0002:0000dce8       __real@4060c00000000000    0000000180084ce8     const.obj
 0002:0000dcf0       __real@4060e00000000000    0000000180084cf0     const.obj
 0002:0000dcf8       __real@4061000000000000    0000000180084cf8     const.obj
 0002:0000dd00       __real@4061200000000000    0000000180084d00     const.obj
 0002:0000dd08       __real@4061400000000000    0000000180084d08     const.obj
 0002:0000dd10       __real@4061600000000000    0000000180084d10     const.obj
 0002:0000dd18       __real@4061800000000000    0000000180084d18     const.obj
 0002:0000dd20       __real@4062000000000000    0000000180084d20     const.obj
 0002:0000dd28       __real@4070000000000000    0000000180084d28     const.obj
 0002:0000dd30       __real@4070100000000000    0000000180084d30     const.obj
 0002:0000dd38       __real@4070200000000000    0000000180084d38     const.obj
 0002:0000dd40       __real@4070300000000000    0000000180084d40     const.obj
 0002:0000dd48       __real@4070400000000000    0000000180084d48     const.obj
 0002:0000dd50       __real@4070500000000000    0000000180084d50     const.obj
 0002:0000dd58       __real@4070600000000000    0000000180084d58     const.obj
 0002:0000dd60       __real@4070700000000000    0000000180084d60     const.obj
 0002:0000dd68       __real@4070800000000000    0000000180084d68     const.obj
 0002:0000dd70       __real@4070900000000000    0000000180084d70     const.obj
 0002:0000dd78       __real@4070a00000000000    0000000180084d78     const.obj
 0002:0000dd80       __real@4070b00000000000    0000000180084d80     const.obj
 0002:0000dd88       __real@4070c00000000000    0000000180084d88     const.obj
 0002:0000dd90       __real@4071000000000000    0000000180084d90     const.obj
 0002:0000dd98       __real@4071100000000000    0000000180084d98     const.obj
 0002:0000dda0       __real@4072000000000000    0000000180084da0     const.obj
 0002:0000dda8       __real@4072100000000000    0000000180084da8     const.obj
 0002:0000ddb0       __real@4072200000000000    0000000180084db0     const.obj
 0002:0000ddb8       __real@4072300000000000    0000000180084db8     const.obj
 0002:0000ddc0       __real@4072400000000000    0000000180084dc0     const.obj
 0002:0000ddc8       __real@4072500000000000    0000000180084dc8     const.obj
 0002:0000ddd0       __real@4072600000000000    0000000180084dd0     const.obj
 0002:0000ddd8       __real@4072700000000000    0000000180084dd8     const.obj
 0002:0000dde0       __real@4072800000000000    0000000180084de0     const.obj
 0002:0000dde8       __real@4073000000000000    0000000180084de8     const.obj
 0002:0000ddf0       __real@4073100000000000    0000000180084df0     const.obj
 0002:0000ddf8       __real@4073200000000000    0000000180084df8     const.obj
 0002:0000de00       __real@4073300000000000    0000000180084e00     const.obj
 0002:0000de08       __real@4073400000000000    0000000180084e08     const.obj
 0002:0000de10       __real@4073500000000000    0000000180084e10     const.obj
 0002:0000de18       __real@4073600000000000    0000000180084e18     const.obj
 0002:0000de20       __real@4073700000000000    0000000180084e20     const.obj
 0002:0000de28       __real@4073800000000000    0000000180084e28     const.obj
 0002:0000de30       __real@4074000000000000    0000000180084e30     const.obj
 0002:0000de38       __real@4074100000000000    0000000180084e38     const.obj
 0002:0000de40       __real@4074200000000000    0000000180084e40     const.obj
 0002:0000de48       __real@4074300000000000    0000000180084e48     const.obj
 0002:0000de50       __real@4074400000000000    0000000180084e50     const.obj
 0002:0000de58       __real@4074500000000000    0000000180084e58     const.obj
 0002:0000de60       __real@4075000000000000    0000000180084e60     const.obj
 0002:0000de68       __real@4075100000000000    0000000180084e68     const.obj
 0002:0000de70       __real@4075200000000000    0000000180084e70     const.obj
 0002:0000de78       __real@4075300000000000    0000000180084e78     const.obj
 0002:0000de80       __real@4076000000000000    0000000180084e80     const.obj
 0002:0000de88       __real@4076100000000000    0000000180084e88     const.obj
 0002:0000de90       __real@4076200000000000    0000000180084e90     const.obj
 0002:0000de98       __real@4076300000000000    0000000180084e98     const.obj
 0002:0000dea0       __real@4076400000000000    0000000180084ea0     const.obj
 0002:0000dea8       __real@4076500000000000    0000000180084ea8     const.obj
 0002:0000deb0       __real@4076600000000000    0000000180084eb0     const.obj
 0002:0000deb8       __real@4077000000000000    0000000180084eb8     const.obj
 0002:0000dec0       __real@4077100000000000    0000000180084ec0     const.obj
 0002:0000dec8       __real@4077200000000000    0000000180084ec8     const.obj
 0002:0000ded0       __real@4078000000000000    0000000180084ed0     const.obj
 0002:0000ded8       __real@4078100000000000    0000000180084ed8     const.obj
 0002:0000dee0       __real@4080000000000000    0000000180084ee0     const.obj
 0002:0000dee8       __real@4080080000000000    0000000180084ee8     const.obj
 0002:0000def0       __real@4080100000000000    0000000180084ef0     const.obj
 0002:0000def8       __real@4080800000000000    0000000180084ef8     const.obj
 0002:0000df00       __real@4081000000000000    0000000180084f00     const.obj
 0002:0000df08       __real@4081080000000000    0000000180084f08     const.obj
 0002:0000df10       __real@4081100000000000    0000000180084f10     const.obj
 0002:0000df18       __real@4081180000000000    0000000180084f18     const.obj
 0002:0000df20       __real@4081200000000000    0000000180084f20     const.obj
 0002:0000df28       __real@4081280000000000    0000000180084f28     const.obj
 0002:0000df30       __real@4081300000000000    0000000180084f30     const.obj
 0002:0000df38       __real@4081380000000000    0000000180084f38     const.obj
 0002:0000df40       __real@4081500000000000    0000000180084f40     const.obj
 0002:0000df48       __real@4081580000000000    0000000180084f48     const.obj
 0002:0000df50       __real@4081600000000000    0000000180084f50     const.obj
 0002:0000df58       __real@4081680000000000    0000000180084f58     const.obj
 0002:0000df60       __real@4081700000000000    0000000180084f60     const.obj
 0002:0000df68       __real@4081780000000000    0000000180084f68     const.obj
 0002:0000df70       __real@4082800000000000    0000000180084f70     const.obj
 0002:0000df78       __real@4082880000000000    0000000180084f78     const.obj
 0002:0000df80       __real@4082900000000000    0000000180084f80     const.obj
 0002:0000df88       __real@4088000000000000    0000000180084f88     const.obj
 0002:0000df90       __real@4088080000000000    0000000180084f90     const.obj
 0002:0000df98       __real@4088100000000000    0000000180084f98     const.obj
 0002:0000dfa0       __real@4090000000000000    0000000180084fa0     const.obj
 0002:0000dfa8       __real@4090040000000000    0000000180084fa8     const.obj
 0002:0000dfb0       __real@4090080000000000    0000000180084fb0     const.obj
 0002:0000dfb8       __real@40900c0000000000    0000000180084fb8     const.obj
 0002:0000dfc0       __real@4090100000000000    0000000180084fc0     const.obj
 0002:0000dfc8       __real@4090140000000000    0000000180084fc8     const.obj
 0002:0000dfd0       __real@4090180000000000    0000000180084fd0     const.obj
 0002:0000dfd8       __real@4092000000000000    0000000180084fd8     const.obj
 0002:0000dfe0       __real@4092040000000000    0000000180084fe0     const.obj
 0002:0000dfe8       __real@4092080000000000    0000000180084fe8     const.obj
 0002:0000dff0       __real@4094000000000000    0000000180084ff0     const.obj
 0002:0000dff8       __real@4094040000000000    0000000180084ff8     const.obj
 0002:0000e000       __real@4094080000000000    0000000180085000     const.obj
 0002:0000e008       __real@40940c0000000000    0000000180085008     const.obj
 0002:0000e010       __real@40a0000000000000    0000000180085010     const.obj
 0002:0000e018       __real@40b0000000000000    0000000180085018     const.obj
 0002:0000e020       __real@40c0000000000000    0000000180085020     const.obj
 0002:0000e028       __real@40d0000000000000    0000000180085028     const.obj
 0002:0000e030       __real@40e0000000000000    0000000180085030     const.obj
 0002:0000e038       __real@40f0000000000000    0000000180085038     const.obj
 0002:0000e040       __real@4100000000000000    0000000180085040     const.obj
 0002:0000e048       __real@4110000000000000    0000000180085048     const.obj
 0002:0000e050       __real@4120000000000000    0000000180085050     const.obj
 0002:0000e058       __real@4130000000000000    0000000180085058     const.obj
 0002:0000e060       __real@4140000000000000    0000000180085060     const.obj
 0002:0000e068       __real@4150000000000000    0000000180085068     const.obj
 0002:0000e070       __real@4160000000000000    0000000180085070     const.obj
 0002:0000e078       __real@4170000000000000    0000000180085078     const.obj
 0002:0000e080       __real@41d0000084400000    0000000180085080     const.obj
 0002:0000e088       __real@41d0000084800000    0000000180085088     const.obj
 0002:0000e090       __real@41d0000084c00000    0000000180085090     const.obj
 0002:0000e098       __real@41d0000180000000    0000000180085098     const.obj
 0002:0000e0a0       __real@41e0000000000000    00000001800850a0     const.obj
 0002:0000e0a8       __real@43f0000000000000    00000001800850a8     node.obj
 0002:0000e0b0       __real@bff0000000000000    00000001800850b0     node.obj
 0002:0000e0c0       __xmm@000000000000000f0000000000000000 00000001800850c0     node.obj
 0002:000103a0       _tls_used                  00000001800873a0     LIBCMT:tlssup.obj
 0002:000103c8       ??_R4exception@std@@6B@    00000001800873c8     libcpmt:xthrow.obj
 0002:000103f0       ??_R3exception@std@@8      00000001800873f0     libcpmt:xthrow.obj
 0002:00010408       ??_R2exception@std@@8      0000000180087408     libcpmt:xthrow.obj
 0002:00010418       ??_R1A@?0A@EA@exception@std@@8 0000000180087418     libcpmt:xthrow.obj
 0002:00010440       ??_R4bad_alloc@std@@6B@    0000000180087440     libcpmt:xthrow.obj
 0002:00010468       ??_R3bad_alloc@std@@8      0000000180087468     libcpmt:xthrow.obj
 0002:00010480       ??_R2bad_alloc@std@@8      0000000180087480     libcpmt:xthrow.obj
 0002:00010498       ??_R1A@?0A@EA@bad_alloc@std@@8 0000000180087498     libcpmt:xthrow.obj
 0002:000104c0       ??_R4logic_error@std@@6B@  00000001800874c0     libcpmt:xthrow.obj
 0002:000104e8       ??_R3logic_error@std@@8    00000001800874e8     libcpmt:xthrow.obj
 0002:00010500       ??_R2logic_error@std@@8    0000000180087500     libcpmt:xthrow.obj
 0002:00010518       ??_R1A@?0A@EA@logic_error@std@@8 0000000180087518     libcpmt:xthrow.obj
 0002:00010540       ??_R4length_error@std@@6B@ 0000000180087540     libcpmt:xthrow.obj
 0002:00010568       ??_R3length_error@std@@8   0000000180087568     libcpmt:xthrow.obj
 0002:00010580       ??_R2length_error@std@@8   0000000180087580     libcpmt:xthrow.obj
 0002:000105a0       ??_R1A@?0A@EA@length_error@std@@8 00000001800875a0     libcpmt:xthrow.obj
 0002:000105c8       ??_R4out_of_range@std@@6B@ 00000001800875c8     libcpmt:xthrow.obj
 0002:000105f0       ??_R3out_of_range@std@@8   00000001800875f0     libcpmt:xthrow.obj
 0002:00010608       ??_R2out_of_range@std@@8   0000000180087608     libcpmt:xthrow.obj
 0002:00010628       ??_R1A@?0A@EA@out_of_range@std@@8 0000000180087628     libcpmt:xthrow.obj
 0002:00010650       ??_R4type_info@@6B@        0000000180087650     LIBCMT:std_type_info_static.obj
 0002:00010678       ??_R3type_info@@8          0000000180087678     LIBCMT:std_type_info_static.obj
 0002:00010690       ??_R2type_info@@8          0000000180087690     LIBCMT:std_type_info_static.obj
 0002:000106a0       ??_R1A@?0A@EA@type_info@@8 00000001800876a0     LIBCMT:std_type_info_static.obj
 0002:000106c8       ??_R4bad_array_new_length@std@@6B@ 00000001800876c8     LIBCMT:throw_bad_alloc.obj
 0002:000106f0       ??_R3bad_array_new_length@std@@8 00000001800876f0     LIBCMT:throw_bad_alloc.obj
 0002:00010708       ??_R2bad_array_new_length@std@@8 0000000180087708     LIBCMT:throw_bad_alloc.obj
 0002:00010728       ??_R1A@?0A@EA@bad_array_new_length@std@@8 0000000180087728     LIBCMT:throw_bad_alloc.obj
 0002:00010750       ??_R4bad_exception@std@@6B@ 0000000180087750     libvcruntime:frame.obj
 0002:00010778       ??_R3bad_exception@std@@8  0000000180087778     libvcruntime:frame.obj
 0002:00010790       ??_R2bad_exception@std@@8  0000000180087790     libvcruntime:frame.obj
 0002:000107a8       ??_R1A@?0A@EA@bad_exception@std@@8 00000001800877a8     libvcruntime:frame.obj
 0002:00010c18       __rtc_iaa                  0000000180087c18     LIBCMT:initsect.obj
 0002:00010c20       __rtc_izz                  0000000180087c20     LIBCMT:initsect.obj
 0002:00010c28       __rtc_taa                  0000000180087c28     LIBCMT:initsect.obj
 0002:00010c30       __rtc_tzz                  0000000180087c30     LIBCMT:initsect.obj
 0002:00010c38       _tls_start                 0000000180087c38     LIBCMT:tlssup.obj
 0002:00010c3c       _Init_thread_epoch         0000000180087c3c     LIBCMT:thread_safe_statics.obj
 0002:00010c40       _tls_end                   0000000180087c40     LIBCMT:tlssup.obj
 0002:00024ea0       _TI2?AVbad_alloc@std@@     000000018009bea0     libcpmt:xthrow.obj
 0002:00024ec0       _CTA2?AVbad_alloc@std@@    000000018009bec0     libcpmt:xthrow.obj
 0002:00024ed8       _CT??_R0?AVbad_alloc@std@@@8??0bad_alloc@std@@QEAA@AEBV01@@Z24 000000018009bed8     libcpmt:xthrow.obj
 0002:00024f00       _CT??_R0?AVexception@std@@@8??0exception@std@@QEAA@AEBV01@@Z24 000000018009bf00     libcpmt:xthrow.obj
 0002:00024f28       _CT??_R0?AVlogic_error@std@@@8??0logic_error@std@@QEAA@AEBV01@@Z24 000000018009bf28     libcpmt:xthrow.obj
 0002:00024f50       _TI3?AVlength_error@std@@  000000018009bf50     libcpmt:xthrow.obj
 0002:00024f70       _CTA3?AVlength_error@std@@ 000000018009bf70     libcpmt:xthrow.obj
 0002:00024f90       _CT??_R0?AVlength_error@std@@@8??0length_error@std@@QEAA@AEBV01@@Z24 000000018009bf90     libcpmt:xthrow.obj
 0002:00024fb8       _TI3?AVout_of_range@std@@  000000018009bfb8     libcpmt:xthrow.obj
 0002:00024fd8       _CTA3?AVout_of_range@std@@ 000000018009bfd8     libcpmt:xthrow.obj
 0002:00024ff8       _CT??_R0?AVout_of_range@std@@@8??0out_of_range@std@@QEAA@AEBV01@@Z24 000000018009bff8     libcpmt:xthrow.obj
 0002:00025020       _TI3?AVbad_array_new_length@std@@ 000000018009c020     LIBCMT:throw_bad_alloc.obj
 0002:00025040       _CTA3?AVbad_array_new_length@std@@ 000000018009c040     LIBCMT:throw_bad_alloc.obj
 0002:00025060       _CT??_R0?AVbad_array_new_length@std@@@8??0bad_array_new_length@std@@QEAA@AEBV01@@Z24 000000018009c060     LIBCMT:throw_bad_alloc.obj
 0002:00025088       _TI2?AVbad_exception@std@@ 000000018009c088     libvcruntime:frame.obj
 0002:000250a8       _CTA2?AVbad_exception@std@@ 000000018009c0a8     libvcruntime:frame.obj
 0002:000250c0       _CT??_R0?AVbad_exception@std@@@8??0bad_exception@std@@QEAA@AEBV01@@Z24 000000018009c0c0     libvcruntime:frame.obj
 0002:000250e8       _CT??_R0?AV?$shared_ptr@VError@@@std@@@8??0?$shared_ptr@VError@@@std@@QEAA@AEBV01@@Z16 000000018009c0e8     template.obj
 0002:00025110       _TI2?AV?$shared_ptr@VError@@@std@@ 000000018009c110     template.obj
 0002:00025130       _CT??_R0?AV?$_Ptr_base@VError@@@std@@@816 000000018009c130     template.obj
 0002:00025158       _CTA2?AV?$shared_ptr@VError@@@std@@ 000000018009c158     template.obj
 0002:0002516c       __DELAY_IMPORT_DESCRIPTOR_node_exe 000000018009c16c     node:node.exe
 0002:0002518c       __NULL_DELAY_IMPORT_DESCRIPTOR 000000018009c18c     node:node.exe
 0002:00025418       \177node_NULL_THUNK_DATA_DLN 000000018009c418     node:node.exe
 0002:00026ab0       \177node_NULL_THUNK_DATA_DLB 000000018009dab0     node:node.exe
 0002:00026d70       __IMPORT_DESCRIPTOR_KERNEL32 000000018009dd70     kernel32:KERNEL32.dll
 0002:00026d84       __NULL_IMPORT_DESCRIPTOR   000000018009dd84     kernel32:KERNEL32.dll
 0003:00000000       _Init_global_epoch         000000018009f000     LIBCMT:thread_safe_statics.obj
 0003:00000004       __scrt_native_dllmain_reason 000000018009f004     LIBCMT:utility.obj
 0003:00000008       __security_cookie_complement 000000018009f008     LIBCMT:gs_cookie.obj
 0003:00000010       __security_cookie          000000018009f010     LIBCMT:gs_cookie.obj
 0003:00000018       __isa_available            000000018009f018     LIBCMT:cpu_disp.obj
 0003:0000001c       __isa_enabled              000000018009f01c     LIBCMT:cpu_disp.obj
 0003:00000020       __memcpy_nt_iters          000000018009f020     LIBCMT:cpu_disp.obj
 0003:00000040       __abort_behavior           000000018009f040     libucrt:abort.obj
 0003:00000060       _iob                       000000018009f060     libucrt:_file.obj
 0003:00000170       __acrt_initial_locale_data 000000018009f170     libucrt:nlsdata.obj
 0003:000002c8       __acrt_initial_locale_pointers 000000018009f2c8     libucrt:nlsdata.obj
 0003:000002d8       __acrt_wide_c_locale_string 000000018009f2d8     libucrt:nlsdata.obj
 0003:000002e0       __badioinfo                000000018009f2e0     libucrt:ioinit.obj
 0003:00000640       __acrt_initial_multibyte_data 000000018009f640     libucrt:mbctype.obj
 0003:00000868       _pwctype                   000000018009f868     libucrt:ctype.obj
 0003:00000870       __globallocalestatus       000000018009f870     libucrt:glstatus.obj
 0003:00000880       __acrt_lconv_c             000000018009f880     libucrt:localeconv.obj
 0003:00000918       __acrt_lconv_static_decimal 000000018009f918     libucrt:localeconv.obj
 0003:0000091c       __acrt_lconv_static_W_decimal 000000018009f91c     libucrt:localeconv.obj
 0003:00000920       _lookuptrailbytes          000000018009f920     libucrt:read.obj
 0003:00000a40       _fltused                   000000018009fa40     LIBCMT:fltused.obj
 0003:00000a90       ??_R0?AVbad_alloc@std@@@8  000000018009fa90     libcpmt:xthrow.obj
 0003:00000ab8       ??_R0?AVexception@std@@@8  000000018009fab8     libcpmt:xthrow.obj
 0003:00000ae0       ??_R0?AVlogic_error@std@@@8 000000018009fae0     libcpmt:xthrow.obj
 0003:00000b08       ??_R0?AVlength_error@std@@@8 000000018009fb08     libcpmt:xthrow.obj
 0003:00000b30       ??_R0?AVout_of_range@std@@@8 000000018009fb30     libcpmt:xthrow.obj
 0003:00000b58       ??_R0?AVtype_info@@@8      000000018009fb58     LIBCMT:std_type_info_static.obj
 0003:00000b78       ??_R0?AVbad_array_new_length@std@@@8 000000018009fb78     LIBCMT:throw_bad_alloc.obj
 0003:00000ba8       ??_R0?AVbad_exception@std@@@8 000000018009fba8     libvcruntime:frame.obj
 0003:00000bd0       ??_R0?AV?$shared_ptr@VError@@@std@@@8 000000018009fbd0     template.obj
 0003:00000c00       ??_R0?AV?$_Ptr_base@VError@@@std@@@8 000000018009fc00     template.obj
 0003:00000c30       __imp_?GetCurrent@Isolate@v8@@SAPEAV12@XZ 000000018009fc30     node:node.exe
 0003:00000c38       __imp_??1HandleScope@v8@@QEAA@XZ 000000018009fc38     node:node.exe
 0003:00000c40       __imp_??0HandleScope@v8@@QEAA@PEAVIsolate@1@@Z 000000018009fc40     node:node.exe
 0003:00000c48       __imp_node_module_register 000000018009fc48     node:node.exe
 0003:00000c50       __imp_?GetCurrentContext@Isolate@v8@@QEAA?AV?$Local@VContext@v8@@@2@XZ 000000018009fc50     node:node.exe
 0003:00000c58       __imp_?ToLocalEmpty@V8@v8@@CAXXZ 000000018009fc58     node:node.exe
 0003:00000c60       __imp_?NewFromUtf8@String@v8@@SA?AV?$MaybeLocal@VString@v8@@@2@PEAVIsolate@2@PEBDW4NewStringType@2@H@Z 000000018009fc60     node:node.exe
 0003:00000c68       __imp_?New@Number@v8@@SA?AV?$Local@VNumber@v8@@@2@PEAVIsolate@2@N@Z 000000018009fc68     node:node.exe
 0003:00000c70       __imp_?DefineOwnProperty@Object@v8@@QEAA?AV?$Maybe@_N@2@V?$Local@VContext@v8@@@2@V?$Local@VName@v8@@@2@V?$Local@VValue@v8@@@2@W4PropertyAttribute@2@@Z 000000018009fc70     node:node.exe
 0003:00000c78       __imp_?New@Array@v8@@SA?AV?$Local@VArray@v8@@@2@PEAVIsolate@2@H@Z 000000018009fc78     node:node.exe
 0003:00000c80       __imp_?Uint32Value@Value@v8@@QEBA?AV?$Maybe@I@2@V?$Local@VContext@v8@@@2@@Z 000000018009fc80     node:node.exe
 0003:00000c88       __imp_?BooleanValue@Value@v8@@QEBA?AV?$Maybe@_N@2@V?$Local@VContext@v8@@@2@@Z 000000018009fc88     node:node.exe
 0003:00000c90       __imp_?ToObject@Value@v8@@QEBA?AV?$MaybeLocal@VObject@v8@@@2@V?$Local@VContext@v8@@@2@@Z 000000018009fc90     node:node.exe
 0003:00000c98       __imp_?ToString@Value@v8@@QEBA?AV?$MaybeLocal@VString@v8@@@2@V?$Local@VContext@v8@@@2@@Z 000000018009fc98     node:node.exe
 0003:00000ca0       __imp_?IsNumber@Value@v8@@QEBA_NXZ 000000018009fca0     node:node.exe
 0003:00000ca8       __imp_?IsBoolean@Value@v8@@QEBA_NXZ 000000018009fca8     node:node.exe
 0003:00000cb0       __imp_?IsObject@Value@v8@@QEBA_NXZ 000000018009fcb0     node:node.exe
 0003:00000cb8       __imp_?IsArray@Value@v8@@QEBA_NXZ 000000018009fcb8     node:node.exe
 0003:00000cc0       __imp_?Escape@EscapableHandleScope@v8@@AEAAPEAPEAVObject@internal@2@PEAPEAV342@@Z 000000018009fcc0     node:node.exe
 0003:00000cc8       __imp_??0EscapableHandleScope@v8@@QEAA@PEAVIsolate@1@@Z 000000018009fcc8     node:node.exe
 0003:00000cd0       __imp_?WriteUtf8@String@v8@@QEBAHPEADHPEAHH@Z 000000018009fcd0     node:node.exe
 0003:00000cd8       __imp_?Length@String@v8@@QEBAHXZ 000000018009fcd8     node:node.exe
 0003:00000ce0       __imp_?New@Object@v8@@SA?AV?$Local@VObject@v8@@@2@PEAVIsolate@2@@Z 000000018009fce0     node:node.exe
 0003:00000ce8       __imp_?Get@Object@v8@@QEAA?AV?$MaybeLocal@VValue@v8@@@2@V?$Local@VContext@v8@@@2@V?$Local@VValue@v8@@@2@@Z 000000018009fce8     node:node.exe
 0003:00000cf0       __imp_?Get@Object@v8@@QEAA?AV?$MaybeLocal@VValue@v8@@@2@V?$Local@VContext@v8@@@2@I@Z 000000018009fcf0     node:node.exe
 0003:00000cf8       __imp_?Set@Object@v8@@QEAA?AV?$Maybe@_N@2@V?$Local@VContext@v8@@@2@V?$Local@VValue@v8@@@2@1@Z 000000018009fcf8     node:node.exe
 0003:00000d00       __imp_?Set@Object@v8@@QEAA?AV?$Maybe@_N@2@V?$Local@VContext@v8@@@2@IV?$Local@VValue@v8@@@2@@Z 000000018009fd00     node:node.exe
 0003:00000d08       __imp_?HasInstance@Buffer@node@@YA_NV?$Local@VValue@v8@@@v8@@@Z 000000018009fd08     node:node.exe
 0003:00000d10       __imp_?Data@Buffer@node@@YAPEADV?$Local@VValue@v8@@@v8@@@Z 000000018009fd10     node:node.exe
 0003:00000d18       __imp_?Copy@Buffer@node@@YA?AV?$MaybeLocal@VObject@v8@@@v8@@PEAVIsolate@4@PEBD_K@Z 000000018009fd18     node:node.exe
 0003:00000d20       __imp_?Length@Buffer@node@@YA_KV?$Local@VValue@v8@@@v8@@@Z 000000018009fd20     node:node.exe
 0003:00000d28       __imp_??1EscapableHandleScope@v8@@QEAA@XZ 000000018009fd28     node:node.exe
 0003:00000d30       __imp_?HasInstance@Buffer@node@@YA_NV?$Local@VObject@v8@@@v8@@@Z 000000018009fd30     node:node.exe
 0003:00000d38       __imp_?Data@Buffer@node@@YAPEADV?$Local@VObject@v8@@@v8@@@Z 000000018009fd38     node:node.exe
 0003:00000d40       __imp_?Length@Buffer@node@@YA_KV?$Local@VObject@v8@@@v8@@@Z 000000018009fd40     node:node.exe
 0003:00000d48       __imp_?Global@Context@v8@@QEAA?AV?$Local@VObject@v8@@@2@XZ 000000018009fd48     node:node.exe
 0003:00000d50       __imp_?CreateHandle@HandleScope@v8@@KAPEAPEAVObject@internal@2@PEAVIsolate@42@PEAV342@@Z 000000018009fd50     node:node.exe
 0003:00000d58       __imp_?New@Buffer@node@@YA?AV?$MaybeLocal@VObject@v8@@@v8@@PEAVIsolate@4@_K@Z 000000018009fd58     node:node.exe
 0003:00000d60       __imp_?MakeCallback@node@@YA?AV?$MaybeLocal@VValue@v8@@@v8@@PEAVIsolate@3@V?$Local@VObject@v8@@@3@V?$Local@VFunction@v8@@@3@HPEAV?$Local@VValue@v8@@@3@Uasync_context@1@@Z 000000018009fd60     node:node.exe
 0003:00000d68       __imp_uv_queue_work        000000018009fd68     node:node.exe
 0003:00000d70       __imp_?Value@External@v8@@QEBAPEAXXZ 000000018009fd70     node:node.exe
 0003:00000d78       __imp_?New@External@v8@@SA?AV?$Local@VExternal@v8@@@2@PEAVIsolate@2@PEAX@Z 000000018009fd78     node:node.exe
 0003:00000d80       __imp_?NewFromUnsigned@Integer@v8@@SA?AV?$Local@VInteger@v8@@@2@PEAVIsolate@2@I@Z 000000018009fd80     node:node.exe
 0003:00000d88       __imp_?New@Integer@v8@@SA?AV?$Local@VInteger@v8@@@2@PEAVIsolate@2@H@Z 000000018009fd88     node:node.exe
 0003:00000d90       __imp_?New@Signature@v8@@SA?AV?$Local@VSignature@v8@@@2@PEAVIsolate@2@V?$Local@VFunctionTemplate@v8@@@2@@Z 000000018009fd90     node:node.exe
 0003:00000d98       __imp_?ThrowException@Isolate@v8@@QEAA?AV?$Local@VValue@v8@@@2@V32@@Z 000000018009fd98     node:node.exe
 0003:00000da0       __imp_?CreateHandle@HandleScope@v8@@CAPEAPEAVObject@internal@2@PEAVHeapObject@42@PEAV342@@Z 000000018009fda0     node:node.exe
 0003:00000da8       __imp_?Set@Template@v8@@QEAAXV?$Local@VName@v8@@@2@V?$Local@VData@v8@@@2@W4PropertyAttribute@2@@Z 000000018009fda8     node:node.exe
 0003:00000db0       __imp_?Error@Exception@v8@@SA?AV?$Local@VValue@v8@@@2@V?$Local@VString@v8@@@2@@Z 000000018009fdb0     node:node.exe
 0003:00000db8       __imp_?TypeError@Exception@v8@@SA?AV?$Local@VValue@v8@@@2@V?$Local@VString@v8@@@2@@Z 000000018009fdb8     node:node.exe
 0003:00000dc0       __imp_?SetClassName@FunctionTemplate@v8@@QEAAXV?$Local@VString@v8@@@2@@Z 000000018009fdc0     node:node.exe
 0003:00000dc8       __imp_?PrototypeTemplate@FunctionTemplate@v8@@QEAA?AV?$Local@VObjectTemplate@v8@@@2@XZ 000000018009fdc8     node:node.exe
 0003:00000dd0       __imp_?InstanceTemplate@FunctionTemplate@v8@@QEAA?AV?$Local@VObjectTemplate@v8@@@2@XZ 000000018009fdd0     node:node.exe
 0003:00000dd8       __imp_?GetFunction@FunctionTemplate@v8@@QEAA?AV?$MaybeLocal@VFunction@v8@@@2@V?$Local@VContext@v8@@@2@@Z 000000018009fdd8     node:node.exe
 0003:00000de0       __imp_?New@FunctionTemplate@v8@@SA?AV?$Local@VFunctionTemplate@v8@@@2@PEAVIsolate@2@P6AXAEBV?$FunctionCallbackInfo@VValue@v8@@@2@@ZV?$Local@VValue@v8@@@2@V?$Local@VSignature@v8@@@2@HW4ConstructorBehavior@2@W4SideEffectType@2@@Z 000000018009fde0     node:node.exe
 0003:00000de8       __imp_?ClearWeak@V8@v8@@CAPEAXPEAPEAVObject@internal@2@@Z 000000018009fde8     node:node.exe
 0003:00000df0       __imp_?MakeWeak@V8@v8@@CAXPEAPEAVObject@internal@2@PEAXP6AXAEBV?$WeakCallbackInfo@X@2@@ZW4WeakCallbackType@2@@Z 000000018009fdf0     node:node.exe
 0003:00000df8       __imp_?DisposeGlobal@V8@v8@@CAXPEAPEAVObject@internal@2@@Z 000000018009fdf8     node:node.exe
 0003:00000e00       __imp_?GlobalizeReference@V8@v8@@CAPEAPEAVObject@internal@2@PEAVIsolate@42@PEAPEAV342@@Z 000000018009fe00     node:node.exe
 0003:00000e08       __imp_?ToInt32@Value@v8@@QEBA?AV?$MaybeLocal@VInt32@v8@@@2@V?$Local@VContext@v8@@@2@@Z 000000018009fe08     node:node.exe
 0003:00000e10       __imp_?ToUint32@Value@v8@@QEBA?AV?$MaybeLocal@VUint32@v8@@@2@V?$Local@VContext@v8@@@2@@Z 000000018009fe10     node:node.exe
 0003:00000e18       __imp_?IsFunction@Value@v8@@QEBA_NXZ 000000018009fe18     node:node.exe
 0003:00000e20       __imp_?SlowGetAlignedPointerFromInternalField@Object@v8@@AEAAPEAXH@Z 000000018009fe20     node:node.exe
 0003:00000e28       __imp_?SlowGetInternalField@Object@v8@@AEAA?AV?$Local@VValue@v8@@@2@H@Z 000000018009fe28     node:node.exe
 0003:00000e30       __imp_?SetAlignedPointerInInternalField@Object@v8@@QEAAXHPEAX@Z 000000018009fe30     node:node.exe
 0003:00000e38       __imp_?SetInternalField@Object@v8@@QEAAXHV?$Local@VValue@v8@@@2@@Z 000000018009fe38     node:node.exe
 0003:00000e40       __imp_?InternalFieldCount@Object@v8@@QEAAHXZ 000000018009fe40     node:node.exe
 0003:00000e48       __imp_?Has@Object@v8@@QEAA?AV?$Maybe@_N@2@V?$Local@VContext@v8@@@2@V?$Local@VValue@v8@@@2@@Z 000000018009fe48     node:node.exe
 0003:00000e50       __imp_?Call@Function@v8@@QEAA?AV?$MaybeLocal@VValue@v8@@@2@V?$Local@VContext@v8@@@2@V?$Local@VValue@v8@@@2@HQEAV52@@Z 000000018009fe50     node:node.exe
 0003:00000e58       __imp_?NewInstance@Function@v8@@QEBA?AV?$MaybeLocal@VObject@v8@@@2@V?$Local@VContext@v8@@@2@HQEAV?$Local@VValue@v8@@@2@@Z 000000018009fe58     node:node.exe
 0003:00000e60       __imp_?SetInternalFieldCount@ObjectTemplate@v8@@QEAAXH@Z 000000018009fe60     node:node.exe
 0003:00000e68       __imp_?SetAccessor@ObjectTemplate@v8@@QEAAXV?$Local@VName@v8@@@2@P6AX0AEBV?$PropertyCallbackInfo@VValue@v8@@@2@@ZP6AX0V?$Local@VValue@v8@@@2@AEBV?$PropertyCallbackInfo@X@2@@Z3W4AccessControl@2@W4PropertyAttribute@2@V?$Local@VAccessorSignature@v8@@@2@@Z 000000018009fe68     node:node.exe
 0003:00000e70       __imp_?NewInstance@ObjectTemplate@v8@@QEAA?AV?$MaybeLocal@VObject@v8@@@2@V?$Local@VContext@v8@@@2@@Z 000000018009fe70     node:node.exe
 0003:00000e78       __imp_?New@ObjectTemplate@v8@@SA?AV?$Local@VObjectTemplate@v8@@@2@PEAVIsolate@2@V?$Local@VFunctionTemplate@v8@@@2@@Z 000000018009fe78     node:node.exe
 0003:00000e80       __imp_?EmitAsyncDestroy@node@@YAXPEAVIsolate@v8@@Uasync_context@1@@Z 000000018009fe80     node:node.exe
 0003:00000e88       __imp_?EmitAsyncInit@node@@YA?AUasync_context@1@PEAVIsolate@v8@@V?$Local@VObject@v8@@@4@V?$Local@VString@v8@@@4@N@Z 000000018009fe88     node:node.exe
 0003:00000e90       __imp_?GetCurrentEventLoop@node@@YAPEAUuv_loop_s@@PEAVIsolate@v8@@@Z 000000018009fe90     node:node.exe
 0003:00000e98       \177node_NULL_THUNK_DATA_DLA 000000018009fe98     node:node.exe
 0003:00000ea0       __hmod__node_exe           000000018009fea0     node:node.exe
 0003:00000ef0       __scrt_current_native_startup_state 000000018009fef0     LIBCMT:utility.obj
 0003:00000ef8       __scrt_native_startup_lock 000000018009fef8     LIBCMT:utility.obj
 0003:000014b0       __scrt_debugger_hook_flag  00000001800a04b0     LIBCMT:utility_desktop.obj
 0003:000014b4       _tls_index                 00000001800a04b4     LIBCMT:tlssup.obj
 0003:000014b8       __favor                    00000001800a04b8     LIBCMT:cpu_disp.obj
 0003:000014c0       ?__type_info_root_node@@3U__type_info_node@@A 00000001800a04c0     LIBCMT:tncleanup.obj
 0003:000014d0       ?_OptionsStorage@?1??__local_stdio_scanf_options@@9@4_KA 00000001800a04d0     LIBCMT:default_local_stdio_options.obj
 0003:000014d8       ?__WinRTOutOfMemoryExceptionCallback@@3P6APEAXXZEA 00000001800a04d8     libvcruntime:ehhelpers.obj
 0003:00001570       __pPurecall                00000001800a0570     libvcruntime:purevirt_data.obj
 0003:000015e8       ?pArgList@UnDecorator@@0PEAVReplicator@@EA 00000001800a05e8     libvcruntime:undname.obj
 0003:000015f0       ?pZNameList@UnDecorator@@0PEAVReplicator@@EA 00000001800a05f0     libvcruntime:undname.obj
 0003:000015f8       ?pTemplateArgList@UnDecorator@@0PEAVReplicator@@EA 00000001800a05f8     libvcruntime:undname.obj
 0003:00001600       ?gName@UnDecorator@@0PEBDEB 00000001800a0600     libvcruntime:undname.obj
 0003:00001608       ?name@UnDecorator@@0PEBDEB 00000001800a0608     libvcruntime:undname.obj
 0003:00001610       ?disableFlags@UnDecorator@@0KA 00000001800a0610     libvcruntime:undname.obj
 0003:00001614       ?fExplicitTemplateParams@UnDecorator@@0_NA 00000001800a0614     libvcruntime:undname.obj
 0003:00001615       ?fGetTemplateArgumentList@UnDecorator@@0_NA 00000001800a0615     libvcruntime:undname.obj
 0003:00001618       ?m_pGetParameter@UnDecorator@@0P6APEADJ@ZEA 00000001800a0618     libvcruntime:undname.obj
 0003:00001620       ?m_CHPENameOffset@UnDecorator@@0KA 00000001800a0620     libvcruntime:undname.obj
 0003:00001624       ?m_recursionLevel@UnDecorator@@0KA 00000001800a0624     libvcruntime:undname.obj
 0003:00001670       ?c_exit_complete@?1???R<lambda_6e4b09c48022b2350581041d5f6b0c4c>@@QEBA@XZ@4_NA 00000001800a0670     libucrt:exit.obj
 0003:00001788       _environ_table             00000001800a0788     libucrt:environment_initialization.obj
 0003:00001790       _wenviron_table            00000001800a0790     libucrt:environment_initialization.obj
 0003:00001798       __dcrt_initial_wide_environment 00000001800a0798     libucrt:environment_initialization.obj
 0003:000017a0       __dcrt_initial_narrow_environment 00000001800a07a0     libucrt:environment_initialization.obj
 0003:000017a8       __acrt_atexit_table        00000001800a07a8     libucrt:onexit.obj
 0003:000017c0       __acrt_at_quick_exit_table 00000001800a07c0     libucrt:onexit.obj
 0003:000017e0       _nstream                   00000001800a07e0     libucrt:_file.obj
 0003:000017e8       __piob                     00000001800a07e8     libucrt:_file.obj
 0003:000017f0       _cflush                    00000001800a07f0     libucrt:_file.obj
 0003:00001800       __acrt_stdout_buffer       00000001800a0800     libucrt:_sftbuf.obj
 0003:00001808       __acrt_stderr_buffer       00000001800a0808     libucrt:_sftbuf.obj
 0003:00001810       __acrt_locale_changed_data 00000001800a0810     libucrt:wsetlocale.obj
 0003:00001818       __acrt_current_locale_data 00000001800a0818     libucrt:nlsdata.obj
 0003:00001820       __pioinfo                  00000001800a0820     libucrt:ioinit.obj
 0003:00001c20       _nhandle                   00000001800a0c20     libucrt:ioinit.obj
 0003:00001e90       _mbctype                   00000001800a0e90     libucrt:mbctype.obj
 0003:00001e98       _mbcasemap                 00000001800a0e98     libucrt:mbctype.obj
 0003:00001ea0       __acrt_current_multibyte_data 00000001800a0ea0     libucrt:mbctype.obj
 0003:00001eb0       _pgmptr                    00000001800a0eb0     libucrt:argv_data.obj
 0003:00001eb8       __argc                     00000001800a0eb8     libucrt:argv_data.obj
 0003:00001ec0       __argv                     00000001800a0ec0     libucrt:argv_data.obj
 0003:00001ec8       __wargv                    00000001800a0ec8     libucrt:argv_data.obj
 0003:00001ed0       _acmdln                    00000001800a0ed0     libucrt:argv_data.obj
 0003:00001ed8       _wcmdln                    00000001800a0ed8     libucrt:argv_data.obj
 0003:00002090       __acrt_heap                00000001800a1090     libucrt:heap_handle.obj
 0003:000020a4       __acrt_lconv_static_null   00000001800a10a4     libucrt:localeconv.obj
 0003:000020a8       __acrt_lconv_static_W_null 00000001800a10a8     libucrt:localeconv.obj
 0003:000020b8       __fma3_is_available        00000001800a10b8     libucrt:fma3_available.obj
 0003:000020bc       __use_fma3_lib             00000001800a10bc     libucrt:fma3_available.obj
 0003:000020c0       ?DloadKernel32@@3PEAUHINSTANCE__@@EA 00000001800a10c0     DelayImp:delayhlp.obj
 0003:000020c8       ?DloadAcquireSRWLockExclusive@@3P6AXPEA_K@ZEA 00000001800a10c8     DelayImp:delayhlp.obj
 0003:000020d0       ?DloadReleaseSRWLockExclusive@@3P6AXPEA_K@ZEA 00000001800a10d0     DelayImp:delayhlp.obj
 0003:000020d8       ?DloadSrwLock@@3_KA        00000001800a10d8     DelayImp:delayhlp.obj
 0003:000020e0       ?DloadSectionLockCount@@3KA 00000001800a10e0     DelayImp:delayhlp.obj
 0003:000020e4       ?DloadSectionOldProtection@@3KA 00000001800a10e4     DelayImp:delayhlp.obj
 0003:000020e8       ?DloadSectionCommitPermanent@@3KA 00000001800a10e8     DelayImp:delayhlp.obj
 0003:000020f0       ?_OptionsStorage@?1??__local_stdio_printf_options@@9@4_KA 00000001800a10f0     dl.obj
 0003:00002140       ?my_constructor@?1??constructor@WPKCS11@@KAAEAV?$Persistent@VFunction@v8@@V?$NonCopyablePersistentTraits@VFunction@v8@@@2@@Nan@@XZ@4V34@A 00000001800a1140     node.obj
 0003:00002148       ?$TSS0@?1??constructor@WPKCS11@@KAAEAV?$Persistent@VFunction@v8@@V?$NonCopyablePersistentTraits@VFunction@v8@@@2@@Nan@@XZ@4HA 00000001800a1148     node.obj
 0003:00002150       __dyn_tls_init_callback    00000001800a1150     <common>
 0003:00002158       __scrt_ucrt_dll_is_in_use  00000001800a1158     <common>

 entry point at        0001:00051a98

 Static symbols

 0000:fff57000       .debug$S                   0000000180000000     kernel32:KERNEL32.dll
 0000:fff57000       .debug$S                   0000000180000000     kernel32:KERNEL32.dll
 0000:fff57000       .debug$S                   0000000180000000     kernel32:KERNEL32.dll
 0000:fff57000       .debug$S                   0000000180000000     kernel32:KERNEL32.dll
 0000:fff57000       .debug$S                   0000000180000000     pkcs11.exp
 0000:fff57000       .debug$S                   0000000180000000     kernel32:KERNEL32.dll
 0000:fff57000       .debug$S                   0000000180000000     kernel32:KERNEL32.dll
 0000:fff57000       .debug$S                   0000000180000000     kernel32:KERNEL32.dll
 0000:fff57000       .debug$S                   0000000180000000     kernel32:KERNEL32.dll
 0000:fff57000       .debug$S                   0000000180000000     kernel32:KERNEL32.dll
 0000:fff57000       .debug$S                   0000000180000000     kernel32:KERNEL32.dll
 0000:fff57000       .debug$S                   0000000180000000     node:node.exe
 0000:fff57000       .debug$S                   0000000180000000     kernel32:KERNEL32.dll
 0000:fff57000       .debug$S                   0000000180000000     kernel32:KERNEL32.dll
 0000:fff57000       .debug$S                   0000000180000000     node:node.exe
 0000:fff57000       .debug$S                   0000000180000000     node:node.exe
 0000:fff57000       .debug$S                   0000000180000000     node:node.exe
 0000:fff57000       .debug$S                   0000000180000000     kernel32:KERNEL32.dll
 0000:fff57000       .debug$S                   0000000180000000     node:node.exe
 0000:fff57000       .debug$S                   0000000180000000     kernel32:KERNEL32.dll
 0000:fff57000       .debug$S                   0000000180000000     node:node.exe
 0000:fff57000       .debug$S                   0000000180000000     kernel32:KERNEL32.dll
 0000:fff57000       .debug$S                   0000000180000000     node:node.exe
 0000:fff57000       .debug$S                   0000000180000000     kernel32:KERNEL32.dll
 0000:fff57000       .debug$S                   0000000180000000     node:node.exe
 0000:fff57000       .debug$S                   0000000180000000     node:node.exe
 0000:fff57000       .debug$S                   0000000180000000     node:node.exe
 0000:fff57000       .debug$S                   0000000180000000     node:node.exe
 0000:fff57000       .debug$S                   0000000180000000     node:node.exe
 0000:fff57000       .debug$S                   0000000180000000     node:node.exe
 0000:fff57000       .debug$S                   0000000180000000     kernel32:KERNEL32.dll
 0000:fff57000       .debug$S                   0000000180000000     node:node.exe
 0000:fff57000       .debug$S                   0000000180000000     node:node.exe
 0000:fff57000       .debug$S                   0000000180000000     node:node.exe
 0000:fff57000       .debug$S                   0000000180000000     node:node.exe
 0000:fff57000       .debug$S                   0000000180000000     kernel32:KERNEL32.dll
 0000:fff57000       .debug$S                   0000000180000000     node:node.exe
 0000:fff57000       .debug$S                   0000000180000000     node:node.exe
 0000:fff57000       .debug$S                   0000000180000000     node:node.exe
 0000:fff57000       .debug$S                   0000000180000000     node:node.exe
 0000:fff57000       .debug$S                   0000000180000000     kernel32:KERNEL32.dll
 0000:fff57000       .debug$S                   0000000180000000     node:node.exe
 0000:fff57000       .debug$S                   0000000180000000     node:node.exe
 0000:fff57000       .debug$S                   0000000180000000     node:node.exe
 0000:fff57000       .debug$S                   0000000180000000     kernel32:KERNEL32.dll
 0000:fff57000       .debug$S                   0000000180000000     kernel32:KERNEL32.dll
 0000:fff57000       .debug$S                   0000000180000000     node:node.exe
 0000:fff57000       .debug$S                   0000000180000000     node:node.exe
 0000:fff57000       .debug$S                   0000000180000000     node:node.exe
 0000:fff57000       .debug$S                   0000000180000000     node:node.exe
 0000:fff57000       .debug$S                   0000000180000000     kernel32:KERNEL32.dll
 0000:fff57000       .debug$S                   0000000180000000     node:node.exe
 0000:fff57000       .debug$S                   0000000180000000     node:node.exe
 0000:fff57000       .debug$S                   0000000180000000     node:node.exe
 0000:fff57000       .debug$S                   0000000180000000     kernel32:KERNEL32.dll
 0000:fff57000       .debug$S                   0000000180000000     node:node.exe
 0000:fff57000       .debug$S                   0000000180000000     node:node.exe
 0000:fff57000       .debug$S                   0000000180000000     kernel32:KERNEL32.dll
 0000:fff57000       .debug$S                   0000000180000000     node:node.exe
 0000:fff57000       .debug$S                   0000000180000000     node:node.exe
 0000:fff57000       .debug$S                   0000000180000000     node:node.exe
 0000:fff57000       .debug$S                   0000000180000000     node:node.exe
 0000:fff57000       .debug$S                   0000000180000000     kernel32:KERNEL32.dll
 0000:fff57000       .debug$S                   0000000180000000     node:node.exe
 0000:fff57000       .debug$S                   0000000180000000     node:node.exe
 0000:fff57000       .debug$S                   0000000180000000     node:node.exe
 0000:fff57000       .debug$S                   0000000180000000     node:node.exe
 0000:fff57000       .debug$S                   0000000180000000     kernel32:KERNEL32.dll
 0000:fff57000       .debug$S                   0000000180000000     node:node.exe
 0000:fff57000       .debug$S                   0000000180000000     node:node.exe
 0000:fff57000       .debug$S                   0000000180000000     node:node.exe
 0000:fff57000       .debug$S                   0000000180000000     kernel32:KERNEL32.dll
 0000:fff57000       .debug$S                   0000000180000000     kernel32:KERNEL32.dll
 0000:fff57000       .debug$S                   0000000180000000     node:node.exe
 0000:fff57000       .debug$S                   0000000180000000     node:node.exe
 0000:fff57000       .debug$S                   0000000180000000     node:node.exe
 0000:fff57000       .debug$S                   0000000180000000     kernel32:KERNEL32.dll
 0000:fff57000       .debug$S                   0000000180000000     kernel32:KERNEL32.dll
 0000:fff57000       .debug$S                   0000000180000000     node:node.exe
 0000:fff57000       .debug$S                   0000000180000000     node:node.exe
 0000:fff57000       .debug$S                   0000000180000000     node:node.exe
 0000:fff57000       .debug$S                   0000000180000000     kernel32:KERNEL32.dll
 0000:fff57000       .debug$S                   0000000180000000     kernel32:KERNEL32.dll
 0000:fff57000       .debug$S                   0000000180000000     kernel32:KERNEL32.dll
 0000:fff57000       .debug$S                   0000000180000000     node:node.exe
 0000:fff57000       .debug$S                   0000000180000000     node:node.exe
 0000:fff57000       .debug$S                   0000000180000000     node:node.exe
 0000:fff57000       .debug$S                   0000000180000000     kernel32:KERNEL32.dll
 0000:fff57000       .debug$S                   0000000180000000     node:node.exe
 0000:fff57000       .debug$S                   0000000180000000     kernel32:KERNEL32.dll
 0000:fff57000       .debug$S                   0000000180000000     node:node.exe
 0000:fff57000       .debug$S                   0000000180000000     node:node.exe
 0000:fff57000       .debug$S                   0000000180000000     kernel32:KERNEL32.dll
 0000:fff57000       .debug$S                   0000000180000000     node:node.exe
 0000:fff57000       .debug$S                   0000000180000000     node:node.exe
 0000:fff57000       .debug$S                   0000000180000000     node:node.exe
 0000:fff57000       .debug$S                   0000000180000000     kernel32:KERNEL32.dll
 0000:fff57000       .debug$S                   0000000180000000     kernel32:KERNEL32.dll
 0000:fff57000       .debug$S                   0000000180000000     kernel32:KERNEL32.dll
 0000:fff57000       .debug$S                   0000000180000000     node:node.exe
 0000:fff57000       .debug$S                   0000000180000000     node:node.exe
 0000:fff57000       .debug$S                   0000000180000000     node:node.exe
 0000:fff57000       .debug$S                   0000000180000000     node:node.exe
 0000:fff57000       .debug$S                   0000000180000000     kernel32:KERNEL32.dll
 0000:fff57000       .debug$S                   0000000180000000     node:node.exe
 0000:fff57000       .debug$S                   0000000180000000     node:node.exe
 0000:fff57000       .debug$S                   0000000180000000     node:node.exe
 0000:fff57000       .debug$S                   0000000180000000     kernel32:KERNEL32.dll
 0000:fff57000       .debug$S                   0000000180000000     kernel32:KERNEL32.dll
 0000:fff57000       .debug$S                   0000000180000000     node:node.exe
 0000:fff57000       .debug$S                   0000000180000000     node:node.exe
 0000:fff57000       .debug$S                   0000000180000000     node:node.exe
 0000:fff57000       .debug$S                   0000000180000000     node:node.exe
 0000:fff57000       .debug$S                   0000000180000000     kernel32:KERNEL32.dll
 0000:fff57000       .debug$S                   0000000180000000     node:node.exe
 0000:fff57000       .debug$S                   0000000180000000     node:node.exe
 0000:fff57000       .debug$S                   0000000180000000     node:node.exe
 0000:fff57000       .debug$S                   0000000180000000     kernel32:KERNEL32.dll
 0000:fff57000       .debug$S                   0000000180000000     kernel32:KERNEL32.dll
 0000:fff57000       .debug$S                   0000000180000000     node:node.exe
 0000:fff57000       .debug$S                   0000000180000000     node:node.exe
 0000:fff57000       .debug$S                   0000000180000000     node:node.exe
 0000:fff57000       .debug$S                   0000000180000000     kernel32:KERNEL32.dll
 0000:fff57000       .debug$S                   0000000180000000     node:node.exe
 0000:fff57000       .debug$S                   0000000180000000     node:node.exe
 0000:fff57000       .debug$S                   0000000180000000     kernel32:KERNEL32.dll
 0000:fff57000       .debug$S                   0000000180000000     node:node.exe
 0000:fff57000       .debug$S                   0000000180000000     node:node.exe
 0000:fff57000       .debug$S                   0000000180000000     node:node.exe
 0000:fff57000       .debug$S                   0000000180000000     kernel32:KERNEL32.dll
 0000:fff57000       .debug$S                   0000000180000000     kernel32:KERNEL32.dll
 0000:fff57000       .debug$S                   0000000180000000     node:node.exe
 0000:fff57000       .debug$S                   0000000180000000     node:node.exe
 0000:fff57000       .debug$S                   0000000180000000     node:node.exe
 0000:fff57000       .debug$S                   0000000180000000     node:node.exe
 0000:fff57000       .debug$S                   0000000180000000     kernel32:KERNEL32.dll
 0000:fff57000       .debug$S                   0000000180000000     node:node.exe
 0000:fff57000       .debug$S                   0000000180000000     node:node.exe
 0000:fff57000       .debug$S                   0000000180000000     node:node.exe
 0000:fff57000       .debug$S                   0000000180000000     kernel32:KERNEL32.dll
 0000:fff57000       .debug$S                   0000000180000000     kernel32:KERNEL32.dll
 0000:fff57000       .debug$S                   0000000180000000     node:node.exe
 0000:fff57000       .debug$S                   0000000180000000     node:node.exe
 0000:fff57000       .debug$S                   0000000180000000     kernel32:KERNEL32.dll
 0000:fff57000       .debug$S                   0000000180000000     kernel32:KERNEL32.dll
 0000:fff57000       .debug$S                   0000000180000000     kernel32:KERNEL32.dll
 0000:fff57000       .debug$S                   0000000180000000     kernel32:KERNEL32.dll
 0000:fff57000       .debug$S                   0000000180000000     kernel32:KERNEL32.dll
 0000:fff57000       .debug$S                   0000000180000000     kernel32:KERNEL32.dll
 0000:fff57000       .debug$S                   0000000180000000     kernel32:KERNEL32.dll
 0000:fff57000       .debug$S                   0000000180000000     kernel32:KERNEL32.dll
 0000:fff57000       .debug$S                   0000000180000000     kernel32:KERNEL32.dll
 0000:fff57000       .debug$S                   0000000180000000     kernel32:KERNEL32.dll
 0000:fff57000       .debug$S                   0000000180000000     kernel32:KERNEL32.dll
 0000:fff57000       .debug$S                   0000000180000000     kernel32:KERNEL32.dll
 0000:fff57000       .debug$S                   0000000180000000     kernel32:KERNEL32.dll
 0000:fff57000       .debug$S                   0000000180000000     kernel32:KERNEL32.dll
 0000:fff57000       .debug$S                   0000000180000000     kernel32:KERNEL32.dll
 0000:fff57000       .debug$S                   0000000180000000     kernel32:KERNEL32.dll
 0000:fff57000       .debug$S                   0000000180000000     kernel32:KERNEL32.dll
 0000:fff57000       .debug$S                   0000000180000000     kernel32:KERNEL32.dll
 0000:fff57000       .debug$S                   0000000180000000     kernel32:KERNEL32.dll
 0000:fff57000       .debug$S                   0000000180000000     kernel32:KERNEL32.dll
 0000:fff57000       .debug$S                   0000000180000000     kernel32:KERNEL32.dll
 0000:fff57000       .debug$S                   0000000180000000     kernel32:KERNEL32.dll
 0000:fff57000       .debug$S                   0000000180000000     kernel32:KERNEL32.dll
 0000:fff57000       .debug$S                   0000000180000000     kernel32:KERNEL32.dll
 0000:fff57000       .debug$S                   0000000180000000     kernel32:KERNEL32.dll
 0000:fff57000       .debug$S                   0000000180000000     kernel32:KERNEL32.dll
 0000:fff57000       .debug$S                   0000000180000000     kernel32:KERNEL32.dll
 0000:fff57000       .debug$S                   0000000180000000     kernel32:KERNEL32.dll
 0000:fff57000       .debug$S                   0000000180000000     kernel32:KERNEL32.dll
 0000:fff57000       .debug$S                   0000000180000000     kernel32:KERNEL32.dll
 0000:fff57000       .debug$S                   0000000180000000     kernel32:KERNEL32.dll
 0000:fff57000       .debug$S                   0000000180000000     kernel32:KERNEL32.dll
 0000:fff57000       .debug$S                   0000000180000000     kernel32:KERNEL32.dll
 0000:fff57000       .debug$S                   0000000180000000     kernel32:KERNEL32.dll
 0000:fff57000       .debug$S                   0000000180000000     kernel32:KERNEL32.dll
 0000:fff57000       .debug$S                   0000000180000000     kernel32:KERNEL32.dll
 0000:fff57000       .debug$S                   0000000180000000     kernel32:KERNEL32.dll
 0000:fff57000       .debug$S                   0000000180000000     kernel32:KERNEL32.dll
 0000:fff57000       .debug$S                   0000000180000000     kernel32:KERNEL32.dll
 0000:fff57000       .debug$S                   0000000180000000     kernel32:KERNEL32.dll
 0000:fff57000       .debug$S                   0000000180000000     kernel32:KERNEL32.dll
 0000:fff57000       .debug$S                   0000000180000000     kernel32:KERNEL32.dll
 0000:fff57000       .debug$S                   0000000180000000     kernel32:KERNEL32.dll
 0001:00000260       _register_pkcs11           0000000180001260 f   main.obj
 0001:00010580       ?attr_set_value@@YAXPEAUCK_ATTRIBUTE@@PEBDI@Z 0000000180011580 f   template.obj
 0001:000105e0       ?v2c_ATTRIBUTE@@YA?AV?$shared_ptr@UCK_ATTRIBUTE@@@std@@V?$Local@VValue@v8@@@v8@@@Z 00000001800115e0 f   template.obj
 0001:00010c80       ?c2v_ATTRIBUTE@@YA?AV?$Local@VObject@v8@@@v8@@PEAUCK_ATTRIBUTE@@@Z 0000000180011c80 f   template.obj
 0001:00012b64       $LN829                     0000000180013b64     mech.obj
 0001:00016770       ?get_pkcs11_error@@YA?AV?$shared_ptr@V?$basic_string@DU?$char_traits@D@std@@V?$allocator@D@2@@std@@@std@@K@Z 0000000180017770 f   pkcs11.obj
 0001:000199c8       $LN3271                    000000018001a9c8     pkcs11.obj
 0001:00019ac4       $LN3270                    000000018001aac4     pkcs11.obj
 0001:00019bb8       $LN3269                    000000018001abb8     pkcs11.obj
 0001:00019bf8       $LN3268                    000000018001abf8     pkcs11.obj
 0001:00019c58       $LN3267                    000000018001ac58     pkcs11.obj
 0001:00019c78       $LN3266                    000000018001ac78     pkcs11.obj
 0001:0001c340       ?crypto_init@@YAXP6AKKPEAUCK_MECHANISM@@K@ZKV?$shared_ptr@VMechanism@@@std@@K@Z 000000018001d340 f   pkcs11.obj
 0001:0001c470       ?crypto_update@@YA?AV?$shared_ptr@V?$basic_string@DU?$char_traits@D@std@@V?$allocator@D@2@@std@@@std@@P6AKKPEAEK0PEAK@ZKV12@3@Z 000000018001d470 f   pkcs11.obj
 0001:0001c6a0       ?crypto_update@@YAXP6AKKPEAEK@ZKV?$shared_ptr@V?$basic_string@DU?$char_traits@D@std@@V?$allocator@D@2@@std@@@std@@@Z 000000018001d6a0 f   pkcs11.obj
 0001:0001c7d0       ?crypto_final@@YA?AV?$shared_ptr@V?$basic_string@DU?$char_traits@D@std@@V?$allocator@D@2@@std@@@std@@P6AKKPEAEPEAK@ZKV12@@Z 000000018001d7d0 f   pkcs11.obj
 0001:00020700       ?FunctionCallbackWrapper@imp@Nan@@YAXAEBV?$FunctionCallbackInfo@VValue@v8@@@v8@@@Z 0000000180021700 f   node.obj
 0001:000207e0       ?GetterCallbackWrapper@imp@Nan@@YAXV?$Local@VName@v8@@@v8@@AEBV?$PropertyCallbackInfo@VValue@v8@@@4@@Z 00000001800217e0 f   node.obj
 0001:00022710       ?buffer_to_string@@YA?AV?$shared_ptr@V?$basic_string@DU?$char_traits@D@std@@V?$allocator@D@2@@std@@@std@@V?$Local@VValue@v8@@@v8@@@Z 0000000180023710 f   node.obj
 0001:00022860       ?handle_to_v8@@YA?AV?$Local@VObject@v8@@@v8@@K@Z 0000000180023860 f   node.obj
 0001:00022900       ?v8_to_handle@@YAKV?$Local@VValue@v8@@@v8@@@Z 0000000180023900 f   node.obj
 0001:000229c0       ?get_string@@YA?AV?$shared_ptr@V?$basic_string@DU?$char_traits@D@std@@V?$allocator@D@2@@std@@@std@@V?$Local@VValue@v8@@@v8@@PEBD@Z 00000001800239c0 f   node.obj
 0001:00022c20       ?GetVersion@@YA?AV?$Local@VObject@v8@@@v8@@AEAUCK_VERSION@@@Z 0000000180023c20 f   node.obj
 0001:00022ea0       ?FillBuffer@@YA?AV?$Local@VValue@v8@@@v8@@V12@PEAV?$basic_string@DU?$char_traits@D@std@@V?$allocator@D@2@@std@@@Z 0000000180023ea0 f   node.obj
 0001:000508b0       ?load_exe_hook@@YAP6A_JXZIPEAUDelayLoadInfo@@@Z 00000001800518b0 f   win_delay_load_hook.obj
 0001:00050fc0       $$000000                   0000000180051fc0     LIBCMT:amdsecgs.obj
 0001:0005106c       ?__scrt_initialize_thread_safe_statics@@YAHXZ 000000018005206c f   LIBCMT:thread_safe_statics.obj
 0001:000511cc       ?__scrt_uninitialize_thread_safe_statics@@YAXXZ 00000001800521cc f   LIBCMT:thread_safe_statics.obj
 0001:00051768       ?dllmain_crt_dispatch@@YAHQEAUHINSTANCE__@@KQEAX@Z 0000000180052768 f   LIBCMT:dll_dllmain.obj
 0001:000517b8       ?dllmain_crt_process_attach@@YAHQEAUHINSTANCE__@@QEAX@Z 00000001800527b8 f   LIBCMT:dll_dllmain.obj
 0001:000518d4       ?dllmain_crt_process_detach@@YAH_N@Z 00000001800528d4 f   LIBCMT:dll_dllmain.obj
 0001:00051964       ?dllmain_dispatch@@YAHQEAUHINSTANCE__@@KQEAX@Z 0000000180052964 f   LIBCMT:dll_dllmain.obj
 0001:00051c90       capture_current_context    0000000180052c90 f   LIBCMT:gs_report.obj
 0001:00051d00       capture_previous_context   0000000180052d00 f   LIBCMT:gs_report.obj
 0001:00052dd0       $$000000                   0000000180053dd0     libvcruntime:memset.obj
 0001:00052ecc       MsetTab                    0000000180053ecc     libvcruntime:memset.obj
 0001:000532c0       ??$BuildCatchObjectHelperInternal@V__FrameHandler3@@@@YAHPEAUEHExceptionRecord@@PEAXPEBU_s_HandlerType@@PEBU_s_CatchableType@@@Z 00000001800542c0 f   libvcruntime:frame.obj
 0001:000534c0       ??$BuildCatchObjectInternal@V__FrameHandler3@@@@YAXPEAUEHExceptionRecord@@PEAXPEBU_s_HandlerType@@PEBU_s_CatchableType@@@Z 00000001800544c0 f   libvcruntime:frame.obj
 0001:00053580       ??$CatchIt@V__FrameHandler3@@@@YAXPEAUEHExceptionRecord@@PEA_KPEAU_CONTEXT@@PEAU_xDISPATCHER_CONTEXT@@PEBU_s_FuncInfo@@PEBU_s_HandlerType@@PEBU_s_CatchableType@@PEBU_s_TryBlockMapEntry@@H1EE@Z 0000000180054580 f   libvcruntime:frame.obj
 0001:00053650       ??$FindHandler@V__FrameHandler3@@@@YAXPEAUEHExceptionRecord@@PEA_KPEAU_CONTEXT@@PEAU_xDISPATCHER_CONTEXT@@PEBU_s_FuncInfo@@EH1@Z 0000000180054650 f   libvcruntime:frame.obj
 0001:00053ab4       ??$FindHandlerForForeignException@V__FrameHandler3@@@@YAXPEAUEHExceptionRecord@@PEA_KPEAU_CONTEXT@@PEAU_xDISPATCHER_CONTEXT@@PEBU_s_FuncInfo@@HH1@Z 0000000180054ab4 f   libvcruntime:frame.obj
 0001:000542bc       ?ExFilterRethrow@@YAHPEAU_EXCEPTION_POINTERS@@PEAUEHExceptionRecord@@PEAH@Z 00000001800552bc f   libvcruntime:frame.obj
 0001:00054570       ?IsInExceptionSpec@@YAEPEAUEHExceptionRecord@@PEBU_s_ESTypeList@@@Z 0000000180055570 f   libvcruntime:frame.obj
 0001:00054648       ?Is_bad_exception_allowed@@YAEPEBU_s_ESTypeList@@@Z 0000000180055648 f   libvcruntime:frame.obj
 0001:00054788       ?try_get_function@@YAPEAXW4function_id@?A0x14c33c87@@QEBDQEBW4module_id@2@2@Z 0000000180055788 f   libvcruntime:winapi_downlevel.obj
 0001:00054b60       $$000000                   0000000180055b60     libvcruntime:notify.obj
 0001:00054be0       $$000000                   0000000180055be0     libvcruntime:handlers.obj
 0001:00054c90       $$000000                   0000000180055c90     libvcruntime:memcpy.obj
 0001:00054d47       MoveSmall                  0000000180055d47     libvcruntime:memcpy.obj
 0001:000550e8       ??$?RV<lambda_0d412022a4b28cc8a401ea49574e8ae6>@@AEAV<lambda_a775ed57af18ba8e4d5dc780aa9068fe>@@V<lambda_975a71a6baa488a08f4e15f6b0339b9e>@@@?$__crt_seh_guarded_call@H@@QEAAH$$QEAV<lambda_0d412022a4b28cc8a401ea49574e8ae6>@@AEAV<lambda_a775ed57af18ba8e4d5dc780aa9068fe>@@$$QEAV<lambda_975a71a6baa488a08f4e15f6b0339b9e>@@@Z 00000001800560e8 f   libucrt:output.obj
 0001:00055128       ??$common_vsprintf@Vstandard_base@__crt_stdio_output@@D@@YAH_KQEAD0QEBDQEAU__crt_locale_pointers@@1@Z 0000000180056128 f   libucrt:output.obj
 0001:000552f4       ??$common_vsprintf@Vstandard_base@__crt_stdio_output@@_W@@YAH_KQEA_W0QEB_WQEAU__crt_locale_pointers@@QEAD@Z 00000001800562f4 f   libucrt:output.obj
 0001:00055aec       ??R<lambda_a775ed57af18ba8e4d5dc780aa9068fe>@@QEBAHXZ 0000000180056aec f   libucrt:output.obj
 0001:00058758       ??$common_assert_to_message_box@_W@@YAXQEB_W0IQEAX@Z 0000000180059758 f   libucrt:assert.obj
 0001:0005881c       ??$common_assert_to_message_box_build_string@_W@@YAXQEA_W_KQEB_W2IQEAX@Z 000000018005981c f   libucrt:assert.obj
 0001:00058d20       ??$common_assert_to_stderr@_W@@YAXQEB_W0I@Z 0000000180059d20 f   libucrt:assert.obj
 0001:00058e90       ?get_assert_format@@YAPEB_W_W@Z 0000000180059e90 f   libucrt:assert.obj
 0001:000592e4       ??$?RV<lambda_d80eeec6fff315bfe5c115232f3240e3>@@AEAV<lambda_6e4b09c48022b2350581041d5f6b0c4c>@@V<lambda_2358e3775559c9db80273638284d5e45>@@@?$__crt_seh_guarded_call@X@@QEAAX$$QEAV<lambda_d80eeec6fff315bfe5c115232f3240e3>@@AEAV<lambda_6e4b09c48022b2350581041d5f6b0c4c>@@$$QEAV<lambda_2358e3775559c9db80273638284d5e45>@@@Z 000000018005a2e4 f   libucrt:exit.obj
 0001:0005931c       ??R<lambda_6e4b09c48022b2350581041d5f6b0c4c>@@QEBA@XZ 000000018005a31c f   libucrt:exit.obj
 0001:000593e0       ?atexit_exception_filter@@YAHK@Z 000000018005a3e0 f   libucrt:exit.obj
 0001:000593ec       ?common_exit@@YAXHW4_crt_exit_cleanup_mode@@W4_crt_exit_return_mode@@@Z 000000018005a3ec f   libucrt:exit.obj
 0001:000594a8       ?exit_or_terminate_process@@YAXI@Z 000000018005a4a8 f   libucrt:exit.obj
 0001:000594f4       ?try_cor_exit_process@@YAXI@Z 000000018005a4f4 f   libucrt:exit.obj
 0001:0005957c       ??$parse_command_line@D@@YAXPEADPEAPEAD0PEA_K2@Z 000000018005a57c f   libucrt:argv_parsing.obj
 0001:00059928       ??$common_initialize_environment_nolock@D@@YAHXZ 000000018005a928 f   libucrt:environment_initialization.obj
 0001:00059994       ??$create_environment@D@@YAQEAPEADQEAD@Z 000000018005a994 f   libucrt:environment_initialization.obj
 0001:00059a9c       ??$free_environment@_W@@YAXQEAPEA_W@Z 000000018005aa9c f   libucrt:environment_initialization.obj
 0001:00059a9c       ??$free_environment@D@@YAXQEAPEAD@Z 000000018005aa9c f   libucrt:environment_initialization.obj
 0001:00059ae0       ??$uninitialize_environment_internal@D@@YAXAEAPEAPEAD@Z 000000018005aae0 f   libucrt:environment_initialization.obj
 0001:00059afc       ??$uninitialize_environment_internal@_W@@YAXAEAPEAPEA_W@Z 000000018005aafc f   libucrt:environment_initialization.obj
 0001:00059b58       ??$?RV<lambda_638799b9deba96c50f710eeac98168cd>@@AEAV<lambda_22ebabd17bc4fa466a2aca6d8deb888d>@@V<lambda_a6f7d7db0129f75315ebf26d50c089f1>@@@?$__crt_seh_guarded_call@H@@QEAAH$$QEAV<lambda_638799b9deba96c50f710eeac98168cd>@@AEAV<lambda_22ebabd17bc4fa466a2aca6d8deb888d>@@$$QEAV<lambda_a6f7d7db0129f75315ebf26d50c089f1>@@@Z 000000018005ab58 f   libucrt:onexit.obj
 0001:00059b94       ??$?RV<lambda_7777bce6b2f8c936911f934f8298dc43>@@AEAV<lambda_f03950bc5685219e0bcd2087efbe011e>@@V<lambda_3883c3dff614d5e0c5f61bb1ac94921c>@@@?$__crt_seh_guarded_call@H@@QEAAH$$QEAV<lambda_7777bce6b2f8c936911f934f8298dc43>@@AEAV<lambda_f03950bc5685219e0bcd2087efbe011e>@@$$QEAV<lambda_3883c3dff614d5e0c5f61bb1ac94921c>@@@Z 000000018005ab94 f   libucrt:onexit.obj
 0001:00059bd0       ??R<lambda_22ebabd17bc4fa466a2aca6d8deb888d>@@QEBAHXZ 000000018005abd0 f   libucrt:onexit.obj
 0001:00059d80       ??R<lambda_f03950bc5685219e0bcd2087efbe011e>@@QEBAHXZ 000000018005ad80 f   libucrt:onexit.obj
 0001:00059f54       initialize_global_variables 000000018005af54 f   libucrt:initialization.obj
 0001:00059f68       initialize_c               000000018005af68 f   libucrt:initialization.obj
 0001:00059f8c       initialize_global_state_isolation 000000018005af8c f   libucrt:initialization.obj
 0001:00059f8c       uninitialize_c             000000018005af8c f   libucrt:initialization.obj
 0001:00059f8c       report_memory_leaks        000000018005af8c f   libucrt:initialization.obj
 0001:00059f8c       uninitialize_global_state_isolation 000000018005af8c f   libucrt:initialization.obj
 0001:00059f8c       initialize_environment     000000018005af8c f   libucrt:initialization.obj
 0001:00059f90       uninitialize_environment   000000018005af90 f   libucrt:initialization.obj
 0001:00059fa0       initialize_pointers        000000018005afa0 f   libucrt:initialization.obj
 0001:00059fe0       uninitialize_vcruntime     000000018005afe0 f   libucrt:initialization.obj
 0001:00059fe8       uninitialize_allocated_memory 000000018005afe8 f   libucrt:initialization.obj
 0001:0005a028       uninitialize_allocated_io_buffers 000000018005b028 f   libucrt:initialization.obj
 0001:0005acb0       $$000000                   000000018005bcb0     libucrt:strncmp.obj
 0001:0005add4       ?internal_isupper_l@@YA_NHQEAU__crt_locale_pointers@@@Z 000000018005bdd4 f   libucrt:tolower_toupper.obj
 0001:0005b7d0       ??$?RV<lambda_0ae27a3a962d80f24befdcbee591983d>@@AEAV<lambda_8d0ee55de4b1038c4002e0adecdf1839>@@V<lambda_dc504788e8f1664fe9b84e20bfb512f2>@@@?$__crt_seh_guarded_call@X@@QEAAX$$QEAV<lambda_0ae27a3a962d80f24befdcbee591983d>@@AEAV<lambda_8d0ee55de4b1038c4002e0adecdf1839>@@$$QEAV<lambda_dc504788e8f1664fe9b84e20bfb512f2>@@@Z 000000018005c7d0 f   libucrt:per_thread_data.obj
 0001:0005b810       ??$?RV<lambda_2d41944a1d46af3157314b8a01080d33>@@AEAV<lambda_8f455de75cd7d7f24b4096f044d8b9e6>@@V<lambda_aa500f224e6afead328df44964fe2772>@@@?$__crt_seh_guarded_call@X@@QEAAX$$QEAV<lambda_2d41944a1d46af3157314b8a01080d33>@@AEAV<lambda_8f455de75cd7d7f24b4096f044d8b9e6>@@$$QEAV<lambda_aa500f224e6afead328df44964fe2772>@@@Z 000000018005c810 f   libucrt:per_thread_data.obj
 0001:0005b850       ??$?RV<lambda_aa87e3671a710a21b5dc78c0bdf72e11>@@AEAV<lambda_92619d2358a28f41a33ba319515a20b9>@@V<lambda_6992ecaafeb10aed2b74cb1fae11a551>@@@?$__crt_seh_guarded_call@X@@QEAAX$$QEAV<lambda_aa87e3671a710a21b5dc78c0bdf72e11>@@AEAV<lambda_92619d2358a28f41a33ba319515a20b9>@@$$QEAV<lambda_6992ecaafeb10aed2b74cb1fae11a551>@@@Z 000000018005c850 f   libucrt:per_thread_data.obj
 0001:0005b898       ??$?RV<lambda_f2e299630e499de9f9a165e60fcd3db5>@@AEAV<lambda_2ae9d31cdba2644fcbeaf08da7c24588>@@V<lambda_40d01ff24d0e7b3814fdbdcee8eab3c7>@@@?$__crt_seh_guarded_call@X@@QEAAX$$QEAV<lambda_f2e299630e499de9f9a165e60fcd3db5>@@AEAV<lambda_2ae9d31cdba2644fcbeaf08da7c24588>@@$$QEAV<lambda_40d01ff24d0e7b3814fdbdcee8eab3c7>@@@Z 000000018005c898 f   libucrt:per_thread_data.obj
 0001:0005b8f8       ?construct_ptd_array@@YAXQEAU__acrt_ptd@@@Z 000000018005c8f8 f   libucrt:per_thread_data.obj
 0001:0005b9c8       ?destroy_fls@@YAXPEAX@Z    000000018005c9c8 f   libucrt:per_thread_data.obj
 0001:0005b9e8       ?destroy_ptd_array@@YAXQEAU__acrt_ptd@@@Z 000000018005c9e8 f   libucrt:per_thread_data.obj
 0001:0005bae0       ?replace_current_thread_locale_nolock@@YAXQEAU__acrt_ptd@@QEAU__crt_locale_data@@@Z 000000018005cae0 f   libucrt:per_thread_data.obj
 0001:0005be9c       ?fp_format_a@@YAHQEBNPEAD_KQEAD2H_NIQEAU__crt_locale_pointers@@@Z 000000018005ce9c f   libucrt:cvt.obj
 0001:0005c20c       ?fp_format_e@@YAHQEBNQEAD_K12H_NIQEAU__crt_locale_pointers@@@Z 000000018005d20c f   libucrt:cvt.obj
 0001:0005c2e8       ?fp_format_e_internal@@YAHQEAD_KH_NIQEAU_strflt@@2QEAU__crt_locale_pointers@@@Z 000000018005d2e8 f   libucrt:cvt.obj
 0001:0005c4bc       ?fp_format_f_internal@@YAHQEAD_KHQEAU_strflt@@_NQEAU__crt_locale_pointers@@@Z 000000018005d4bc f   libucrt:cvt.obj
 0001:0005c600       ?fp_format_g@@YAHQEBNQEAD_K12H_NIQEAU__crt_locale_pointers@@@Z 000000018005d600 f   libucrt:cvt.obj
 0001:0005c734       ?fp_format_nan_or_infinity@@YAHW4__acrt_fp_class@@_NPEAD_K1@Z 000000018005d734 f   libucrt:cvt.obj
 0001:0005cf80       ??$?RV<lambda_410d79af7f07d98d83a3f525b3859a53>@@AEAV<lambda_3e16ef9562a7dcce91392c22ab16ea36>@@V<lambda_38119f0e861e05405d8a144b9b982f0a>@@@?$__crt_seh_guarded_call@X@@QEAAX$$QEAV<lambda_410d79af7f07d98d83a3f525b3859a53>@@AEAV<lambda_3e16ef9562a7dcce91392c22ab16ea36>@@$$QEAV<lambda_38119f0e861e05405d8a144b9b982f0a>@@@Z 000000018005df80 f   libucrt:wsetlocale.obj
 0001:0005d02c       ?initialize_inherited_file_handles_nolock@@YAXXZ 000000018005e02c f   libucrt:ioinit.obj
 0001:0005d11c       ?initialize_stdio_handles_nolock@@YAXXZ 000000018005e11c f   libucrt:ioinit.obj
 0001:0005d328       ??$common_xtox@K_W@@YAHKQEA_W_KI_N@Z 000000018005e328 f   libucrt:xtoa.obj
 0001:0005d3fc       ??$common_xtox_s@K_W@@YAHKQEA_W_KI_N@Z 000000018005e3fc f   libucrt:xtoa.obj
 0001:0005d988       ??$?RV<lambda_842d9ff0dc9ef11c61343bbaebe7f885>@@AEAV<lambda_c5860995281e5c4ce005b3de8f5874ee>@@V<lambda_d90129c13df834fdcbf8d2b88dafcf2d>@@@?$__crt_seh_guarded_call@X@@QEAAX$$QEAV<lambda_842d9ff0dc9ef11c61343bbaebe7f885>@@AEAV<lambda_c5860995281e5c4ce005b3de8f5874ee>@@$$QEAV<lambda_d90129c13df834fdcbf8d2b88dafcf2d>@@@Z 000000018005e988 f   libucrt:fflush.obj
 0001:0005da24       ??$?RV<lambda_886d6c58226a84441f68b9f2b8217b83>@@AEAV<lambda_ab61a845afdef5b7c387490eaf3616ee>@@V<lambda_f7f22ab5edc0698d5f6905b0d3f44752>@@@?$__crt_seh_guarded_call@X@@QEAAX$$QEAV<lambda_886d6c58226a84441f68b9f2b8217b83>@@AEAV<lambda_ab61a845afdef5b7c387490eaf3616ee>@@$$QEAV<lambda_f7f22ab5edc0698d5f6905b0d3f44752>@@@Z 000000018005ea24 f   libucrt:fflush.obj
 0001:0005db04       ??$?RV<lambda_c376a267cfb53b6959b3b692ec76b120>@@AEAV<lambda_9a32fed5bf61b6b509b2d3f6003082a1>@@V<lambda_572fbb9fa0ab338edf41edfd4b5fcc8d>@@@?$__crt_seh_guarded_call@H@@QEAAH$$QEAV<lambda_c376a267cfb53b6959b3b692ec76b120>@@AEAV<lambda_9a32fed5bf61b6b509b2d3f6003082a1>@@$$QEAV<lambda_572fbb9fa0ab338edf41edfd4b5fcc8d>@@@Z 000000018005eb04 f   libucrt:fflush.obj
 0001:0005db44       ?common_flush_all@@YAH_N@Z 000000018005eb44 f   libucrt:fflush.obj
 0001:0005dcdc       ??$?RV<lambda_84ec643ea9557e2f7dc01bb0e9624395>@@AEAV<lambda_ca71763b3c0644891230e4f79ea54fa6>@@V<lambda_439a761618c59b0600e24586724d733b>@@@?$__crt_seh_guarded_call@H@@QEAAH$$QEAV<lambda_84ec643ea9557e2f7dc01bb0e9624395>@@AEAV<lambda_ca71763b3c0644891230e4f79ea54fa6>@@$$QEAV<lambda_439a761618c59b0600e24586724d733b>@@@Z 000000018005ecdc f   libucrt:setvbuf.obj
 0001:0005dd1c       ??R<lambda_ca71763b3c0644891230e4f79ea54fa6>@@QEBAHXZ 000000018005ed1c f   libucrt:setvbuf.obj
 0001:0005de98       ??$?RV<lambda_450d765d439847d4c735a33c368b5fc0>@@AEAV<lambda_44731a7d0e6d81c3e6aa82d741081786>@@V<lambda_601a2a7da3b7a96e9554ac7215c4b07c>@@@?$__crt_seh_guarded_call@P6AXH@Z@@QEAAP6AXH@Z$$QEAV<lambda_450d765d439847d4c735a33c368b5fc0>@@AEAV<lambda_44731a7d0e6d81c3e6aa82d741081786>@@$$QEAV<lambda_601a2a7da3b7a96e9554ac7215c4b07c>@@@Z 000000018005ee98 f   libucrt:signal.obj
 0001:0005e3c8       ?<lambda_invoker_cdecl>@<lambda_c2303d2482d7c3675ea2e24c4cfb6115>@@CAHPEBX0@Z 000000018005f3c8 f   libucrt:argv_wildcards.obj
 0001:0005e6e0       ??$common_expand_argv_wildcards@D@@YAHQEAPEADQEAPEAPEAD@Z 000000018005f6e0 f   libucrt:argv_wildcards.obj
 0001:0005e8ec       ??$copy_and_add_argument_to_buffer@D@@YAHQEBD0_KAEAV?$argument_list@D@?A0x5f5c8891@@@Z 000000018005f8ec f   libucrt:argv_wildcards.obj
 0001:0005ea74       ??$expand_argument_wildcards@D@@YAHQEAD0AEAV?$argument_list@D@?A0x5f5c8891@@@Z 000000018005fa74 f   libucrt:argv_wildcards.obj
 0001:0005ed8c       ??$?RV<lambda_efdfa57d1f175319df784efa44bb7b81>@@AEAV<lambda_5f0a4c1567f8adc6734073e5d1e1b35c>@@V<lambda_2e8a7d3640ea6ccb4c2413664c2db6fd>@@@?$__crt_seh_guarded_call@X@@QEAAX$$QEAV<lambda_efdfa57d1f175319df784efa44bb7b81>@@AEAV<lambda_5f0a4c1567f8adc6734073e5d1e1b35c>@@$$QEAV<lambda_2e8a7d3640ea6ccb4c2413664c2db6fd>@@@Z 000000018005fd8c f   libucrt:mbctype.obj
 0001:0005ef48       ?getSystemCP@@YAHH@Z       000000018005ff48 f   libucrt:mbctype.obj
 0001:0005efc8       ?setSBCS@@YAXPEAU__crt_multibyte_data@@@Z 000000018005ffc8 f   libucrt:mbctype.obj
 0001:0005f058       ?setSBUpLow@@YAXPEAU__crt_multibyte_data@@@Z 0000000180060058 f   libucrt:mbctype.obj
 0001:0005f23c       ?setmbcp_internal@@YAHH_NQEAU__acrt_ptd@@QEAPEAU__crt_multibyte_data@@@Z 000000018006023c f   libucrt:mbctype.obj
 0001:0005f400       ?update_thread_multibyte_data_internal@@YAPEAU__crt_multibyte_data@@QEAU__acrt_ptd@@QEAPEAU1@@Z 0000000180060400 f   libucrt:mbctype.obj
 0001:0005f7f0       ?x_ismbbtype_l@@YAHPEAU__crt_locale_pointers@@IHH@Z 00000001800607f0 f   libucrt:ismbbyte.obj
 0001:0005fb34       ?try_get_function@@YAPEAXW4function_id@?A0x391cf84c@@QEBDQEBW4module_id@2@2@Z 0000000180060b34 f   libucrt:winapi_thunks.obj
 0001:000606c8       ?__acrt_LCMapStringA_stat@@YAHPEAU__crt_locale_pointers@@PEB_WKPEBDHPEADHHH@Z 00000001800616c8 f   libucrt:lcmapstringa.obj
 0001:00062840       memcpy_s                   0000000180063840 f   libucrt:cfout.obj
 0001:000628c8       ??$write_buffer_nolock@D@@YA_NDV__crt_stdio_stream@@@Z 00000001800638c8 f   libucrt:_flsbuf.obj
 0001:000629ac       ??$write_buffer_nolock@_W@@YA_N_WV__crt_stdio_stream@@@Z 00000001800639ac f   libucrt:_flsbuf.obj
 0001:00062a94       ?stream_is_at_end_of_file_nolock@@YA_NV__crt_stdio_stream@@@Z 0000000180063a94 f   libucrt:_flsbuf.obj
 0001:00062fb0       ?free_crt_array_internal@@YAXQEAPEBX_K@Z 0000000180063fb0 f   libucrt:inittime.obj
 0001:000635c4       ??$?RV<lambda_a37b2b86f63e897a80ea819b0eb08c01>@@AEAV<lambda_38ce7e780aa69e748d6df282ebc68efe>@@V<lambda_99fb1378e971ab6e7edea83e3a7a83a2>@@@?$__crt_seh_guarded_call@H@@QEAAH$$QEAV<lambda_a37b2b86f63e897a80ea819b0eb08c01>@@AEAV<lambda_38ce7e780aa69e748d6df282ebc68efe>@@$$QEAV<lambda_99fb1378e971ab6e7edea83e3a7a83a2>@@@Z 00000001800645c4 f   libucrt:commit.obj
 0001:000636e4       ?write_double_translated_ansi_nolock@@YA?AUwrite_result@?A0x17268360@@HQEBDI@Z 00000001800646e4 f   libucrt:write.obj
 0001:00063bc0       ?write_text_ansi_nolock@@YA?AUwrite_result@?A0x17268360@@HQEBDI@Z 0000000180064bc0 f   libucrt:write.obj
 0001:00063cc4       ?write_text_utf16le_nolock@@YA?AUwrite_result@?A0x17268360@@HQEBDI@Z 0000000180064cc4 f   libucrt:write.obj
 0001:00063de0       ?write_text_utf8_nolock@@YA?AUwrite_result@?A0x17268360@@HQEBDI@Z 0000000180064de0 f   libucrt:write.obj
 0001:000647b4       fallbackMethod             00000001800657b4 f   libucrt:strpbrk.obj
 0001:00064b84       $LN78                      0000000180065b84     libucrt:strpbrk.obj
 0001:00064bc0       $LN77                      0000000180065bc0     libucrt:strpbrk.obj
 0001:00064c00       $LN76                      0000000180065c00     libucrt:strpbrk.obj
 0001:00064cdc       ?initialize_multibyte@@YAHXZ 0000000180065cdc f   libucrt:multibyte_initializer.obj
 0001:00064d30       ?GetTableIndexFromLocaleName@@YAHPEB_W@Z 0000000180065d30 f   libucrt:lcidtoname_downlevel.obj
 0001:000651d0       $$000000                   00000001800661d0     libucrt:log10.obj
 0001:0006577c       ??$common_lseek@_J@@YA_JH_JH@Z 000000018006677c f   libucrt:lseek.obj
 0001:0006586c       ??$common_lseek_nolock@_J@@YA_JH_JH@Z 000000018006686c f   libucrt:lseek.obj
 0001:00065e28       _call_matherr              0000000180066e28 f   libucrt:libm_error.obj
 0001:00065e90       _exception_enabled         0000000180066e90 f   libucrt:libm_error.obj
 0001:00066120       _log_special_common        0000000180067120 f   libucrt:log_special.obj
 0001:000661b8       ??$?RV<lambda_751a882b2c74d4b022dec766aa51a29a>@@AEAV<lambda_628dfdc04ba53c8bfc02c9951375f3f5>@@V<lambda_f6c7be5f7998530c34de24c7437d6b54>@@@?$__crt_seh_guarded_call@H@@QEAAH$$QEAV<lambda_751a882b2c74d4b022dec766aa51a29a>@@AEAV<lambda_628dfdc04ba53c8bfc02c9951375f3f5>@@$$QEAV<lambda_f6c7be5f7998530c34de24c7437d6b54>@@@Z 00000001800671b8 f   libucrt:close.obj
 0001:000664e0       $$000000                   00000001800674e0     libucrt:fpsr.obj
 0001:00067130       $$000000                   0000000180068130     LIBCMT:chkstk.obj
 0001:000672e0       $$000000                   00000001800682e0     libvcruntime:memcmp.obj
 0001:00067440       $$000000                   0000000180068440     LIBCMT:guard_dispatch.obj
 0001:00067460       ?dtor$0@?0??init@@YAXV?$Local@VObject@v8@@@v8@@@Z@4HA 0000000180068460 f   main.obj
 0001:0006746c       ?dtor$2@?0??init@@YAXV?$Local@VObject@v8@@@v8@@@Z@4HA 000000018006846c f   main.obj
 0001:00067478       ?dtor$4@?0??init@@YAXV?$Local@VObject@v8@@@v8@@@Z@4HA 0000000180068478 f   main.obj
 0001:00067486       ?dtor$5@?0??init@@YAXV?$Local@VObject@v8@@@v8@@@Z@4HA 0000000180068486 f   main.obj
 0001:000674a0       ?dtor$0@?0??Set@Nan@@YA?AV?$Maybe@_N@1@V?$Local@VObject@v8@@@v8@@V?$Local@VValue@v8@@@4@1@Z@4HA 00000001800684a0 f   template.obj
 0001:000674a0       ?dtor$0@?0??DefineOwnProperty@Nan@@YA?AV?$Maybe@_N@1@V?$Local@VObject@v8@@@v8@@V?$Local@VString@v8@@@4@V?$Local@VValue@v8@@@4@W4PropertyAttribute@4@@Z@4HA 00000001800684a0 f   const.obj
 0001:000674b0       ?dtor$0@?0??HandleErrorCallback@AsyncWorker@Nan@@MEAAXXZ@4HA 00000001800684b0 f   node.obj
 0001:000674b0       ?dtor$0@?0??HandleOKCallback@AsyncWorker@Nan@@MEAAXXZ@4HA 00000001800684b0 f   node.obj
 0001:000674b0       ?dtor$0@?0???0Utf8String@Nan@@QEAA@V?$Local@VValue@v8@@@v8@@@Z@4HA 00000001800684b0 f   template.obj
 0001:000674b0       ?dtor$0@?0??declare_attributes@@YAXV?$Local@VObject@v8@@@v8@@@Z@4HA 00000001800684b0 f   const.obj
 0001:000674b0       ?dtor$0@?0??ThrowError@Nan@@YAXPEBD@Z@4HA 00000001800684b0 f   node.obj
 0001:000674c0       ?dtor$0@?0??declare_flags@@YAXV?$Local@VObject@v8@@@v8@@@Z@4HA 00000001800684c0 f   const.obj
 0001:000674cc       ?dtor$2@?0??declare_flags@@YAXV?$Local@VObject@v8@@@v8@@@Z@4HA 00000001800684cc f   const.obj
 0001:000674da       ?dtor$3@?0??declare_flags@@YAXV?$Local@VObject@v8@@@v8@@@Z@4HA 00000001800684da f   const.obj
 0001:000674e8       ?dtor$4@?0??declare_flags@@YAXV?$Local@VObject@v8@@@v8@@@Z@4HA 00000001800684e8 f   const.obj
 0001:000674f6       ?dtor$5@?0??declare_flags@@YAXV?$Local@VObject@v8@@@v8@@@Z@4HA 00000001800684f6 f   const.obj
 0001:00067504       ?dtor$6@?0??declare_flags@@YAXV?$Local@VObject@v8@@@v8@@@Z@4HA 0000000180068504 f   const.obj
 0001:00067512       ?dtor$7@?0??declare_flags@@YAXV?$Local@VObject@v8@@@v8@@@Z@4HA 0000000180068512 f   const.obj
 0001:00067520       ?dtor$8@?0??declare_flags@@YAXV?$Local@VObject@v8@@@v8@@@Z@4HA 0000000180068520 f   const.obj
 0001:0006752e       ?dtor$9@?0??declare_flags@@YAXV?$Local@VObject@v8@@@v8@@@Z@4HA 000000018006852e f   const.obj
 0001:0006753c       ?dtor$10@?0??declare_flags@@YAXV?$Local@VObject@v8@@@v8@@@Z@4HA 000000018006853c f   const.obj
 0001:0006754a       ?dtor$11@?0??declare_flags@@YAXV?$Local@VObject@v8@@@v8@@@Z@4HA 000000018006854a f   const.obj
 0001:00067558       ?dtor$12@?0??declare_flags@@YAXV?$Local@VObject@v8@@@v8@@@Z@4HA 0000000180068558 f   const.obj
 0001:00067566       ?dtor$13@?0??declare_flags@@YAXV?$Local@VObject@v8@@@v8@@@Z@4HA 0000000180068566 f   const.obj
 0001:00067574       ?dtor$14@?0??declare_flags@@YAXV?$Local@VObject@v8@@@v8@@@Z@4HA 0000000180068574 f   const.obj
 0001:00067582       ?dtor$15@?0??declare_flags@@YAXV?$Local@VObject@v8@@@v8@@@Z@4HA 0000000180068582 f   const.obj
 0001:00067590       ?dtor$16@?0??declare_flags@@YAXV?$Local@VObject@v8@@@v8@@@Z@4HA 0000000180068590 f   const.obj
 0001:0006759e       ?dtor$17@?0??declare_flags@@YAXV?$Local@VObject@v8@@@v8@@@Z@4HA 000000018006859e f   const.obj
 0001:000675ac       ?dtor$18@?0??declare_flags@@YAXV?$Local@VObject@v8@@@v8@@@Z@4HA 00000001800685ac f   const.obj
 0001:000675ba       ?dtor$19@?0??declare_flags@@YAXV?$Local@VObject@v8@@@v8@@@Z@4HA 00000001800685ba f   const.obj
 0001:000675c8       ?dtor$20@?0??declare_flags@@YAXV?$Local@VObject@v8@@@v8@@@Z@4HA 00000001800685c8 f   const.obj
 0001:000675d6       ?dtor$21@?0??declare_flags@@YAXV?$Local@VObject@v8@@@v8@@@Z@4HA 00000001800685d6 f   const.obj
 0001:000675e4       ?dtor$22@?0??declare_flags@@YAXV?$Local@VObject@v8@@@v8@@@Z@4HA 00000001800685e4 f   const.obj
 0001:000675f2       ?dtor$23@?0??declare_flags@@YAXV?$Local@VObject@v8@@@v8@@@Z@4HA 00000001800685f2 f   const.obj
 0001:00067600       ?dtor$24@?0??declare_flags@@YAXV?$Local@VObject@v8@@@v8@@@Z@4HA 0000000180068600 f   const.obj
 0001:0006760e       ?dtor$25@?0??declare_flags@@YAXV?$Local@VObject@v8@@@v8@@@Z@4HA 000000018006860e f   const.obj
 0001:0006761c       ?dtor$26@?0??declare_flags@@YAXV?$Local@VObject@v8@@@v8@@@Z@4HA 000000018006861c f   const.obj
 0001:0006762a       ?dtor$27@?0??declare_flags@@YAXV?$Local@VObject@v8@@@v8@@@Z@4HA 000000018006862a f   const.obj
 0001:00067638       ?dtor$28@?0??declare_flags@@YAXV?$Local@VObject@v8@@@v8@@@Z@4HA 0000000180068638 f   const.obj
 0001:00067646       ?dtor$29@?0??declare_flags@@YAXV?$Local@VObject@v8@@@v8@@@Z@4HA 0000000180068646 f   const.obj
 0001:00067654       ?dtor$30@?0??declare_flags@@YAXV?$Local@VObject@v8@@@v8@@@Z@4HA 0000000180068654 f   const.obj
 0001:00067662       ?dtor$31@?0??declare_flags@@YAXV?$Local@VObject@v8@@@v8@@@Z@4HA 0000000180068662 f   const.obj
 0001:00067670       ?dtor$32@?0??declare_flags@@YAXV?$Local@VObject@v8@@@v8@@@Z@4HA 0000000180068670 f   const.obj
 0001:0006767e       ?dtor$33@?0??declare_flags@@YAXV?$Local@VObject@v8@@@v8@@@Z@4HA 000000018006867e f   const.obj
 0001:0006768c       ?dtor$34@?0??declare_flags@@YAXV?$Local@VObject@v8@@@v8@@@Z@4HA 000000018006868c f   const.obj
 0001:0006769a       ?dtor$35@?0??declare_flags@@YAXV?$Local@VObject@v8@@@v8@@@Z@4HA 000000018006869a f   const.obj
 0001:000676b0       ?dtor$0@?0??declare_objects@@YAXV?$Local@VObject@v8@@@v8@@@Z@4HA 00000001800686b0 f   const.obj
 0001:000676bc       ?dtor$2@?0??declare_objects@@YAXV?$Local@VObject@v8@@@v8@@@Z@4HA 00000001800686bc f   const.obj
 0001:000676ca       ?dtor$3@?0??declare_objects@@YAXV?$Local@VObject@v8@@@v8@@@Z@4HA 00000001800686ca f   const.obj
 0001:000676d8       ?dtor$4@?0??declare_objects@@YAXV?$Local@VObject@v8@@@v8@@@Z@4HA 00000001800686d8 f   const.obj
 0001:000676e6       ?dtor$5@?0??declare_objects@@YAXV?$Local@VObject@v8@@@v8@@@Z@4HA 00000001800686e6 f   const.obj
 0001:000676f4       ?dtor$6@?0??declare_objects@@YAXV?$Local@VObject@v8@@@v8@@@Z@4HA 00000001800686f4 f   const.obj
 0001:00067702       ?dtor$7@?0??declare_objects@@YAXV?$Local@VObject@v8@@@v8@@@Z@4HA 0000000180068702 f   const.obj
 0001:00067710       ?dtor$8@?0??declare_objects@@YAXV?$Local@VObject@v8@@@v8@@@Z@4HA 0000000180068710 f   const.obj
 0001:0006771e       ?dtor$9@?0??declare_objects@@YAXV?$Local@VObject@v8@@@v8@@@Z@4HA 000000018006871e f   const.obj
 0001:0006772c       ?dtor$10@?0??declare_objects@@YAXV?$Local@VObject@v8@@@v8@@@Z@4HA 000000018006872c f   const.obj
 0001:0006773a       ?dtor$11@?0??declare_objects@@YAXV?$Local@VObject@v8@@@v8@@@Z@4HA 000000018006873a f   const.obj
 0001:00067750       ?dtor$0@?0??declare_ket_types@@YAXV?$Local@VObject@v8@@@v8@@@Z@4HA 0000000180068750 f   const.obj
 0001:0006775c       ?dtor$2@?0??declare_ket_types@@YAXV?$Local@VObject@v8@@@v8@@@Z@4HA 000000018006875c f   const.obj
 0001:0006776a       ?dtor$3@?0??declare_ket_types@@YAXV?$Local@VObject@v8@@@v8@@@Z@4HA 000000018006876a f   const.obj
 0001:00067778       ?dtor$4@?0??declare_ket_types@@YAXV?$Local@VObject@v8@@@v8@@@Z@4HA 0000000180068778 f   const.obj
 0001:00067786       ?dtor$5@?0??declare_ket_types@@YAXV?$Local@VObject@v8@@@v8@@@Z@4HA 0000000180068786 f   const.obj
 0001:00067794       ?dtor$6@?0??declare_ket_types@@YAXV?$Local@VObject@v8@@@v8@@@Z@4HA 0000000180068794 f   const.obj
 0001:000677a2       ?dtor$7@?0??declare_ket_types@@YAXV?$Local@VObject@v8@@@v8@@@Z@4HA 00000001800687a2 f   const.obj
 0001:000677b0       ?dtor$8@?0??declare_ket_types@@YAXV?$Local@VObject@v8@@@v8@@@Z@4HA 00000001800687b0 f   const.obj
 0001:000677be       ?dtor$9@?0??declare_ket_types@@YAXV?$Local@VObject@v8@@@v8@@@Z@4HA 00000001800687be f   const.obj
 0001:000677cc       ?dtor$10@?0??declare_ket_types@@YAXV?$Local@VObject@v8@@@v8@@@Z@4HA 00000001800687cc f   const.obj
 0001:000677da       ?dtor$11@?0??declare_ket_types@@YAXV?$Local@VObject@v8@@@v8@@@Z@4HA 00000001800687da f   const.obj
 0001:000677e8       ?dtor$12@?0??declare_ket_types@@YAXV?$Local@VObject@v8@@@v8@@@Z@4HA 00000001800687e8 f   const.obj
 0001:000677f6       ?dtor$13@?0??declare_ket_types@@YAXV?$Local@VObject@v8@@@v8@@@Z@4HA 00000001800687f6 f   const.obj
 0001:00067804       ?dtor$14@?0??declare_ket_types@@YAXV?$Local@VObject@v8@@@v8@@@Z@4HA 0000000180068804 f   const.obj
 0001:00067812       ?dtor$15@?0??declare_ket_types@@YAXV?$Local@VObject@v8@@@v8@@@Z@4HA 0000000180068812 f   const.obj
 0001:00067820       ?dtor$16@?0??declare_ket_types@@YAXV?$Local@VObject@v8@@@v8@@@Z@4HA 0000000180068820 f   const.obj
 0001:0006782e       ?dtor$17@?0??declare_ket_types@@YAXV?$Local@VObject@v8@@@v8@@@Z@4HA 000000018006882e f   const.obj
 0001:0006783c       ?dtor$18@?0??declare_ket_types@@YAXV?$Local@VObject@v8@@@v8@@@Z@4HA 000000018006883c f   const.obj
 0001:0006784a       ?dtor$19@?0??declare_ket_types@@YAXV?$Local@VObject@v8@@@v8@@@Z@4HA 000000018006884a f   const.obj
 0001:00067858       ?dtor$20@?0??declare_ket_types@@YAXV?$Local@VObject@v8@@@v8@@@Z@4HA 0000000180068858 f   const.obj
 0001:00067866       ?dtor$21@?0??declare_ket_types@@YAXV?$Local@VObject@v8@@@v8@@@Z@4HA 0000000180068866 f   const.obj
 0001:00067874       ?dtor$22@?0??declare_ket_types@@YAXV?$Local@VObject@v8@@@v8@@@Z@4HA 0000000180068874 f   const.obj
 0001:00067882       ?dtor$23@?0??declare_ket_types@@YAXV?$Local@VObject@v8@@@v8@@@Z@4HA 0000000180068882 f   const.obj
 0001:00067890       ?dtor$24@?0??declare_ket_types@@YAXV?$Local@VObject@v8@@@v8@@@Z@4HA 0000000180068890 f   const.obj
 0001:0006789e       ?dtor$25@?0??declare_ket_types@@YAXV?$Local@VObject@v8@@@v8@@@Z@4HA 000000018006889e f   const.obj
 0001:000678ac       ?dtor$26@?0??declare_ket_types@@YAXV?$Local@VObject@v8@@@v8@@@Z@4HA 00000001800688ac f   const.obj
 0001:000678ba       ?dtor$27@?0??declare_ket_types@@YAXV?$Local@VObject@v8@@@v8@@@Z@4HA 00000001800688ba f   const.obj
 0001:000678c8       ?dtor$28@?0??declare_ket_types@@YAXV?$Local@VObject@v8@@@v8@@@Z@4HA 00000001800688c8 f   const.obj
 0001:000678d6       ?dtor$29@?0??declare_ket_types@@YAXV?$Local@VObject@v8@@@v8@@@Z@4HA 00000001800688d6 f   const.obj
 0001:000678e4       ?dtor$30@?0??declare_ket_types@@YAXV?$Local@VObject@v8@@@v8@@@Z@4HA 00000001800688e4 f   const.obj
 0001:000678f2       ?dtor$31@?0??declare_ket_types@@YAXV?$Local@VObject@v8@@@v8@@@Z@4HA 00000001800688f2 f   const.obj
 0001:00067900       ?dtor$32@?0??declare_ket_types@@YAXV?$Local@VObject@v8@@@v8@@@Z@4HA 0000000180068900 f   const.obj
 0001:0006790e       ?dtor$33@?0??declare_ket_types@@YAXV?$Local@VObject@v8@@@v8@@@Z@4HA 000000018006890e f   const.obj
 0001:0006791c       ?dtor$34@?0??declare_ket_types@@YAXV?$Local@VObject@v8@@@v8@@@Z@4HA 000000018006891c f   const.obj
 0001:0006792a       ?dtor$35@?0??declare_ket_types@@YAXV?$Local@VObject@v8@@@v8@@@Z@4HA 000000018006892a f   const.obj
 0001:00067938       ?dtor$36@?0??declare_ket_types@@YAXV?$Local@VObject@v8@@@v8@@@Z@4HA 0000000180068938 f   const.obj
 0001:00067946       ?dtor$37@?0??declare_ket_types@@YAXV?$Local@VObject@v8@@@v8@@@Z@4HA 0000000180068946 f   const.obj
 0001:00067954       ?dtor$38@?0??declare_ket_types@@YAXV?$Local@VObject@v8@@@v8@@@Z@4HA 0000000180068954 f   const.obj
 0001:00067962       ?dtor$39@?0??declare_ket_types@@YAXV?$Local@VObject@v8@@@v8@@@Z@4HA 0000000180068962 f   const.obj
 0001:00067970       ?dtor$40@?0??declare_ket_types@@YAXV?$Local@VObject@v8@@@v8@@@Z@4HA 0000000180068970 f   const.obj
 0001:0006797e       ?dtor$41@?0??declare_ket_types@@YAXV?$Local@VObject@v8@@@v8@@@Z@4HA 000000018006897e f   const.obj
 0001:0006798c       ?dtor$42@?0??declare_ket_types@@YAXV?$Local@VObject@v8@@@v8@@@Z@4HA 000000018006898c f   const.obj
 0001:0006799a       ?dtor$43@?0??declare_ket_types@@YAXV?$Local@VObject@v8@@@v8@@@Z@4HA 000000018006899a f   const.obj
 0001:000679a8       ?dtor$44@?0??declare_ket_types@@YAXV?$Local@VObject@v8@@@v8@@@Z@4HA 00000001800689a8 f   const.obj
 0001:000679b6       ?dtor$45@?0??declare_ket_types@@YAXV?$Local@VObject@v8@@@v8@@@Z@4HA 00000001800689b6 f   const.obj
 0001:000679d0       ?dtor$0@?0??declare_mechanisms@@YAXV?$Local@VObject@v8@@@v8@@@Z@4HA 00000001800689d0 f   const.obj
 0001:000679e0       ?dtor$0@?0??declare_user_types@@YAXV?$Local@VObject@v8@@@v8@@@Z@4HA 00000001800689e0 f   const.obj
 0001:000679e0       ?dtor$0@?0??declare_certificates@@YAXV?$Local@VObject@v8@@@v8@@@Z@4HA 00000001800689e0 f   const.obj
 0001:000679ec       ?dtor$2@?0??declare_user_types@@YAXV?$Local@VObject@v8@@@v8@@@Z@4HA 00000001800689ec f   const.obj
 0001:000679ec       ?dtor$2@?0??declare_certificates@@YAXV?$Local@VObject@v8@@@v8@@@Z@4HA 00000001800689ec f   const.obj
 0001:000679fa       ?dtor$3@?0??declare_certificates@@YAXV?$Local@VObject@v8@@@v8@@@Z@4HA 00000001800689fa f   const.obj
 0001:000679fa       ?dtor$3@?0??declare_user_types@@YAXV?$Local@VObject@v8@@@v8@@@Z@4HA 00000001800689fa f   const.obj
 0001:00067a08       ?dtor$4@?0??declare_user_types@@YAXV?$Local@VObject@v8@@@v8@@@Z@4HA 0000000180068a08 f   const.obj
 0001:00067a08       ?dtor$4@?0??declare_certificates@@YAXV?$Local@VObject@v8@@@v8@@@Z@4HA 0000000180068a08 f   const.obj
 0001:00067a20       ?dtor$0@?0??declare_mgf@@YAXV?$Local@VObject@v8@@@v8@@@Z@4HA 0000000180068a20 f   const.obj
 0001:00067a2c       ?dtor$2@?0??declare_mgf@@YAXV?$Local@VObject@v8@@@v8@@@Z@4HA 0000000180068a2c f   const.obj
 0001:00067a3a       ?dtor$3@?0??declare_mgf@@YAXV?$Local@VObject@v8@@@v8@@@Z@4HA 0000000180068a3a f   const.obj
 0001:00067a48       ?dtor$4@?0??declare_mgf@@YAXV?$Local@VObject@v8@@@v8@@@Z@4HA 0000000180068a48 f   const.obj
 0001:00067a56       ?dtor$5@?0??declare_mgf@@YAXV?$Local@VObject@v8@@@v8@@@Z@4HA 0000000180068a56 f   const.obj
 0001:00067a64       ?dtor$6@?0??declare_mgf@@YAXV?$Local@VObject@v8@@@v8@@@Z@4HA 0000000180068a64 f   const.obj
 0001:00067a80       ?dtor$0@?0??declare_kdf@@YAXV?$Local@VObject@v8@@@v8@@@Z@4HA 0000000180068a80 f   const.obj
 0001:00067a8c       ?dtor$2@?0??declare_kdf@@YAXV?$Local@VObject@v8@@@v8@@@Z@4HA 0000000180068a8c f   const.obj
 0001:00067a9a       ?dtor$3@?0??declare_kdf@@YAXV?$Local@VObject@v8@@@v8@@@Z@4HA 0000000180068a9a f   const.obj
 0001:00067aa8       ?dtor$4@?0??declare_kdf@@YAXV?$Local@VObject@v8@@@v8@@@Z@4HA 0000000180068aa8 f   const.obj
 0001:00067ab6       ?dtor$5@?0??declare_kdf@@YAXV?$Local@VObject@v8@@@v8@@@Z@4HA 0000000180068ab6 f   const.obj
 0001:00067ac4       ?dtor$6@?0??declare_kdf@@YAXV?$Local@VObject@v8@@@v8@@@Z@4HA 0000000180068ac4 f   const.obj
 0001:00067ad2       ?dtor$7@?0??declare_kdf@@YAXV?$Local@VObject@v8@@@v8@@@Z@4HA 0000000180068ad2 f   const.obj
 0001:00067ae0       ?dtor$8@?0??declare_kdf@@YAXV?$Local@VObject@v8@@@v8@@@Z@4HA 0000000180068ae0 f   const.obj
 0001:00067aee       ?dtor$9@?0??declare_kdf@@YAXV?$Local@VObject@v8@@@v8@@@Z@4HA 0000000180068aee f   const.obj
 0001:00067afc       ?dtor$10@?0??declare_kdf@@YAXV?$Local@VObject@v8@@@v8@@@Z@4HA 0000000180068afc f   const.obj
 0001:00067b10       ?dtor$0@?0??declare_params@@YAXV?$Local@VObject@v8@@@v8@@@Z@4HA 0000000180068b10 f   const.obj
 0001:00067b1c       ?dtor$2@?0??declare_params@@YAXV?$Local@VObject@v8@@@v8@@@Z@4HA 0000000180068b1c f   const.obj
 0001:00067b2a       ?dtor$3@?0??declare_params@@YAXV?$Local@VObject@v8@@@v8@@@Z@4HA 0000000180068b2a f   const.obj
 0001:00067b38       ?dtor$4@?0??declare_params@@YAXV?$Local@VObject@v8@@@v8@@@Z@4HA 0000000180068b38 f   const.obj
 0001:00067b46       ?dtor$5@?0??declare_params@@YAXV?$Local@VObject@v8@@@v8@@@Z@4HA 0000000180068b46 f   const.obj
 0001:00067b54       ?dtor$6@?0??declare_params@@YAXV?$Local@VObject@v8@@@v8@@@Z@4HA 0000000180068b54 f   const.obj
 0001:00067b62       ?dtor$7@?0??declare_params@@YAXV?$Local@VObject@v8@@@v8@@@Z@4HA 0000000180068b62 f   const.obj
 0001:00067b70       ?dtor$8@?0??declare_params@@YAXV?$Local@VObject@v8@@@v8@@@Z@4HA 0000000180068b70 f   const.obj
 0001:00067b80       ?dtor$0@?0??ToString@Error@@QEAA?AV?$shared_ptr@V?$basic_string@DU?$char_traits@D@std@@V?$allocator@D@2@@std@@@std@@XZ@4HA 0000000180068b80 f   error.obj
 0001:00067b9d       ?dtor$1@?0??ToString@Error@@QEAA?AV?$shared_ptr@V?$basic_string@DU?$char_traits@D@std@@V?$allocator@D@2@@std@@@std@@XZ@4HA 0000000180068b9d f   error.obj
 0001:00067bc3       ?dtor$2@?0??ToString@Error@@QEAA?AV?$shared_ptr@V?$basic_string@DU?$char_traits@D@std@@V?$allocator@D@2@@std@@@std@@XZ@4HA 0000000180068bc3 f   error.obj
 0001:00067bd0       ?dtor$0@?0??Stack@Error@@IEAA?AV?$shared_ptr@V?$basic_string@DU?$char_traits@D@std@@V?$allocator@D@2@@std@@@std@@XZ@4HA 0000000180068bd0 f   error.obj
 0001:00067bed       ?dtor$1@?0??Stack@Error@@IEAA?AV?$shared_ptr@V?$basic_string@DU?$char_traits@D@std@@V?$allocator@D@2@@std@@@std@@XZ@4HA 0000000180068bed f   error.obj
 0001:00067c13       ?dtor$2@?0??Stack@Error@@IEAA?AV?$shared_ptr@V?$basic_string@DU?$char_traits@D@std@@V?$allocator@D@2@@std@@@std@@XZ@4HA 0000000180068c13 f   error.obj
 0001:00067c1f       ?dtor$3@?0??Stack@Error@@IEAA?AV?$shared_ptr@V?$basic_string@DU?$char_traits@D@std@@V?$allocator@D@2@@std@@@std@@XZ@4HA 0000000180068c1f f   error.obj
 0001:00067c2b       ?dtor$4@?0??Stack@Error@@IEAA?AV?$shared_ptr@V?$basic_string@DU?$char_traits@D@std@@V?$allocator@D@2@@std@@@std@@XZ@4HA 0000000180068c2b f   error.obj
 0001:00067c37       ?dtor$5@?0??Stack@Error@@IEAA?AV?$shared_ptr@V?$basic_string@DU?$char_traits@D@std@@V?$allocator@D@2@@std@@@std@@XZ@4HA 0000000180068c37 f   error.obj
 0001:00067c43       ?dtor$6@?0??Stack@Error@@IEAA?AV?$shared_ptr@V?$basic_string@DU?$char_traits@D@std@@V?$allocator@D@2@@std@@@std@@XZ@4HA 0000000180068c43 f   error.obj
 0001:00067c50       ?dtor$0@?0??Get@Nan@@YA?AV?$MaybeLocal@VValue@v8@@@v8@@V?$Local@VObject@v8@@@3@V?$Local@VValue@v8@@@3@@Z@4HA 0000000180068c50 f   template.obj
 0001:00067c60       ?dtor$0@?0???0Error@@QEAA@PEBDV?$shared_ptr@VError@@@std@@0H@Z@4HA 0000000180068c60 f   template.obj
 0001:00067c6c       ?dtor$1@?0???0Error@@QEAA@PEBDV?$shared_ptr@VError@@@std@@0H@Z@4HA 0000000180068c6c f   template.obj
 0001:00067c78       ?dtor$2@?0???0Error@@QEAA@PEBDV?$shared_ptr@VError@@@std@@0H@Z@4HA 0000000180068c78 f   template.obj
 0001:00067c95       ?dtor$3@?0???0Error@@QEAA@PEBDV?$shared_ptr@VError@@@std@@0H@Z@4HA 0000000180068c95 f   template.obj
 0001:00067ca5       ?dtor$4@?0???0Error@@QEAA@PEBDV?$shared_ptr@VError@@@std@@0H@Z@4HA 0000000180068ca5 f   template.obj
 0001:00067cd0       ?dtor$0@?0??v2c_ATTRIBUTE@@YA?AV?$shared_ptr@UCK_ATTRIBUTE@@@std@@V?$Local@VValue@v8@@@v8@@@Z@4HA 0000000180068cd0 f   template.obj
 0001:00067cdc       ?dtor$1@?0??v2c_ATTRIBUTE@@YA?AV?$shared_ptr@UCK_ATTRIBUTE@@@std@@V?$Local@VValue@v8@@@v8@@@Z@4HA 0000000180068cdc f   template.obj
 0001:00067cf9       ?dtor$14@?0??v2c_ATTRIBUTE@@YA?AV?$shared_ptr@UCK_ATTRIBUTE@@@std@@V?$Local@VValue@v8@@@v8@@@Z@4HA 0000000180068cf9 f   template.obj
 0001:00067d07       ?dtor$16@?0??v2c_ATTRIBUTE@@YA?AV?$shared_ptr@UCK_ATTRIBUTE@@@std@@V?$Local@VValue@v8@@@v8@@@Z@4HA 0000000180068d07 f   template.obj
 0001:00067d15       ?dtor$3@?0??v2c_ATTRIBUTE@@YA?AV?$shared_ptr@UCK_ATTRIBUTE@@@std@@V?$Local@VValue@v8@@@v8@@@Z@4HA 0000000180068d15 f   template.obj
 0001:00067d32       ?dtor$18@?0??v2c_ATTRIBUTE@@YA?AV?$shared_ptr@UCK_ATTRIBUTE@@@std@@V?$Local@VValue@v8@@@v8@@@Z@4HA 0000000180068d32 f   template.obj
 0001:00067d40       ?dtor$5@?0??v2c_ATTRIBUTE@@YA?AV?$shared_ptr@UCK_ATTRIBUTE@@@std@@V?$Local@VValue@v8@@@v8@@@Z@4HA 0000000180068d40 f   template.obj
 0001:00067d60       ?dtor$7@?0??v2c_ATTRIBUTE@@YA?AV?$shared_ptr@UCK_ATTRIBUTE@@@std@@V?$Local@VValue@v8@@@v8@@@Z@4HA 0000000180068d60 f   template.obj
 0001:00067d6c       ?dtor$21@?0??v2c_ATTRIBUTE@@YA?AV?$shared_ptr@UCK_ATTRIBUTE@@@std@@V?$Local@VValue@v8@@@v8@@@Z@4HA 0000000180068d6c f   template.obj
 0001:00067d7a       ?dtor$22@?0??v2c_ATTRIBUTE@@YA?AV?$shared_ptr@UCK_ATTRIBUTE@@@std@@V?$Local@VValue@v8@@@v8@@@Z@4HA 0000000180068d7a f   template.obj
 0001:00067d88       ?dtor$23@?0??v2c_ATTRIBUTE@@YA?AV?$shared_ptr@UCK_ATTRIBUTE@@@std@@V?$Local@VValue@v8@@@v8@@@Z@4HA 0000000180068d88 f   template.obj
 0001:00067d96       ?dtor$8@?0??v2c_ATTRIBUTE@@YA?AV?$shared_ptr@UCK_ATTRIBUTE@@@std@@V?$Local@VValue@v8@@@v8@@@Z@4HA 0000000180068d96 f   template.obj
 0001:00067da2       ?dtor$9@?0??v2c_ATTRIBUTE@@YA?AV?$shared_ptr@UCK_ATTRIBUTE@@@std@@V?$Local@VValue@v8@@@v8@@@Z@4HA 0000000180068da2 f   template.obj
 0001:00067dcb       ?catch$28@?0??v2c_ATTRIBUTE@@YA?AV?$shared_ptr@UCK_ATTRIBUTE@@@std@@V?$Local@VValue@v8@@@v8@@@Z@4HA 0000000180068dcb f   template.obj
 0001:00067dd8       __catch$?v2c_ATTRIBUTE@@YA?AV?$shared_ptr@UCK_ATTRIBUTE@@@std@@V?$Local@VValue@v8@@@v8@@@Z$0 0000000180068dd8 f   template.obj
 0001:00067e07       ?dtor$10@?0??v2c_ATTRIBUTE@@YA?AV?$shared_ptr@UCK_ATTRIBUTE@@@std@@V?$Local@VValue@v8@@@v8@@@Z@4HA 0000000180068e07 f   template.obj
 0001:00067e13       ?catch$29@?0??v2c_ATTRIBUTE@@YA?AV?$shared_ptr@UCK_ATTRIBUTE@@@std@@V?$Local@VValue@v8@@@v8@@@Z@4HA 0000000180068e13 f   template.obj
 0001:00067e20       __catch$?v2c_ATTRIBUTE@@YA?AV?$shared_ptr@UCK_ATTRIBUTE@@@std@@V?$Local@VValue@v8@@@v8@@@Z$1 0000000180068e20 f   template.obj
 0001:00067e82       ?dtor$11@?0??v2c_ATTRIBUTE@@YA?AV?$shared_ptr@UCK_ATTRIBUTE@@@std@@V?$Local@VValue@v8@@@v8@@@Z@4HA 0000000180068e82 f   template.obj
 0001:00067eb0       ?dtor$0@?0??c2v_ATTRIBUTE@@YA?AV?$Local@VObject@v8@@@v8@@PEAUCK_ATTRIBUTE@@@Z@4HA 0000000180068eb0 f   template.obj
 0001:00067ebc       ?dtor$1@?0??c2v_ATTRIBUTE@@YA?AV?$Local@VObject@v8@@@v8@@PEAUCK_ATTRIBUTE@@@Z@4HA 0000000180068ebc f   template.obj
 0001:00067edc       ?dtor$7@?0??c2v_ATTRIBUTE@@YA?AV?$Local@VObject@v8@@@v8@@PEAUCK_ATTRIBUTE@@@Z@4HA 0000000180068edc f   template.obj
 0001:00067eea       ?dtor$8@?0??c2v_ATTRIBUTE@@YA?AV?$Local@VObject@v8@@@v8@@PEAUCK_ATTRIBUTE@@@Z@4HA 0000000180068eea f   template.obj
 0001:00067ef8       ?catch$14@?0??c2v_ATTRIBUTE@@YA?AV?$Local@VObject@v8@@@v8@@PEAUCK_ATTRIBUTE@@@Z@4HA 0000000180068ef8 f   template.obj
 0001:00067f05       __catch$?c2v_ATTRIBUTE@@YA?AV?$Local@VObject@v8@@@v8@@PEAUCK_ATTRIBUTE@@@Z$0 0000000180068f05 f   template.obj
 0001:00067f2e       ?dtor$3@?0??c2v_ATTRIBUTE@@YA?AV?$Local@VObject@v8@@@v8@@PEAUCK_ATTRIBUTE@@@Z@4HA 0000000180068f2e f   template.obj
 0001:00067f3a       ?catch$15@?0??c2v_ATTRIBUTE@@YA?AV?$Local@VObject@v8@@@v8@@PEAUCK_ATTRIBUTE@@@Z@4HA 0000000180068f3a f   template.obj
 0001:00067f47       __catch$?c2v_ATTRIBUTE@@YA?AV?$Local@VObject@v8@@@v8@@PEAUCK_ATTRIBUTE@@@Z$1 0000000180068f47 f   template.obj
 0001:00067fa9       ?dtor$4@?0??c2v_ATTRIBUTE@@YA?AV?$Local@VObject@v8@@@v8@@PEAUCK_ATTRIBUTE@@@Z@4HA 0000000180068fa9 f   template.obj
 0001:00067fd0       ?dtor$0@?0??Push@Attributes@@QEAAXPEAUCK_ATTRIBUTE@@@Z@4HA 0000000180068fd0 f   template.obj
 0001:00067ff0       ?catch$7@?0??Push@Attributes@@QEAAXPEAUCK_ATTRIBUTE@@@Z@4HA 0000000180068ff0 f   template.obj
 0001:00067ffd       __catch$?Push@Attributes@@QEAAXPEAUCK_ATTRIBUTE@@@Z$0 0000000180068ffd f   template.obj
 0001:00068023       ?dtor$2@?0??Push@Attributes@@QEAAXPEAUCK_ATTRIBUTE@@@Z@4HA 0000000180069023 f   template.obj
 0001:0006802f       ?catch$6@?0??Push@Attributes@@QEAAXPEAUCK_ATTRIBUTE@@@Z@4HA 000000018006902f f   template.obj
 0001:0006803c       __catch$?Push@Attributes@@QEAAXPEAUCK_ATTRIBUTE@@@Z$1 000000018006903c f   template.obj
 0001:00068098       ?dtor$3@?0??Push@Attributes@@QEAAXPEAUCK_ATTRIBUTE@@@Z@4HA 0000000180069098 f   template.obj
 0001:000680c0       ?dtor$0@?0??FromV8@Attributes@@UEAAXV?$Local@VValue@v8@@@v8@@@Z@4HA 00000001800690c0 f   template.obj
 0001:000680cc       ?dtor$1@?0??FromV8@Attributes@@UEAAXV?$Local@VValue@v8@@@v8@@@Z@4HA 00000001800690cc f   template.obj
 0001:000680ec       ?dtor$8@?0??FromV8@Attributes@@UEAAXV?$Local@VValue@v8@@@v8@@@Z@4HA 00000001800690ec f   template.obj
 0001:000680fa       ?dtor$10@?0??FromV8@Attributes@@UEAAXV?$Local@VValue@v8@@@v8@@@Z@4HA 00000001800690fa f   template.obj
 0001:00068108       ?dtor$12@?0??FromV8@Attributes@@UEAAXV?$Local@VValue@v8@@@v8@@@Z@4HA 0000000180069108 f   template.obj
 0001:00068116       ?dtor$13@?0??FromV8@Attributes@@UEAAXV?$Local@VValue@v8@@@v8@@@Z@4HA 0000000180069116 f   template.obj
 0001:00068124       ?dtor$3@?0??FromV8@Attributes@@UEAAXV?$Local@VValue@v8@@@v8@@@Z@4HA 0000000180069124 f   template.obj
 0001:00068130       ?catch$18@?0??FromV8@Attributes@@UEAAXV?$Local@VValue@v8@@@v8@@@Z@4HA 0000000180069130 f   template.obj
 0001:0006813d       __catch$?FromV8@Attributes@@UEAAXV?$Local@VValue@v8@@@v8@@@Z$0 000000018006913d f   template.obj
 0001:0006816c       ?dtor$4@?0??FromV8@Attributes@@UEAAXV?$Local@VValue@v8@@@v8@@@Z@4HA 000000018006916c f   template.obj
 0001:00068178       ?catch$19@?0??FromV8@Attributes@@UEAAXV?$Local@VValue@v8@@@v8@@@Z@4HA 0000000180069178 f   template.obj
 0001:00068185       __catch$?FromV8@Attributes@@UEAAXV?$Local@VValue@v8@@@v8@@@Z$1 0000000180069185 f   template.obj
 0001:000681ea       ?dtor$5@?0??FromV8@Attributes@@UEAAXV?$Local@VValue@v8@@@v8@@@Z@4HA 00000001800691ea f   template.obj
 0001:00068210       ?dtor$0@?0??ToV8@Attributes@@UEAA?AV?$Local@VObject@v8@@@v8@@XZ@4HA 0000000180069210 f   template.obj
 0001:0006821c       ?dtor$5@?0??ToV8@Attributes@@UEAA?AV?$Local@VObject@v8@@@v8@@XZ@4HA 000000018006921c f   template.obj
 0001:0006822a       ?catch$11@?0??ToV8@Attributes@@UEAA?AV?$Local@VObject@v8@@@v8@@XZ@4HA 000000018006922a f   template.obj
 0001:00068237       __catch$?ToV8@Attributes@@UEAA?AV?$Local@VObject@v8@@@v8@@XZ$0 0000000180069237 f   template.obj
 0001:00068260       ?dtor$1@?0??ToV8@Attributes@@UEAA?AV?$Local@VObject@v8@@@v8@@XZ@4HA 0000000180069260 f   template.obj
 0001:0006826c       ?catch$12@?0??ToV8@Attributes@@UEAA?AV?$Local@VObject@v8@@@v8@@XZ@4HA 000000018006926c f   template.obj
 0001:00068279       __catch$?ToV8@Attributes@@UEAA?AV?$Local@VObject@v8@@@v8@@XZ$1 0000000180069279 f   template.obj
 0001:000682d5       ?dtor$2@?0??ToV8@Attributes@@UEAA?AV?$Local@VObject@v8@@@v8@@XZ@4HA 00000001800692d5 f   template.obj
 0001:00068300       ?dtor$0@?0??FromV8@?$V8Converter@UTEMPLATE@@@@UEAAXV?$Local@VValue@v8@@@v8@@@Z@4HA 0000000180069300 f   template.obj
 0001:00068300       ?dtor$0@?0??FromV8@?$V8Converter@UCK_MECHANISM@@@@UEAAXV?$Local@VValue@v8@@@v8@@@Z@4HA 0000000180069300 f   mech.obj
 0001:00068300       ?dtor$0@?0??ToV8@?$V8Converter@UCK_MECHANISM@@@@UEAA?AV?$Local@VObject@v8@@@v8@@XZ@4HA 0000000180069300 f   mech.obj
 0001:00068300       ?dtor$0@?0??ToV8@?$V8Converter@UTEMPLATE@@@@UEAA?AV?$Local@VObject@v8@@@v8@@XZ@4HA 0000000180069300 f   template.obj
 0001:00068300       ?dtor$0@?0??FromV8@ParamBuffer@@UEAAXV?$Local@VValue@v8@@@v8@@@Z@4HA 0000000180069300 f   param.obj
 0001:00068320       ?dtor$0@?0??FromV8@Mechanism@@UEAAXV?$Local@VValue@v8@@@v8@@@Z@4HA 0000000180069320 f   mech.obj
 0001:0006832c       ?dtor$1@?0??FromV8@Mechanism@@UEAAXV?$Local@VValue@v8@@@v8@@@Z@4HA 000000018006932c f   mech.obj
 0001:0006834c       ?dtor$29@?0??FromV8@Mechanism@@UEAAXV?$Local@VValue@v8@@@v8@@@Z@4HA 000000018006934c f   mech.obj
 0001:0006835a       ?dtor$31@?0??FromV8@Mechanism@@UEAAXV?$Local@VValue@v8@@@v8@@@Z@4HA 000000018006935a f   mech.obj
 0001:00068368       ?dtor$3@?0??FromV8@Mechanism@@UEAAXV?$Local@VValue@v8@@@v8@@@Z@4HA 0000000180069368 f   mech.obj
 0001:00068388       ?dtor$33@?0??FromV8@Mechanism@@UEAAXV?$Local@VValue@v8@@@v8@@@Z@4HA 0000000180069388 f   mech.obj
 0001:00068396       ?dtor$5@?0??FromV8@Mechanism@@UEAAXV?$Local@VValue@v8@@@v8@@@Z@4HA 0000000180069396 f   mech.obj
 0001:000683b6       ?dtor$35@?0??FromV8@Mechanism@@UEAAXV?$Local@VValue@v8@@@v8@@@Z@4HA 00000001800693b6 f   mech.obj
 0001:000683c4       ?dtor$36@?0??FromV8@Mechanism@@UEAAXV?$Local@VValue@v8@@@v8@@@Z@4HA 00000001800693c4 f   mech.obj
 0001:000683d2       ?dtor$38@?0??FromV8@Mechanism@@UEAAXV?$Local@VValue@v8@@@v8@@@Z@4HA 00000001800693d2 f   mech.obj
 0001:000683e0       ?dtor$21@?0??FromV8@Mechanism@@UEAAXV?$Local@VValue@v8@@@v8@@@Z@4HA 00000001800693e0 f   mech.obj
 0001:00068400       ?catch$57@?0??FromV8@Mechanism@@UEAAXV?$Local@VValue@v8@@@v8@@@Z@4HA 0000000180069400 f   mech.obj
 0001:0006840d       __catch$?FromV8@Mechanism@@UEAAXV?$Local@VValue@v8@@@v8@@@Z$0 000000018006940d f   mech.obj
 0001:0006843c       ?dtor$25@?0??FromV8@Mechanism@@UEAAXV?$Local@VValue@v8@@@v8@@@Z@4HA 000000018006943c f   mech.obj
 0001:00068448       ?catch$58@?0??FromV8@Mechanism@@UEAAXV?$Local@VValue@v8@@@v8@@@Z@4HA 0000000180069448 f   mech.obj
 0001:00068455       __catch$?FromV8@Mechanism@@UEAAXV?$Local@VValue@v8@@@v8@@@Z$1 0000000180069455 f   mech.obj
 0001:000684ba       ?dtor$26@?0??FromV8@Mechanism@@UEAAXV?$Local@VValue@v8@@@v8@@@Z@4HA 00000001800694ba f   mech.obj
 0001:000684e0       ?dtor$0@?0??ToV8@Mechanism@@UEAA?AV?$Local@VObject@v8@@@v8@@XZ@4HA 00000001800694e0 f   mech.obj
 0001:000684ec       ?dtor$5@?0??ToV8@Mechanism@@UEAA?AV?$Local@VObject@v8@@@v8@@XZ@4HA 00000001800694ec f   mech.obj
 0001:000684fa       ?dtor$6@?0??ToV8@Mechanism@@UEAA?AV?$Local@VObject@v8@@@v8@@XZ@4HA 00000001800694fa f   mech.obj
 0001:00068508       ?dtor$7@?0??ToV8@Mechanism@@UEAA?AV?$Local@VObject@v8@@@v8@@XZ@4HA 0000000180069508 f   mech.obj
 0001:00068516       ?catch$13@?0??ToV8@Mechanism@@UEAA?AV?$Local@VObject@v8@@@v8@@XZ@4HA 0000000180069516 f   mech.obj
 0001:00068523       __catch$?ToV8@Mechanism@@UEAA?AV?$Local@VObject@v8@@@v8@@XZ$0 0000000180069523 f   mech.obj
 0001:0006854c       ?dtor$1@?0??ToV8@Mechanism@@UEAA?AV?$Local@VObject@v8@@@v8@@XZ@4HA 000000018006954c f   mech.obj
 0001:00068558       ?catch$14@?0??ToV8@Mechanism@@UEAA?AV?$Local@VObject@v8@@@v8@@XZ@4HA 0000000180069558 f   mech.obj
 0001:00068565       __catch$?ToV8@Mechanism@@UEAA?AV?$Local@VObject@v8@@@v8@@XZ$1 0000000180069565 f   mech.obj
 0001:000685c7       ?dtor$2@?0??ToV8@Mechanism@@UEAA?AV?$Local@VObject@v8@@@v8@@XZ@4HA 00000001800695c7 f   mech.obj
 0001:000685f0       ?dtor$0@?0??check_param_number@@YA_NV?$Local@VObject@v8@@@v8@@PEBD@Z@4HA 00000001800695f0 f   param.obj
 0001:000685f0       ?dtor$0@?0??check_param_empty@@YA_NV?$Local@VObject@v8@@@v8@@PEBD@Z@4HA 00000001800695f0 f   param.obj
 0001:000685f0       ?dtor$0@?0??check_param_buffer@@YA_NV?$Local@VObject@v8@@@v8@@PEBD@Z@4HA 00000001800695f0 f   param.obj
 0001:000685fc       ?dtor$2@?0??check_param_number@@YA_NV?$Local@VObject@v8@@@v8@@PEBD@Z@4HA 00000001800695fc f   param.obj
 0001:000685fc       ?dtor$2@?0??check_param_buffer@@YA_NV?$Local@VObject@v8@@@v8@@PEBD@Z@4HA 00000001800695fc f   param.obj
 0001:000685fc       ?dtor$2@?0??check_param_empty@@YA_NV?$Local@VObject@v8@@@v8@@PEBD@Z@4HA 00000001800695fc f   param.obj
 0001:00068610       ?dtor$0@?0??FromV8@ParamAesCBC@@UEAAXV?$Local@VValue@v8@@@v8@@@Z@4HA 0000000180069610 f   param_aes.obj
 0001:0006861c       ?dtor$1@?0??FromV8@ParamAesCBC@@UEAAXV?$Local@VValue@v8@@@v8@@@Z@4HA 000000018006961c f   param_aes.obj
 0001:0006863c       ?dtor$11@?0??FromV8@ParamAesCBC@@UEAAXV?$Local@VValue@v8@@@v8@@@Z@4HA 000000018006963c f   param_aes.obj
 0001:0006864a       ?dtor$3@?0??FromV8@ParamAesCBC@@UEAAXV?$Local@VValue@v8@@@v8@@@Z@4HA 000000018006964a f   param_aes.obj
 0001:0006866a       ?dtor$5@?0??FromV8@ParamAesCBC@@UEAAXV?$Local@VValue@v8@@@v8@@@Z@4HA 000000018006966a f   param_aes.obj
 0001:0006868a       ?dtor$13@?0??FromV8@ParamAesCBC@@UEAAXV?$Local@VValue@v8@@@v8@@@Z@4HA 000000018006968a f   param_aes.obj
 0001:00068698       ?dtor$15@?0??FromV8@ParamAesCBC@@UEAAXV?$Local@VValue@v8@@@v8@@@Z@4HA 0000000180069698 f   param_aes.obj
 0001:000686a6       ?dtor$17@?0??FromV8@ParamAesCBC@@UEAAXV?$Local@VValue@v8@@@v8@@@Z@4HA 00000001800696a6 f   param_aes.obj
 0001:000686b4       ?dtor$19@?0??FromV8@ParamAesCBC@@UEAAXV?$Local@VValue@v8@@@v8@@@Z@4HA 00000001800696b4 f   param_aes.obj
 0001:000686c2       ?dtor$21@?0??FromV8@ParamAesCBC@@UEAAXV?$Local@VValue@v8@@@v8@@@Z@4HA 00000001800696c2 f   param_aes.obj
 0001:000686d0       ?catch$25@?0??FromV8@ParamAesCBC@@UEAAXV?$Local@VValue@v8@@@v8@@@Z@4HA 00000001800696d0 f   param_aes.obj
 0001:000686dd       __catch$?FromV8@ParamAesCBC@@UEAAXV?$Local@VValue@v8@@@v8@@@Z$0 00000001800696dd f   param_aes.obj
 0001:0006870c       ?dtor$7@?0??FromV8@ParamAesCBC@@UEAAXV?$Local@VValue@v8@@@v8@@@Z@4HA 000000018006970c f   param_aes.obj
 0001:00068718       ?catch$26@?0??FromV8@ParamAesCBC@@UEAAXV?$Local@VValue@v8@@@v8@@@Z@4HA 0000000180069718 f   param_aes.obj
 0001:00068725       __catch$?FromV8@ParamAesCBC@@UEAAXV?$Local@VValue@v8@@@v8@@@Z$1 0000000180069725 f   param_aes.obj
 0001:00068787       ?dtor$8@?0??FromV8@ParamAesCBC@@UEAAXV?$Local@VValue@v8@@@v8@@@Z@4HA 0000000180069787 f   param_aes.obj
 0001:000687b0       ?dtor$0@?0??FromV8@ParamAesCCM@@UEAAXV?$Local@VValue@v8@@@v8@@@Z@4HA 00000001800697b0 f   param_aes.obj
 0001:000687bc       ?dtor$1@?0??FromV8@ParamAesCCM@@UEAAXV?$Local@VValue@v8@@@v8@@@Z@4HA 00000001800697bc f   param_aes.obj
 0001:000687dc       ?dtor$15@?0??FromV8@ParamAesCCM@@UEAAXV?$Local@VValue@v8@@@v8@@@Z@4HA 00000001800697dc f   param_aes.obj
 0001:000687ea       ?dtor$3@?0??FromV8@ParamAesCCM@@UEAAXV?$Local@VValue@v8@@@v8@@@Z@4HA 00000001800697ea f   param_aes.obj
 0001:0006880a       ?dtor$5@?0??FromV8@ParamAesCCM@@UEAAXV?$Local@VValue@v8@@@v8@@@Z@4HA 000000018006980a f   param_aes.obj
 0001:0006882a       ?dtor$7@?0??FromV8@ParamAesCCM@@UEAAXV?$Local@VValue@v8@@@v8@@@Z@4HA 000000018006982a f   param_aes.obj
 0001:0006884a       ?dtor$9@?0??FromV8@ParamAesCCM@@UEAAXV?$Local@VValue@v8@@@v8@@@Z@4HA 000000018006984a f   param_aes.obj
 0001:0006886a       ?dtor$17@?0??FromV8@ParamAesCCM@@UEAAXV?$Local@VValue@v8@@@v8@@@Z@4HA 000000018006986a f   param_aes.obj
 0001:00068878       ?dtor$18@?0??FromV8@ParamAesCCM@@UEAAXV?$Local@VValue@v8@@@v8@@@Z@4HA 0000000180069878 f   param_aes.obj
 0001:00068886       ?dtor$19@?0??FromV8@ParamAesCCM@@UEAAXV?$Local@VValue@v8@@@v8@@@Z@4HA 0000000180069886 f   param_aes.obj
 0001:00068894       ?dtor$21@?0??FromV8@ParamAesCCM@@UEAAXV?$Local@VValue@v8@@@v8@@@Z@4HA 0000000180069894 f   param_aes.obj
 0001:000688a2       ?dtor$23@?0??FromV8@ParamAesCCM@@UEAAXV?$Local@VValue@v8@@@v8@@@Z@4HA 00000001800698a2 f   param_aes.obj
 0001:000688b0       ?dtor$25@?0??FromV8@ParamAesCCM@@UEAAXV?$Local@VValue@v8@@@v8@@@Z@4HA 00000001800698b0 f   param_aes.obj
 0001:000688be       ?catch$29@?0??FromV8@ParamAesCCM@@UEAAXV?$Local@VValue@v8@@@v8@@@Z@4HA 00000001800698be f   param_aes.obj
 0001:000688cb       __catch$?FromV8@ParamAesCCM@@UEAAXV?$Local@VValue@v8@@@v8@@@Z$0 00000001800698cb f   param_aes.obj
 0001:000688fa       ?dtor$11@?0??FromV8@ParamAesCCM@@UEAAXV?$Local@VValue@v8@@@v8@@@Z@4HA 00000001800698fa f   param_aes.obj
 0001:00068906       ?catch$30@?0??FromV8@ParamAesCCM@@UEAAXV?$Local@VValue@v8@@@v8@@@Z@4HA 0000000180069906 f   param_aes.obj
 0001:00068913       __catch$?FromV8@ParamAesCCM@@UEAAXV?$Local@VValue@v8@@@v8@@@Z$1 0000000180069913 f   param_aes.obj
 0001:00068975       ?dtor$12@?0??FromV8@ParamAesCCM@@UEAAXV?$Local@VValue@v8@@@v8@@@Z@4HA 0000000180069975 f   param_aes.obj
 0001:000689a0       ?dtor$0@?0??FromV8@ParamAesGCM@@UEAAXV?$Local@VValue@v8@@@v8@@@Z@4HA 00000001800699a0 f   param_aes.obj
 0001:000689ac       ?dtor$1@?0??FromV8@ParamAesGCM@@UEAAXV?$Local@VValue@v8@@@v8@@@Z@4HA 00000001800699ac f   param_aes.obj
 0001:000689cc       ?dtor$15@?0??FromV8@ParamAesGCM@@UEAAXV?$Local@VValue@v8@@@v8@@@Z@4HA 00000001800699cc f   param_aes.obj
 0001:000689da       ?dtor$3@?0??FromV8@ParamAesGCM@@UEAAXV?$Local@VValue@v8@@@v8@@@Z@4HA 00000001800699da f   param_aes.obj
 0001:000689fa       ?dtor$5@?0??FromV8@ParamAesGCM@@UEAAXV?$Local@VValue@v8@@@v8@@@Z@4HA 00000001800699fa f   param_aes.obj
 0001:00068a1a       ?dtor$7@?0??FromV8@ParamAesGCM@@UEAAXV?$Local@VValue@v8@@@v8@@@Z@4HA 0000000180069a1a f   param_aes.obj
 0001:00068a3a       ?dtor$9@?0??FromV8@ParamAesGCM@@UEAAXV?$Local@VValue@v8@@@v8@@@Z@4HA 0000000180069a3a f   param_aes.obj
 0001:00068a5a       ?dtor$17@?0??FromV8@ParamAesGCM@@UEAAXV?$Local@VValue@v8@@@v8@@@Z@4HA 0000000180069a5a f   param_aes.obj
 0001:00068a68       ?dtor$18@?0??FromV8@ParamAesGCM@@UEAAXV?$Local@VValue@v8@@@v8@@@Z@4HA 0000000180069a68 f   param_aes.obj
 0001:00068a76       ?dtor$20@?0??FromV8@ParamAesGCM@@UEAAXV?$Local@VValue@v8@@@v8@@@Z@4HA 0000000180069a76 f   param_aes.obj
 0001:00068a84       ?dtor$22@?0??FromV8@ParamAesGCM@@UEAAXV?$Local@VValue@v8@@@v8@@@Z@4HA 0000000180069a84 f   param_aes.obj
 0001:00068a92       ?dtor$24@?0??FromV8@ParamAesGCM@@UEAAXV?$Local@VValue@v8@@@v8@@@Z@4HA 0000000180069a92 f   param_aes.obj
 0001:00068aa0       ?catch$28@?0??FromV8@ParamAesGCM@@UEAAXV?$Local@VValue@v8@@@v8@@@Z@4HA 0000000180069aa0 f   param_aes.obj
 0001:00068aad       __catch$?FromV8@ParamAesGCM@@UEAAXV?$Local@VValue@v8@@@v8@@@Z$0 0000000180069aad f   param_aes.obj
 0001:00068adc       ?dtor$11@?0??FromV8@ParamAesGCM@@UEAAXV?$Local@VValue@v8@@@v8@@@Z@4HA 0000000180069adc f   param_aes.obj
 0001:00068ae8       ?catch$29@?0??FromV8@ParamAesGCM@@UEAAXV?$Local@VValue@v8@@@v8@@@Z@4HA 0000000180069ae8 f   param_aes.obj
 0001:00068af5       __catch$?FromV8@ParamAesGCM@@UEAAXV?$Local@VValue@v8@@@v8@@@Z$1 0000000180069af5 f   param_aes.obj
 0001:00068b57       ?dtor$12@?0??FromV8@ParamAesGCM@@UEAAXV?$Local@VValue@v8@@@v8@@@Z@4HA 0000000180069b57 f   param_aes.obj
 0001:00068b80       ?dtor$0@?0??FromV8@ParamAesGCMv240@@UEAAXV?$Local@VValue@v8@@@v8@@@Z@4HA 0000000180069b80 f   param_aes.obj
 0001:00068b8c       ?dtor$1@?0??FromV8@ParamAesGCMv240@@UEAAXV?$Local@VValue@v8@@@v8@@@Z@4HA 0000000180069b8c f   param_aes.obj
 0001:00068bac       ?dtor$15@?0??FromV8@ParamAesGCMv240@@UEAAXV?$Local@VValue@v8@@@v8@@@Z@4HA 0000000180069bac f   param_aes.obj
 0001:00068bba       ?dtor$3@?0??FromV8@ParamAesGCMv240@@UEAAXV?$Local@VValue@v8@@@v8@@@Z@4HA 0000000180069bba f   param_aes.obj
 0001:00068bda       ?dtor$5@?0??FromV8@ParamAesGCMv240@@UEAAXV?$Local@VValue@v8@@@v8@@@Z@4HA 0000000180069bda f   param_aes.obj
 0001:00068bfa       ?dtor$7@?0??FromV8@ParamAesGCMv240@@UEAAXV?$Local@VValue@v8@@@v8@@@Z@4HA 0000000180069bfa f   param_aes.obj
 0001:00068c1a       ?dtor$9@?0??FromV8@ParamAesGCMv240@@UEAAXV?$Local@VValue@v8@@@v8@@@Z@4HA 0000000180069c1a f   param_aes.obj
 0001:00068c3a       ?dtor$17@?0??FromV8@ParamAesGCMv240@@UEAAXV?$Local@VValue@v8@@@v8@@@Z@4HA 0000000180069c3a f   param_aes.obj
 0001:00068c48       ?dtor$18@?0??FromV8@ParamAesGCMv240@@UEAAXV?$Local@VValue@v8@@@v8@@@Z@4HA 0000000180069c48 f   param_aes.obj
 0001:00068c56       ?dtor$19@?0??FromV8@ParamAesGCMv240@@UEAAXV?$Local@VValue@v8@@@v8@@@Z@4HA 0000000180069c56 f   param_aes.obj
 0001:00068c64       ?dtor$21@?0??FromV8@ParamAesGCMv240@@UEAAXV?$Local@VValue@v8@@@v8@@@Z@4HA 0000000180069c64 f   param_aes.obj
 0001:00068c72       ?dtor$23@?0??FromV8@ParamAesGCMv240@@UEAAXV?$Local@VValue@v8@@@v8@@@Z@4HA 0000000180069c72 f   param_aes.obj
 0001:00068c80       ?dtor$25@?0??FromV8@ParamAesGCMv240@@UEAAXV?$Local@VValue@v8@@@v8@@@Z@4HA 0000000180069c80 f   param_aes.obj
 0001:00068c8e       ?catch$29@?0??FromV8@ParamAesGCMv240@@UEAAXV?$Local@VValue@v8@@@v8@@@Z@4HA 0000000180069c8e f   param_aes.obj
 0001:00068c9b       __catch$?FromV8@ParamAesGCMv240@@UEAAXV?$Local@VValue@v8@@@v8@@@Z$0 0000000180069c9b f   param_aes.obj
 0001:00068cca       ?dtor$11@?0??FromV8@ParamAesGCMv240@@UEAAXV?$Local@VValue@v8@@@v8@@@Z@4HA 0000000180069cca f   param_aes.obj
 0001:00068cd6       ?catch$30@?0??FromV8@ParamAesGCMv240@@UEAAXV?$Local@VValue@v8@@@v8@@@Z@4HA 0000000180069cd6 f   param_aes.obj
 0001:00068ce3       __catch$?FromV8@ParamAesGCMv240@@UEAAXV?$Local@VValue@v8@@@v8@@@Z$1 0000000180069ce3 f   param_aes.obj
 0001:00068d45       ?dtor$12@?0??FromV8@ParamAesGCMv240@@UEAAXV?$Local@VValue@v8@@@v8@@@Z@4HA 0000000180069d45 f   param_aes.obj
 0001:00068d70       ?dtor$0@?0??FromV8@ParamRsaOAEP@@UEAAXV?$Local@VValue@v8@@@v8@@@Z@4HA 0000000180069d70 f   param_rsa.obj
 0001:00068d7c       ?dtor$1@?0??FromV8@ParamRsaOAEP@@UEAAXV?$Local@VValue@v8@@@v8@@@Z@4HA 0000000180069d7c f   param_rsa.obj
 0001:00068d9c       ?dtor$15@?0??FromV8@ParamRsaOAEP@@UEAAXV?$Local@VValue@v8@@@v8@@@Z@4HA 0000000180069d9c f   param_rsa.obj
 0001:00068daa       ?dtor$3@?0??FromV8@ParamRsaOAEP@@UEAAXV?$Local@VValue@v8@@@v8@@@Z@4HA 0000000180069daa f   param_rsa.obj
 0001:00068dca       ?dtor$5@?0??FromV8@ParamRsaOAEP@@UEAAXV?$Local@VValue@v8@@@v8@@@Z@4HA 0000000180069dca f   param_rsa.obj
 0001:00068dea       ?dtor$7@?0??FromV8@ParamRsaOAEP@@UEAAXV?$Local@VValue@v8@@@v8@@@Z@4HA 0000000180069dea f   param_rsa.obj
 0001:00068e0a       ?dtor$9@?0??FromV8@ParamRsaOAEP@@UEAAXV?$Local@VValue@v8@@@v8@@@Z@4HA 0000000180069e0a f   param_rsa.obj
 0001:00068e2a       ?dtor$17@?0??FromV8@ParamRsaOAEP@@UEAAXV?$Local@VValue@v8@@@v8@@@Z@4HA 0000000180069e2a f   param_rsa.obj
 0001:00068e38       ?dtor$18@?0??FromV8@ParamRsaOAEP@@UEAAXV?$Local@VValue@v8@@@v8@@@Z@4HA 0000000180069e38 f   param_rsa.obj
 0001:00068e46       ?dtor$19@?0??FromV8@ParamRsaOAEP@@UEAAXV?$Local@VValue@v8@@@v8@@@Z@4HA 0000000180069e46 f   param_rsa.obj
 0001:00068e54       ?dtor$20@?0??FromV8@ParamRsaOAEP@@UEAAXV?$Local@VValue@v8@@@v8@@@Z@4HA 0000000180069e54 f   param_rsa.obj
 0001:00068e62       ?dtor$22@?0??FromV8@ParamRsaOAEP@@UEAAXV?$Local@VValue@v8@@@v8@@@Z@4HA 0000000180069e62 f   param_rsa.obj
 0001:00068e70       ?catch$26@?0??FromV8@ParamRsaOAEP@@UEAAXV?$Local@VValue@v8@@@v8@@@Z@4HA 0000000180069e70 f   param_rsa.obj
 0001:00068e7d       __catch$?FromV8@ParamRsaOAEP@@UEAAXV?$Local@VValue@v8@@@v8@@@Z$0 0000000180069e7d f   param_rsa.obj
 0001:00068eac       ?dtor$11@?0??FromV8@ParamRsaOAEP@@UEAAXV?$Local@VValue@v8@@@v8@@@Z@4HA 0000000180069eac f   param_rsa.obj
 0001:00068eb8       ?catch$27@?0??FromV8@ParamRsaOAEP@@UEAAXV?$Local@VValue@v8@@@v8@@@Z@4HA 0000000180069eb8 f   param_rsa.obj
 0001:00068ec5       __catch$?FromV8@ParamRsaOAEP@@UEAAXV?$Local@VValue@v8@@@v8@@@Z$1 0000000180069ec5 f   param_rsa.obj
 0001:00068f27       ?dtor$12@?0??FromV8@ParamRsaOAEP@@UEAAXV?$Local@VValue@v8@@@v8@@@Z@4HA 0000000180069f27 f   param_rsa.obj
 0001:00068f50       ?dtor$0@?0??FromV8@ParamRsaPSS@@UEAAXV?$Local@VValue@v8@@@v8@@@Z@4HA 0000000180069f50 f   param_rsa.obj
 0001:00068f5c       ?dtor$1@?0??FromV8@ParamRsaPSS@@UEAAXV?$Local@VValue@v8@@@v8@@@Z@4HA 0000000180069f5c f   param_rsa.obj
 0001:00068f7c       ?dtor$13@?0??FromV8@ParamRsaPSS@@UEAAXV?$Local@VValue@v8@@@v8@@@Z@4HA 0000000180069f7c f   param_rsa.obj
 0001:00068f8a       ?dtor$3@?0??FromV8@ParamRsaPSS@@UEAAXV?$Local@VValue@v8@@@v8@@@Z@4HA 0000000180069f8a f   param_rsa.obj
 0001:00068faa       ?dtor$5@?0??FromV8@ParamRsaPSS@@UEAAXV?$Local@VValue@v8@@@v8@@@Z@4HA 0000000180069faa f   param_rsa.obj
 0001:00068fca       ?dtor$7@?0??FromV8@ParamRsaPSS@@UEAAXV?$Local@VValue@v8@@@v8@@@Z@4HA 0000000180069fca f   param_rsa.obj
 0001:00068fea       ?dtor$15@?0??FromV8@ParamRsaPSS@@UEAAXV?$Local@VValue@v8@@@v8@@@Z@4HA 0000000180069fea f   param_rsa.obj
 0001:00068ff8       ?dtor$16@?0??FromV8@ParamRsaPSS@@UEAAXV?$Local@VValue@v8@@@v8@@@Z@4HA 0000000180069ff8 f   param_rsa.obj
 0001:00069006       ?dtor$17@?0??FromV8@ParamRsaPSS@@UEAAXV?$Local@VValue@v8@@@v8@@@Z@4HA 000000018006a006 f   param_rsa.obj
 0001:00069014       ?catch$20@?0??FromV8@ParamRsaPSS@@UEAAXV?$Local@VValue@v8@@@v8@@@Z@4HA 000000018006a014 f   param_rsa.obj
 0001:00069021       __catch$?FromV8@ParamRsaPSS@@UEAAXV?$Local@VValue@v8@@@v8@@@Z$0 000000018006a021 f   param_rsa.obj
 0001:00069050       ?dtor$9@?0??FromV8@ParamRsaPSS@@UEAAXV?$Local@VValue@v8@@@v8@@@Z@4HA 000000018006a050 f   param_rsa.obj
 0001:0006905c       ?catch$21@?0??FromV8@ParamRsaPSS@@UEAAXV?$Local@VValue@v8@@@v8@@@Z@4HA 000000018006a05c f   param_rsa.obj
 0001:00069069       __catch$?FromV8@ParamRsaPSS@@UEAAXV?$Local@VValue@v8@@@v8@@@Z$1 000000018006a069 f   param_rsa.obj
 0001:000690cb       ?dtor$10@?0??FromV8@ParamRsaPSS@@UEAAXV?$Local@VValue@v8@@@v8@@@Z@4HA 000000018006a0cb f   param_rsa.obj
 0001:000690f0       ?dtor$0@?0??FromV8@ParamEcdh1@@UEAAXV?$Local@VValue@v8@@@v8@@@Z@4HA 000000018006a0f0 f   param_ecdh.obj
 0001:000690fc       ?dtor$1@?0??FromV8@ParamEcdh1@@UEAAXV?$Local@VValue@v8@@@v8@@@Z@4HA 000000018006a0fc f   param_ecdh.obj
 0001:0006911c       ?dtor$13@?0??FromV8@ParamEcdh1@@UEAAXV?$Local@VValue@v8@@@v8@@@Z@4HA 000000018006a11c f   param_ecdh.obj
 0001:0006912a       ?dtor$3@?0??FromV8@ParamEcdh1@@UEAAXV?$Local@VValue@v8@@@v8@@@Z@4HA 000000018006a12a f   param_ecdh.obj
 0001:0006914a       ?dtor$5@?0??FromV8@ParamEcdh1@@UEAAXV?$Local@VValue@v8@@@v8@@@Z@4HA 000000018006a14a f   param_ecdh.obj
 0001:0006916a       ?dtor$7@?0??FromV8@ParamEcdh1@@UEAAXV?$Local@VValue@v8@@@v8@@@Z@4HA 000000018006a16a f   param_ecdh.obj
 0001:0006918a       ?dtor$15@?0??FromV8@ParamEcdh1@@UEAAXV?$Local@VValue@v8@@@v8@@@Z@4HA 000000018006a18a f   param_ecdh.obj
 0001:00069198       ?dtor$16@?0??FromV8@ParamEcdh1@@UEAAXV?$Local@VValue@v8@@@v8@@@Z@4HA 000000018006a198 f   param_ecdh.obj
 0001:000691a6       ?dtor$18@?0??FromV8@ParamEcdh1@@UEAAXV?$Local@VValue@v8@@@v8@@@Z@4HA 000000018006a1a6 f   param_ecdh.obj
 0001:000691b4       ?dtor$20@?0??FromV8@ParamEcdh1@@UEAAXV?$Local@VValue@v8@@@v8@@@Z@4HA 000000018006a1b4 f   param_ecdh.obj
 0001:000691c2       ?dtor$22@?0??FromV8@ParamEcdh1@@UEAAXV?$Local@VValue@v8@@@v8@@@Z@4HA 000000018006a1c2 f   param_ecdh.obj
 0001:000691d0       ?catch$26@?0??FromV8@ParamEcdh1@@UEAAXV?$Local@VValue@v8@@@v8@@@Z@4HA 000000018006a1d0 f   param_ecdh.obj
 0001:000691dd       __catch$?FromV8@ParamEcdh1@@UEAAXV?$Local@VValue@v8@@@v8@@@Z$0 000000018006a1dd f   param_ecdh.obj
 0001:0006920c       ?dtor$9@?0??FromV8@ParamEcdh1@@UEAAXV?$Local@VValue@v8@@@v8@@@Z@4HA 000000018006a20c f   param_ecdh.obj
 0001:00069218       ?catch$27@?0??FromV8@ParamEcdh1@@UEAAXV?$Local@VValue@v8@@@v8@@@Z@4HA 000000018006a218 f   param_ecdh.obj
 0001:00069225       __catch$?FromV8@ParamEcdh1@@UEAAXV?$Local@VValue@v8@@@v8@@@Z$1 000000018006a225 f   param_ecdh.obj
 0001:00069287       ?dtor$10@?0??FromV8@ParamEcdh1@@UEAAXV?$Local@VValue@v8@@@v8@@@Z@4HA 000000018006a287 f   param_ecdh.obj
 0001:000692b0       ?dtor$0@?0??get_pkcs11_error@@YA?AV?$shared_ptr@V?$basic_string@DU?$char_traits@D@std@@V?$allocator@D@2@@std@@@std@@K@Z@4HA 000000018006a2b0 f   pkcs11.obj
 0001:000692cd       ?dtor$1@?0??get_pkcs11_error@@YA?AV?$shared_ptr@V?$basic_string@DU?$char_traits@D@std@@V?$allocator@D@2@@std@@@std@@K@Z@4HA 000000018006a2cd f   pkcs11.obj
 0001:000692d9       ?dtor$2@?0??get_pkcs11_error@@YA?AV?$shared_ptr@V?$basic_string@DU?$char_traits@D@std@@V?$allocator@D@2@@std@@@std@@K@Z@4HA 000000018006a2d9 f   pkcs11.obj
 0001:000692e5       ?dtor$4@?0??get_pkcs11_error@@YA?AV?$shared_ptr@V?$basic_string@DU?$char_traits@D@std@@V?$allocator@D@2@@std@@@std@@K@Z@4HA 000000018006a2e5 f   pkcs11.obj
 0001:00069302       ?dtor$5@?0??get_pkcs11_error@@YA?AV?$shared_ptr@V?$basic_string@DU?$char_traits@D@std@@V?$allocator@D@2@@std@@@std@@K@Z@4HA 000000018006a302 f   pkcs11.obj
 0001:0006930e       ?dtor$6@?0??get_pkcs11_error@@YA?AV?$shared_ptr@V?$basic_string@DU?$char_traits@D@std@@V?$allocator@D@2@@std@@@std@@K@Z@4HA 000000018006a30e f   pkcs11.obj
 0001:0006931a       ?dtor$7@?0??get_pkcs11_error@@YA?AV?$shared_ptr@V?$basic_string@DU?$char_traits@D@std@@V?$allocator@D@2@@std@@@std@@K@Z@4HA 000000018006a31a f   pkcs11.obj
 0001:00069337       ?dtor$8@?0??get_pkcs11_error@@YA?AV?$shared_ptr@V?$basic_string@DU?$char_traits@D@std@@V?$allocator@D@2@@std@@@std@@K@Z@4HA 000000018006a337 f   pkcs11.obj
 0001:00069343       ?dtor$9@?0??get_pkcs11_error@@YA?AV?$shared_ptr@V?$basic_string@DU?$char_traits@D@std@@V?$allocator@D@2@@std@@@std@@K@Z@4HA 000000018006a343 f   pkcs11.obj
 0001:0006934f       ?dtor$10@?0??get_pkcs11_error@@YA?AV?$shared_ptr@V?$basic_string@DU?$char_traits@D@std@@V?$allocator@D@2@@std@@@std@@K@Z@4HA 000000018006a34f f   pkcs11.obj
 0001:0006936c       ?dtor$11@?0??get_pkcs11_error@@YA?AV?$shared_ptr@V?$basic_string@DU?$char_traits@D@std@@V?$allocator@D@2@@std@@@std@@K@Z@4HA 000000018006a36c f   pkcs11.obj
 0001:00069378       ?dtor$12@?0??get_pkcs11_error@@YA?AV?$shared_ptr@V?$basic_string@DU?$char_traits@D@std@@V?$allocator@D@2@@std@@@std@@K@Z@4HA 000000018006a378 f   pkcs11.obj
 0001:00069384       ?dtor$13@?0??get_pkcs11_error@@YA?AV?$shared_ptr@V?$basic_string@DU?$char_traits@D@std@@V?$allocator@D@2@@std@@@std@@K@Z@4HA 000000018006a384 f   pkcs11.obj
 0001:000693a1       ?dtor$14@?0??get_pkcs11_error@@YA?AV?$shared_ptr@V?$basic_string@DU?$char_traits@D@std@@V?$allocator@D@2@@std@@@std@@K@Z@4HA 000000018006a3a1 f   pkcs11.obj
 0001:000693ad       ?dtor$15@?0??get_pkcs11_error@@YA?AV?$shared_ptr@V?$basic_string@DU?$char_traits@D@std@@V?$allocator@D@2@@std@@@std@@K@Z@4HA 000000018006a3ad f   pkcs11.obj
 0001:000693b9       ?dtor$16@?0??get_pkcs11_error@@YA?AV?$shared_ptr@V?$basic_string@DU?$char_traits@D@std@@V?$allocator@D@2@@std@@@std@@K@Z@4HA 000000018006a3b9 f   pkcs11.obj
 0001:000693d6       ?dtor$17@?0??get_pkcs11_error@@YA?AV?$shared_ptr@V?$basic_string@DU?$char_traits@D@std@@V?$allocator@D@2@@std@@@std@@K@Z@4HA 000000018006a3d6 f   pkcs11.obj
 0001:000693e2       ?dtor$18@?0??get_pkcs11_error@@YA?AV?$shared_ptr@V?$basic_string@DU?$char_traits@D@std@@V?$allocator@D@2@@std@@@std@@K@Z@4HA 000000018006a3e2 f   pkcs11.obj
 0001:000693ee       ?dtor$19@?0??get_pkcs11_error@@YA?AV?$shared_ptr@V?$basic_string@DU?$char_traits@D@std@@V?$allocator@D@2@@std@@@std@@K@Z@4HA 000000018006a3ee f   pkcs11.obj
 0001:0006940b       ?dtor$20@?0??get_pkcs11_error@@YA?AV?$shared_ptr@V?$basic_string@DU?$char_traits@D@std@@V?$allocator@D@2@@std@@@std@@K@Z@4HA 000000018006a40b f   pkcs11.obj
 0001:00069417       ?dtor$21@?0??get_pkcs11_error@@YA?AV?$shared_ptr@V?$basic_string@DU?$char_traits@D@std@@V?$allocator@D@2@@std@@@std@@K@Z@4HA 000000018006a417 f   pkcs11.obj
 0001:00069423       ?dtor$22@?0??get_pkcs11_error@@YA?AV?$shared_ptr@V?$basic_string@DU?$char_traits@D@std@@V?$allocator@D@2@@std@@@std@@K@Z@4HA 000000018006a423 f   pkcs11.obj
 0001:00069440       ?dtor$23@?0??get_pkcs11_error@@YA?AV?$shared_ptr@V?$basic_string@DU?$char_traits@D@std@@V?$allocator@D@2@@std@@@std@@K@Z@4HA 000000018006a440 f   pkcs11.obj
 0001:0006944c       ?dtor$24@?0??get_pkcs11_error@@YA?AV?$shared_ptr@V?$basic_string@DU?$char_traits@D@std@@V?$allocator@D@2@@std@@@std@@K@Z@4HA 000000018006a44c f   pkcs11.obj
 0001:00069458       ?dtor$25@?0??get_pkcs11_error@@YA?AV?$shared_ptr@V?$basic_string@DU?$char_traits@D@std@@V?$allocator@D@2@@std@@@std@@K@Z@4HA 000000018006a458 f   pkcs11.obj
 0001:00069475       ?dtor$26@?0??get_pkcs11_error@@YA?AV?$shared_ptr@V?$basic_string@DU?$char_traits@D@std@@V?$allocator@D@2@@std@@@std@@K@Z@4HA 000000018006a475 f   pkcs11.obj
 0001:00069481       ?dtor$27@?0??get_pkcs11_error@@YA?AV?$shared_ptr@V?$basic_string@DU?$char_traits@D@std@@V?$allocator@D@2@@std@@@std@@K@Z@4HA 000000018006a481 f   pkcs11.obj
 0001:0006948d       ?dtor$28@?0??get_pkcs11_error@@YA?AV?$shared_ptr@V?$basic_string@DU?$char_traits@D@std@@V?$allocator@D@2@@std@@@std@@K@Z@4HA 000000018006a48d f   pkcs11.obj
 0001:000694aa       ?dtor$29@?0??get_pkcs11_error@@YA?AV?$shared_ptr@V?$basic_string@DU?$char_traits@D@std@@V?$allocator@D@2@@std@@@std@@K@Z@4HA 000000018006a4aa f   pkcs11.obj
 0001:000694b6       ?dtor$30@?0??get_pkcs11_error@@YA?AV?$shared_ptr@V?$basic_string@DU?$char_traits@D@std@@V?$allocator@D@2@@std@@@std@@K@Z@4HA 000000018006a4b6 f   pkcs11.obj
 0001:000694c2       ?dtor$31@?0??get_pkcs11_error@@YA?AV?$shared_ptr@V?$basic_string@DU?$char_traits@D@std@@V?$allocator@D@2@@std@@@std@@K@Z@4HA 000000018006a4c2 f   pkcs11.obj
 0001:000694df       ?dtor$32@?0??get_pkcs11_error@@YA?AV?$shared_ptr@V?$basic_string@DU?$char_traits@D@std@@V?$allocator@D@2@@std@@@std@@K@Z@4HA 000000018006a4df f   pkcs11.obj
 0001:000694eb       ?dtor$33@?0??get_pkcs11_error@@YA?AV?$shared_ptr@V?$basic_string@DU?$char_traits@D@std@@V?$allocator@D@2@@std@@@std@@K@Z@4HA 000000018006a4eb f   pkcs11.obj
 0001:000694f7       ?dtor$34@?0??get_pkcs11_error@@YA?AV?$shared_ptr@V?$basic_string@DU?$char_traits@D@std@@V?$allocator@D@2@@std@@@std@@K@Z@4HA 000000018006a4f7 f   pkcs11.obj
 0001:00069514       ?dtor$35@?0??get_pkcs11_error@@YA?AV?$shared_ptr@V?$basic_string@DU?$char_traits@D@std@@V?$allocator@D@2@@std@@@std@@K@Z@4HA 000000018006a514 f   pkcs11.obj
 0001:00069520       ?dtor$36@?0??get_pkcs11_error@@YA?AV?$shared_ptr@V?$basic_string@DU?$char_traits@D@std@@V?$allocator@D@2@@std@@@std@@K@Z@4HA 000000018006a520 f   pkcs11.obj
 0001:0006952c       ?dtor$37@?0??get_pkcs11_error@@YA?AV?$shared_ptr@V?$basic_string@DU?$char_traits@D@std@@V?$allocator@D@2@@std@@@std@@K@Z@4HA 000000018006a52c f   pkcs11.obj
 0001:00069549       ?dtor$38@?0??get_pkcs11_error@@YA?AV?$shared_ptr@V?$basic_string@DU?$char_traits@D@std@@V?$allocator@D@2@@std@@@std@@K@Z@4HA 000000018006a549 f   pkcs11.obj
 0001:00069555       ?dtor$39@?0??get_pkcs11_error@@YA?AV?$shared_ptr@V?$basic_string@DU?$char_traits@D@std@@V?$allocator@D@2@@std@@@std@@K@Z@4HA 000000018006a555 f   pkcs11.obj
 0001:00069561       ?dtor$40@?0??get_pkcs11_error@@YA?AV?$shared_ptr@V?$basic_string@DU?$char_traits@D@std@@V?$allocator@D@2@@std@@@std@@K@Z@4HA 000000018006a561 f   pkcs11.obj
 0001:0006957e       ?dtor$41@?0??get_pkcs11_error@@YA?AV?$shared_ptr@V?$basic_string@DU?$char_traits@D@std@@V?$allocator@D@2@@std@@@std@@K@Z@4HA 000000018006a57e f   pkcs11.obj
 0001:0006958a       ?dtor$42@?0??get_pkcs11_error@@YA?AV?$shared_ptr@V?$basic_string@DU?$char_traits@D@std@@V?$allocator@D@2@@std@@@std@@K@Z@4HA 000000018006a58a f   pkcs11.obj
 0001:00069596       ?dtor$43@?0??get_pkcs11_error@@YA?AV?$shared_ptr@V?$basic_string@DU?$char_traits@D@std@@V?$allocator@D@2@@std@@@std@@K@Z@4HA 000000018006a596 f   pkcs11.obj
 0001:000695b3       ?dtor$44@?0??get_pkcs11_error@@YA?AV?$shared_ptr@V?$basic_string@DU?$char_traits@D@std@@V?$allocator@D@2@@std@@@std@@K@Z@4HA 000000018006a5b3 f   pkcs11.obj
 0001:000695bf       ?dtor$45@?0??get_pkcs11_error@@YA?AV?$shared_ptr@V?$basic_string@DU?$char_traits@D@std@@V?$allocator@D@2@@std@@@std@@K@Z@4HA 000000018006a5bf f   pkcs11.obj
 0001:000695cb       ?dtor$46@?0??get_pkcs11_error@@YA?AV?$shared_ptr@V?$basic_string@DU?$char_traits@D@std@@V?$allocator@D@2@@std@@@std@@K@Z@4HA 000000018006a5cb f   pkcs11.obj
 0001:000695e8       ?dtor$47@?0??get_pkcs11_error@@YA?AV?$shared_ptr@V?$basic_string@DU?$char_traits@D@std@@V?$allocator@D@2@@std@@@std@@K@Z@4HA 000000018006a5e8 f   pkcs11.obj
 0001:000695f4       ?dtor$48@?0??get_pkcs11_error@@YA?AV?$shared_ptr@V?$basic_string@DU?$char_traits@D@std@@V?$allocator@D@2@@std@@@std@@K@Z@4HA 000000018006a5f4 f   pkcs11.obj
 0001:00069600       ?dtor$49@?0??get_pkcs11_error@@YA?AV?$shared_ptr@V?$basic_string@DU?$char_traits@D@std@@V?$allocator@D@2@@std@@@std@@K@Z@4HA 000000018006a600 f   pkcs11.obj
 0001:0006961d       ?dtor$50@?0??get_pkcs11_error@@YA?AV?$shared_ptr@V?$basic_string@DU?$char_traits@D@std@@V?$allocator@D@2@@std@@@std@@K@Z@4HA 000000018006a61d f   pkcs11.obj
 0001:00069629       ?dtor$51@?0??get_pkcs11_error@@YA?AV?$shared_ptr@V?$basic_string@DU?$char_traits@D@std@@V?$allocator@D@2@@std@@@std@@K@Z@4HA 000000018006a629 f   pkcs11.obj
 0001:00069635       ?dtor$52@?0??get_pkcs11_error@@YA?AV?$shared_ptr@V?$basic_string@DU?$char_traits@D@std@@V?$allocator@D@2@@std@@@std@@K@Z@4HA 000000018006a635 f   pkcs11.obj
 0001:00069652       ?dtor$53@?0??get_pkcs11_error@@YA?AV?$shared_ptr@V?$basic_string@DU?$char_traits@D@std@@V?$allocator@D@2@@std@@@std@@K@Z@4HA 000000018006a652 f   pkcs11.obj
 0001:0006965e       ?dtor$54@?0??get_pkcs11_error@@YA?AV?$shared_ptr@V?$basic_string@DU?$char_traits@D@std@@V?$allocator@D@2@@std@@@std@@K@Z@4HA 000000018006a65e f   pkcs11.obj
 0001:0006966a       ?dtor$55@?0??get_pkcs11_error@@YA?AV?$shared_ptr@V?$basic_string@DU?$char_traits@D@std@@V?$allocator@D@2@@std@@@std@@K@Z@4HA 000000018006a66a f   pkcs11.obj
 0001:00069687       ?dtor$56@?0??get_pkcs11_error@@YA?AV?$shared_ptr@V?$basic_string@DU?$char_traits@D@std@@V?$allocator@D@2@@std@@@std@@K@Z@4HA 000000018006a687 f   pkcs11.obj
 0001:00069693       ?dtor$57@?0??get_pkcs11_error@@YA?AV?$shared_ptr@V?$basic_string@DU?$char_traits@D@std@@V?$allocator@D@2@@std@@@std@@K@Z@4HA 000000018006a693 f   pkcs11.obj
 0001:0006969f       ?dtor$58@?0??get_pkcs11_error@@YA?AV?$shared_ptr@V?$basic_string@DU?$char_traits@D@std@@V?$allocator@D@2@@std@@@std@@K@Z@4HA 000000018006a69f f   pkcs11.obj
 0001:000696bc       ?dtor$59@?0??get_pkcs11_error@@YA?AV?$shared_ptr@V?$basic_string@DU?$char_traits@D@std@@V?$allocator@D@2@@std@@@std@@K@Z@4HA 000000018006a6bc f   pkcs11.obj
 0001:000696c8       ?dtor$60@?0??get_pkcs11_error@@YA?AV?$shared_ptr@V?$basic_string@DU?$char_traits@D@std@@V?$allocator@D@2@@std@@@std@@K@Z@4HA 000000018006a6c8 f   pkcs11.obj
 0001:000696d4       ?dtor$61@?0??get_pkcs11_error@@YA?AV?$shared_ptr@V?$basic_string@DU?$char_traits@D@std@@V?$allocator@D@2@@std@@@std@@K@Z@4HA 000000018006a6d4 f   pkcs11.obj
 0001:000696f1       ?dtor$62@?0??get_pkcs11_error@@YA?AV?$shared_ptr@V?$basic_string@DU?$char_traits@D@std@@V?$allocator@D@2@@std@@@std@@K@Z@4HA 000000018006a6f1 f   pkcs11.obj
 0001:000696fd       ?dtor$63@?0??get_pkcs11_error@@YA?AV?$shared_ptr@V?$basic_string@DU?$char_traits@D@std@@V?$allocator@D@2@@std@@@std@@K@Z@4HA 000000018006a6fd f   pkcs11.obj
 0001:00069709       ?dtor$64@?0??get_pkcs11_error@@YA?AV?$shared_ptr@V?$basic_string@DU?$char_traits@D@std@@V?$allocator@D@2@@std@@@std@@K@Z@4HA 000000018006a709 f   pkcs11.obj
 0001:00069726       ?dtor$65@?0??get_pkcs11_error@@YA?AV?$shared_ptr@V?$basic_string@DU?$char_traits@D@std@@V?$allocator@D@2@@std@@@std@@K@Z@4HA 000000018006a726 f   pkcs11.obj
 0001:00069732       ?dtor$66@?0??get_pkcs11_error@@YA?AV?$shared_ptr@V?$basic_string@DU?$char_traits@D@std@@V?$allocator@D@2@@std@@@std@@K@Z@4HA 000000018006a732 f   pkcs11.obj
 0001:0006973e       ?dtor$67@?0??get_pkcs11_error@@YA?AV?$shared_ptr@V?$basic_string@DU?$char_traits@D@std@@V?$allocator@D@2@@std@@@std@@K@Z@4HA 000000018006a73e f   pkcs11.obj
 0001:0006975b       ?dtor$68@?0??get_pkcs11_error@@YA?AV?$shared_ptr@V?$basic_string@DU?$char_traits@D@std@@V?$allocator@D@2@@std@@@std@@K@Z@4HA 000000018006a75b f   pkcs11.obj
 0001:00069767       ?dtor$69@?0??get_pkcs11_error@@YA?AV?$shared_ptr@V?$basic_string@DU?$char_traits@D@std@@V?$allocator@D@2@@std@@@std@@K@Z@4HA 000000018006a767 f   pkcs11.obj
 0001:00069773       ?dtor$70@?0??get_pkcs11_error@@YA?AV?$shared_ptr@V?$basic_string@DU?$char_traits@D@std@@V?$allocator@D@2@@std@@@std@@K@Z@4HA 000000018006a773 f   pkcs11.obj
 0001:00069790       ?dtor$71@?0??get_pkcs11_error@@YA?AV?$shared_ptr@V?$basic_string@DU?$char_traits@D@std@@V?$allocator@D@2@@std@@@std@@K@Z@4HA 000000018006a790 f   pkcs11.obj
 0001:0006979c       ?dtor$72@?0??get_pkcs11_error@@YA?AV?$shared_ptr@V?$basic_string@DU?$char_traits@D@std@@V?$allocator@D@2@@std@@@std@@K@Z@4HA 000000018006a79c f   pkcs11.obj
 0001:000697a8       ?dtor$73@?0??get_pkcs11_error@@YA?AV?$shared_ptr@V?$basic_string@DU?$char_traits@D@std@@V?$allocator@D@2@@std@@@std@@K@Z@4HA 000000018006a7a8 f   pkcs11.obj
 0001:000697c5       ?dtor$74@?0??get_pkcs11_error@@YA?AV?$shared_ptr@V?$basic_string@DU?$char_traits@D@std@@V?$allocator@D@2@@std@@@std@@K@Z@4HA 000000018006a7c5 f   pkcs11.obj
 0001:000697d1       ?dtor$75@?0??get_pkcs11_error@@YA?AV?$shared_ptr@V?$basic_string@DU?$char_traits@D@std@@V?$allocator@D@2@@std@@@std@@K@Z@4HA 000000018006a7d1 f   pkcs11.obj
 0001:000697dd       ?dtor$76@?0??get_pkcs11_error@@YA?AV?$shared_ptr@V?$basic_string@DU?$char_traits@D@std@@V?$allocator@D@2@@std@@@std@@K@Z@4HA 000000018006a7dd f   pkcs11.obj
 0001:000697fa       ?dtor$77@?0??get_pkcs11_error@@YA?AV?$shared_ptr@V?$basic_string@DU?$char_traits@D@std@@V?$allocator@D@2@@std@@@std@@K@Z@4HA 000000018006a7fa f   pkcs11.obj
 0001:00069806       ?dtor$78@?0??get_pkcs11_error@@YA?AV?$shared_ptr@V?$basic_string@DU?$char_traits@D@std@@V?$allocator@D@2@@std@@@std@@K@Z@4HA 000000018006a806 f   pkcs11.obj
 0001:00069812       ?dtor$79@?0??get_pkcs11_error@@YA?AV?$shared_ptr@V?$basic_string@DU?$char_traits@D@std@@V?$allocator@D@2@@std@@@std@@K@Z@4HA 000000018006a812 f   pkcs11.obj
 0001:0006982f       ?dtor$80@?0??get_pkcs11_error@@YA?AV?$shared_ptr@V?$basic_string@DU?$char_traits@D@std@@V?$allocator@D@2@@std@@@std@@K@Z@4HA 000000018006a82f f   pkcs11.obj
 0001:0006983b       ?dtor$81@?0??get_pkcs11_error@@YA?AV?$shared_ptr@V?$basic_string@DU?$char_traits@D@std@@V?$allocator@D@2@@std@@@std@@K@Z@4HA 000000018006a83b f   pkcs11.obj
 0001:00069847       ?dtor$82@?0??get_pkcs11_error@@YA?AV?$shared_ptr@V?$basic_string@DU?$char_traits@D@std@@V?$allocator@D@2@@std@@@std@@K@Z@4HA 000000018006a847 f   pkcs11.obj
 0001:00069864       ?dtor$83@?0??get_pkcs11_error@@YA?AV?$shared_ptr@V?$basic_string@DU?$char_traits@D@std@@V?$allocator@D@2@@std@@@std@@K@Z@4HA 000000018006a864 f   pkcs11.obj
 0001:00069870       ?dtor$84@?0??get_pkcs11_error@@YA?AV?$shared_ptr@V?$basic_string@DU?$char_traits@D@std@@V?$allocator@D@2@@std@@@std@@K@Z@4HA 000000018006a870 f   pkcs11.obj
 0001:0006987c       ?dtor$85@?0??get_pkcs11_error@@YA?AV?$shared_ptr@V?$basic_string@DU?$char_traits@D@std@@V?$allocator@D@2@@std@@@std@@K@Z@4HA 000000018006a87c f   pkcs11.obj
 0001:00069899       ?dtor$86@?0??get_pkcs11_error@@YA?AV?$shared_ptr@V?$basic_string@DU?$char_traits@D@std@@V?$allocator@D@2@@std@@@std@@K@Z@4HA 000000018006a899 f   pkcs11.obj
 0001:000698a5       ?dtor$87@?0??get_pkcs11_error@@YA?AV?$shared_ptr@V?$basic_string@DU?$char_traits@D@std@@V?$allocator@D@2@@std@@@std@@K@Z@4HA 000000018006a8a5 f   pkcs11.obj
 0001:000698b1       ?dtor$88@?0??get_pkcs11_error@@YA?AV?$shared_ptr@V?$basic_string@DU?$char_traits@D@std@@V?$allocator@D@2@@std@@@std@@K@Z@4HA 000000018006a8b1 f   pkcs11.obj
 0001:000698ce       ?dtor$89@?0??get_pkcs11_error@@YA?AV?$shared_ptr@V?$basic_string@DU?$char_traits@D@std@@V?$allocator@D@2@@std@@@std@@K@Z@4HA 000000018006a8ce f   pkcs11.obj
 0001:000698da       ?dtor$90@?0??get_pkcs11_error@@YA?AV?$shared_ptr@V?$basic_string@DU?$char_traits@D@std@@V?$allocator@D@2@@std@@@std@@K@Z@4HA 000000018006a8da f   pkcs11.obj
 0001:000698e6       ?dtor$91@?0??get_pkcs11_error@@YA?AV?$shared_ptr@V?$basic_string@DU?$char_traits@D@std@@V?$allocator@D@2@@std@@@std@@K@Z@4HA 000000018006a8e6 f   pkcs11.obj
 0001:00069903       ?dtor$92@?0??get_pkcs11_error@@YA?AV?$shared_ptr@V?$basic_string@DU?$char_traits@D@std@@V?$allocator@D@2@@std@@@std@@K@Z@4HA 000000018006a903 f   pkcs11.obj
 0001:0006990f       ?dtor$93@?0??get_pkcs11_error@@YA?AV?$shared_ptr@V?$basic_string@DU?$char_traits@D@std@@V?$allocator@D@2@@std@@@std@@K@Z@4HA 000000018006a90f f   pkcs11.obj
 0001:0006991b       ?dtor$94@?0??get_pkcs11_error@@YA?AV?$shared_ptr@V?$basic_string@DU?$char_traits@D@std@@V?$allocator@D@2@@std@@@std@@K@Z@4HA 000000018006a91b f   pkcs11.obj
 0001:00069938       ?dtor$95@?0??get_pkcs11_error@@YA?AV?$shared_ptr@V?$basic_string@DU?$char_traits@D@std@@V?$allocator@D@2@@std@@@std@@K@Z@4HA 000000018006a938 f   pkcs11.obj
 0001:00069944       ?dtor$96@?0??get_pkcs11_error@@YA?AV?$shared_ptr@V?$basic_string@DU?$char_traits@D@std@@V?$allocator@D@2@@std@@@std@@K@Z@4HA 000000018006a944 f   pkcs11.obj
 0001:00069950       ?dtor$97@?0??get_pkcs11_error@@YA?AV?$shared_ptr@V?$basic_string@DU?$char_traits@D@std@@V?$allocator@D@2@@std@@@std@@K@Z@4HA 000000018006a950 f   pkcs11.obj
 0001:0006996d       ?dtor$98@?0??get_pkcs11_error@@YA?AV?$shared_ptr@V?$basic_string@DU?$char_traits@D@std@@V?$allocator@D@2@@std@@@std@@K@Z@4HA 000000018006a96d f   pkcs11.obj
 0001:00069979       ?dtor$99@?0??get_pkcs11_error@@YA?AV?$shared_ptr@V?$basic_string@DU?$char_traits@D@std@@V?$allocator@D@2@@std@@@std@@K@Z@4HA 000000018006a979 f   pkcs11.obj
 0001:00069985       ?dtor$100@?0??get_pkcs11_error@@YA?AV?$shared_ptr@V?$basic_string@DU?$char_traits@D@std@@V?$allocator@D@2@@std@@@std@@K@Z@4HA 000000018006a985 f   pkcs11.obj
 0001:000699a2       ?dtor$101@?0??get_pkcs11_error@@YA?AV?$shared_ptr@V?$basic_string@DU?$char_traits@D@std@@V?$allocator@D@2@@std@@@std@@K@Z@4HA 000000018006a9a2 f   pkcs11.obj
 0001:000699ae       ?dtor$102@?0??get_pkcs11_error@@YA?AV?$shared_ptr@V?$basic_string@DU?$char_traits@D@std@@V?$allocator@D@2@@std@@@std@@K@Z@4HA 000000018006a9ae f   pkcs11.obj
 0001:000699ba       ?dtor$103@?0??get_pkcs11_error@@YA?AV?$shared_ptr@V?$basic_string@DU?$char_traits@D@std@@V?$allocator@D@2@@std@@@std@@K@Z@4HA 000000018006a9ba f   pkcs11.obj
 0001:000699d7       ?dtor$104@?0??get_pkcs11_error@@YA?AV?$shared_ptr@V?$basic_string@DU?$char_traits@D@std@@V?$allocator@D@2@@std@@@std@@K@Z@4HA 000000018006a9d7 f   pkcs11.obj
 0001:000699e3       ?dtor$105@?0??get_pkcs11_error@@YA?AV?$shared_ptr@V?$basic_string@DU?$char_traits@D@std@@V?$allocator@D@2@@std@@@std@@K@Z@4HA 000000018006a9e3 f   pkcs11.obj
 0001:000699ef       ?dtor$106@?0??get_pkcs11_error@@YA?AV?$shared_ptr@V?$basic_string@DU?$char_traits@D@std@@V?$allocator@D@2@@std@@@std@@K@Z@4HA 000000018006a9ef f   pkcs11.obj
 0001:00069a0c       ?dtor$107@?0??get_pkcs11_error@@YA?AV?$shared_ptr@V?$basic_string@DU?$char_traits@D@std@@V?$allocator@D@2@@std@@@std@@K@Z@4HA 000000018006aa0c f   pkcs11.obj
 0001:00069a18       ?dtor$108@?0??get_pkcs11_error@@YA?AV?$shared_ptr@V?$basic_string@DU?$char_traits@D@std@@V?$allocator@D@2@@std@@@std@@K@Z@4HA 000000018006aa18 f   pkcs11.obj
 0001:00069a24       ?dtor$109@?0??get_pkcs11_error@@YA?AV?$shared_ptr@V?$basic_string@DU?$char_traits@D@std@@V?$allocator@D@2@@std@@@std@@K@Z@4HA 000000018006aa24 f   pkcs11.obj
 0001:00069a41       ?dtor$110@?0??get_pkcs11_error@@YA?AV?$shared_ptr@V?$basic_string@DU?$char_traits@D@std@@V?$allocator@D@2@@std@@@std@@K@Z@4HA 000000018006aa41 f   pkcs11.obj
 0001:00069a4d       ?dtor$111@?0??get_pkcs11_error@@YA?AV?$shared_ptr@V?$basic_string@DU?$char_traits@D@std@@V?$allocator@D@2@@std@@@std@@K@Z@4HA 000000018006aa4d f   pkcs11.obj
 0001:00069a59       ?dtor$112@?0??get_pkcs11_error@@YA?AV?$shared_ptr@V?$basic_string@DU?$char_traits@D@std@@V?$allocator@D@2@@std@@@std@@K@Z@4HA 000000018006aa59 f   pkcs11.obj
 0001:00069a76       ?dtor$113@?0??get_pkcs11_error@@YA?AV?$shared_ptr@V?$basic_string@DU?$char_traits@D@std@@V?$allocator@D@2@@std@@@std@@K@Z@4HA 000000018006aa76 f   pkcs11.obj
 0001:00069a82       ?dtor$114@?0??get_pkcs11_error@@YA?AV?$shared_ptr@V?$basic_string@DU?$char_traits@D@std@@V?$allocator@D@2@@std@@@std@@K@Z@4HA 000000018006aa82 f   pkcs11.obj
 0001:00069a8e       ?dtor$115@?0??get_pkcs11_error@@YA?AV?$shared_ptr@V?$basic_string@DU?$char_traits@D@std@@V?$allocator@D@2@@std@@@std@@K@Z@4HA 000000018006aa8e f   pkcs11.obj
 0001:00069aab       ?dtor$116@?0??get_pkcs11_error@@YA?AV?$shared_ptr@V?$basic_string@DU?$char_traits@D@std@@V?$allocator@D@2@@std@@@std@@K@Z@4HA 000000018006aaab f   pkcs11.obj
 0001:00069ab7       ?dtor$117@?0??get_pkcs11_error@@YA?AV?$shared_ptr@V?$basic_string@DU?$char_traits@D@std@@V?$allocator@D@2@@std@@@std@@K@Z@4HA 000000018006aab7 f   pkcs11.obj
 0001:00069ac3       ?dtor$118@?0??get_pkcs11_error@@YA?AV?$shared_ptr@V?$basic_string@DU?$char_traits@D@std@@V?$allocator@D@2@@std@@@std@@K@Z@4HA 000000018006aac3 f   pkcs11.obj
 0001:00069ae0       ?dtor$119@?0??get_pkcs11_error@@YA?AV?$shared_ptr@V?$basic_string@DU?$char_traits@D@std@@V?$allocator@D@2@@std@@@std@@K@Z@4HA 000000018006aae0 f   pkcs11.obj
 0001:00069aec       ?dtor$120@?0??get_pkcs11_error@@YA?AV?$shared_ptr@V?$basic_string@DU?$char_traits@D@std@@V?$allocator@D@2@@std@@@std@@K@Z@4HA 000000018006aaec f   pkcs11.obj
 0001:00069af8       ?dtor$121@?0??get_pkcs11_error@@YA?AV?$shared_ptr@V?$basic_string@DU?$char_traits@D@std@@V?$allocator@D@2@@std@@@std@@K@Z@4HA 000000018006aaf8 f   pkcs11.obj
 0001:00069b15       ?dtor$122@?0??get_pkcs11_error@@YA?AV?$shared_ptr@V?$basic_string@DU?$char_traits@D@std@@V?$allocator@D@2@@std@@@std@@K@Z@4HA 000000018006ab15 f   pkcs11.obj
 0001:00069b21       ?dtor$123@?0??get_pkcs11_error@@YA?AV?$shared_ptr@V?$basic_string@DU?$char_traits@D@std@@V?$allocator@D@2@@std@@@std@@K@Z@4HA 000000018006ab21 f   pkcs11.obj
 0001:00069b2d       ?dtor$124@?0??get_pkcs11_error@@YA?AV?$shared_ptr@V?$basic_string@DU?$char_traits@D@std@@V?$allocator@D@2@@std@@@std@@K@Z@4HA 000000018006ab2d f   pkcs11.obj
 0001:00069b4a       ?dtor$125@?0??get_pkcs11_error@@YA?AV?$shared_ptr@V?$basic_string@DU?$char_traits@D@std@@V?$allocator@D@2@@std@@@std@@K@Z@4HA 000000018006ab4a f   pkcs11.obj
 0001:00069b56       ?dtor$126@?0??get_pkcs11_error@@YA?AV?$shared_ptr@V?$basic_string@DU?$char_traits@D@std@@V?$allocator@D@2@@std@@@std@@K@Z@4HA 000000018006ab56 f   pkcs11.obj
 0001:00069b62       ?dtor$127@?0??get_pkcs11_error@@YA?AV?$shared_ptr@V?$basic_string@DU?$char_traits@D@std@@V?$allocator@D@2@@std@@@std@@K@Z@4HA 000000018006ab62 f   pkcs11.obj
 0001:00069b7f       ?dtor$128@?0??get_pkcs11_error@@YA?AV?$shared_ptr@V?$basic_string@DU?$char_traits@D@std@@V?$allocator@D@2@@std@@@std@@K@Z@4HA 000000018006ab7f f   pkcs11.obj
 0001:00069b8b       ?dtor$129@?0??get_pkcs11_error@@YA?AV?$shared_ptr@V?$basic_string@DU?$char_traits@D@std@@V?$allocator@D@2@@std@@@std@@K@Z@4HA 000000018006ab8b f   pkcs11.obj
 0001:00069b97       ?dtor$130@?0??get_pkcs11_error@@YA?AV?$shared_ptr@V?$basic_string@DU?$char_traits@D@std@@V?$allocator@D@2@@std@@@std@@K@Z@4HA 000000018006ab97 f   pkcs11.obj
 0001:00069bb4       ?dtor$131@?0??get_pkcs11_error@@YA?AV?$shared_ptr@V?$basic_string@DU?$char_traits@D@std@@V?$allocator@D@2@@std@@@std@@K@Z@4HA 000000018006abb4 f   pkcs11.obj
 0001:00069bc0       ?dtor$132@?0??get_pkcs11_error@@YA?AV?$shared_ptr@V?$basic_string@DU?$char_traits@D@std@@V?$allocator@D@2@@std@@@std@@K@Z@4HA 000000018006abc0 f   pkcs11.obj
 0001:00069bcc       ?dtor$133@?0??get_pkcs11_error@@YA?AV?$shared_ptr@V?$basic_string@DU?$char_traits@D@std@@V?$allocator@D@2@@std@@@std@@K@Z@4HA 000000018006abcc f   pkcs11.obj
 0001:00069be9       ?dtor$134@?0??get_pkcs11_error@@YA?AV?$shared_ptr@V?$basic_string@DU?$char_traits@D@std@@V?$allocator@D@2@@std@@@std@@K@Z@4HA 000000018006abe9 f   pkcs11.obj
 0001:00069bf5       ?dtor$135@?0??get_pkcs11_error@@YA?AV?$shared_ptr@V?$basic_string@DU?$char_traits@D@std@@V?$allocator@D@2@@std@@@std@@K@Z@4HA 000000018006abf5 f   pkcs11.obj
 0001:00069c01       ?dtor$136@?0??get_pkcs11_error@@YA?AV?$shared_ptr@V?$basic_string@DU?$char_traits@D@std@@V?$allocator@D@2@@std@@@std@@K@Z@4HA 000000018006ac01 f   pkcs11.obj
 0001:00069c1e       ?dtor$137@?0??get_pkcs11_error@@YA?AV?$shared_ptr@V?$basic_string@DU?$char_traits@D@std@@V?$allocator@D@2@@std@@@std@@K@Z@4HA 000000018006ac1e f   pkcs11.obj
 0001:00069c2a       ?dtor$138@?0??get_pkcs11_error@@YA?AV?$shared_ptr@V?$basic_string@DU?$char_traits@D@std@@V?$allocator@D@2@@std@@@std@@K@Z@4HA 000000018006ac2a f   pkcs11.obj
 0001:00069c36       ?dtor$139@?0??get_pkcs11_error@@YA?AV?$shared_ptr@V?$basic_string@DU?$char_traits@D@std@@V?$allocator@D@2@@std@@@std@@K@Z@4HA 000000018006ac36 f   pkcs11.obj
 0001:00069c53       ?dtor$140@?0??get_pkcs11_error@@YA?AV?$shared_ptr@V?$basic_string@DU?$char_traits@D@std@@V?$allocator@D@2@@std@@@std@@K@Z@4HA 000000018006ac53 f   pkcs11.obj
 0001:00069c5f       ?dtor$141@?0??get_pkcs11_error@@YA?AV?$shared_ptr@V?$basic_string@DU?$char_traits@D@std@@V?$allocator@D@2@@std@@@std@@K@Z@4HA 000000018006ac5f f   pkcs11.obj
 0001:00069c6b       ?dtor$142@?0??get_pkcs11_error@@YA?AV?$shared_ptr@V?$basic_string@DU?$char_traits@D@std@@V?$allocator@D@2@@std@@@std@@K@Z@4HA 000000018006ac6b f   pkcs11.obj
 0001:00069c88       ?dtor$143@?0??get_pkcs11_error@@YA?AV?$shared_ptr@V?$basic_string@DU?$char_traits@D@std@@V?$allocator@D@2@@std@@@std@@K@Z@4HA 000000018006ac88 f   pkcs11.obj
 0001:00069c94       ?dtor$144@?0??get_pkcs11_error@@YA?AV?$shared_ptr@V?$basic_string@DU?$char_traits@D@std@@V?$allocator@D@2@@std@@@std@@K@Z@4HA 000000018006ac94 f   pkcs11.obj
 0001:00069ca0       ?dtor$145@?0??get_pkcs11_error@@YA?AV?$shared_ptr@V?$basic_string@DU?$char_traits@D@std@@V?$allocator@D@2@@std@@@std@@K@Z@4HA 000000018006aca0 f   pkcs11.obj
 0001:00069cbd       ?dtor$146@?0??get_pkcs11_error@@YA?AV?$shared_ptr@V?$basic_string@DU?$char_traits@D@std@@V?$allocator@D@2@@std@@@std@@K@Z@4HA 000000018006acbd f   pkcs11.obj
 0001:00069cc9       ?dtor$147@?0??get_pkcs11_error@@YA?AV?$shared_ptr@V?$basic_string@DU?$char_traits@D@std@@V?$allocator@D@2@@std@@@std@@K@Z@4HA 000000018006acc9 f   pkcs11.obj
 0001:00069cd5       ?dtor$148@?0??get_pkcs11_error@@YA?AV?$shared_ptr@V?$basic_string@DU?$char_traits@D@std@@V?$allocator@D@2@@std@@@std@@K@Z@4HA 000000018006acd5 f   pkcs11.obj
 0001:00069cf2       ?dtor$149@?0??get_pkcs11_error@@YA?AV?$shared_ptr@V?$basic_string@DU?$char_traits@D@std@@V?$allocator@D@2@@std@@@std@@K@Z@4HA 000000018006acf2 f   pkcs11.obj
 0001:00069cfe       ?dtor$150@?0??get_pkcs11_error@@YA?AV?$shared_ptr@V?$basic_string@DU?$char_traits@D@std@@V?$allocator@D@2@@std@@@std@@K@Z@4HA 000000018006acfe f   pkcs11.obj
 0001:00069d0a       ?dtor$151@?0??get_pkcs11_error@@YA?AV?$shared_ptr@V?$basic_string@DU?$char_traits@D@std@@V?$allocator@D@2@@std@@@std@@K@Z@4HA 000000018006ad0a f   pkcs11.obj
 0001:00069d27       ?dtor$152@?0??get_pkcs11_error@@YA?AV?$shared_ptr@V?$basic_string@DU?$char_traits@D@std@@V?$allocator@D@2@@std@@@std@@K@Z@4HA 000000018006ad27 f   pkcs11.obj
 0001:00069d33       ?dtor$153@?0??get_pkcs11_error@@YA?AV?$shared_ptr@V?$basic_string@DU?$char_traits@D@std@@V?$allocator@D@2@@std@@@std@@K@Z@4HA 000000018006ad33 f   pkcs11.obj
 0001:00069d3f       ?dtor$154@?0??get_pkcs11_error@@YA?AV?$shared_ptr@V?$basic_string@DU?$char_traits@D@std@@V?$allocator@D@2@@std@@@std@@K@Z@4HA 000000018006ad3f f   pkcs11.obj
 0001:00069d5c       ?dtor$155@?0??get_pkcs11_error@@YA?AV?$shared_ptr@V?$basic_string@DU?$char_traits@D@std@@V?$allocator@D@2@@std@@@std@@K@Z@4HA 000000018006ad5c f   pkcs11.obj
 0001:00069d68       ?dtor$156@?0??get_pkcs11_error@@YA?AV?$shared_ptr@V?$basic_string@DU?$char_traits@D@std@@V?$allocator@D@2@@std@@@std@@K@Z@4HA 000000018006ad68 f   pkcs11.obj
 0001:00069d74       ?dtor$157@?0??get_pkcs11_error@@YA?AV?$shared_ptr@V?$basic_string@DU?$char_traits@D@std@@V?$allocator@D@2@@std@@@std@@K@Z@4HA 000000018006ad74 f   pkcs11.obj
 0001:00069d91       ?dtor$158@?0??get_pkcs11_error@@YA?AV?$shared_ptr@V?$basic_string@DU?$char_traits@D@std@@V?$allocator@D@2@@std@@@std@@K@Z@4HA 000000018006ad91 f   pkcs11.obj
 0001:00069d9d       ?dtor$159@?0??get_pkcs11_error@@YA?AV?$shared_ptr@V?$basic_string@DU?$char_traits@D@std@@V?$allocator@D@2@@std@@@std@@K@Z@4HA 000000018006ad9d f   pkcs11.obj
 0001:00069da9       ?dtor$160@?0??get_pkcs11_error@@YA?AV?$shared_ptr@V?$basic_string@DU?$char_traits@D@std@@V?$allocator@D@2@@std@@@std@@K@Z@4HA 000000018006ada9 f   pkcs11.obj
 0001:00069dc6       ?dtor$161@?0??get_pkcs11_error@@YA?AV?$shared_ptr@V?$basic_string@DU?$char_traits@D@std@@V?$allocator@D@2@@std@@@std@@K@Z@4HA 000000018006adc6 f   pkcs11.obj
 0001:00069dd2       ?dtor$162@?0??get_pkcs11_error@@YA?AV?$shared_ptr@V?$basic_string@DU?$char_traits@D@std@@V?$allocator@D@2@@std@@@std@@K@Z@4HA 000000018006add2 f   pkcs11.obj
 0001:00069dde       ?dtor$163@?0??get_pkcs11_error@@YA?AV?$shared_ptr@V?$basic_string@DU?$char_traits@D@std@@V?$allocator@D@2@@std@@@std@@K@Z@4HA 000000018006adde f   pkcs11.obj
 0001:00069dfb       ?dtor$164@?0??get_pkcs11_error@@YA?AV?$shared_ptr@V?$basic_string@DU?$char_traits@D@std@@V?$allocator@D@2@@std@@@std@@K@Z@4HA 000000018006adfb f   pkcs11.obj
 0001:00069e07       ?dtor$165@?0??get_pkcs11_error@@YA?AV?$shared_ptr@V?$basic_string@DU?$char_traits@D@std@@V?$allocator@D@2@@std@@@std@@K@Z@4HA 000000018006ae07 f   pkcs11.obj
 0001:00069e13       ?dtor$166@?0??get_pkcs11_error@@YA?AV?$shared_ptr@V?$basic_string@DU?$char_traits@D@std@@V?$allocator@D@2@@std@@@std@@K@Z@4HA 000000018006ae13 f   pkcs11.obj
 0001:00069e30       ?dtor$167@?0??get_pkcs11_error@@YA?AV?$shared_ptr@V?$basic_string@DU?$char_traits@D@std@@V?$allocator@D@2@@std@@@std@@K@Z@4HA 000000018006ae30 f   pkcs11.obj
 0001:00069e3c       ?dtor$168@?0??get_pkcs11_error@@YA?AV?$shared_ptr@V?$basic_string@DU?$char_traits@D@std@@V?$allocator@D@2@@std@@@std@@K@Z@4HA 000000018006ae3c f   pkcs11.obj
 0001:00069e48       ?dtor$169@?0??get_pkcs11_error@@YA?AV?$shared_ptr@V?$basic_string@DU?$char_traits@D@std@@V?$allocator@D@2@@std@@@std@@K@Z@4HA 000000018006ae48 f   pkcs11.obj
 0001:00069e65       ?dtor$170@?0??get_pkcs11_error@@YA?AV?$shared_ptr@V?$basic_string@DU?$char_traits@D@std@@V?$allocator@D@2@@std@@@std@@K@Z@4HA 000000018006ae65 f   pkcs11.obj
 0001:00069e71       ?dtor$171@?0??get_pkcs11_error@@YA?AV?$shared_ptr@V?$basic_string@DU?$char_traits@D@std@@V?$allocator@D@2@@std@@@std@@K@Z@4HA 000000018006ae71 f   pkcs11.obj
 0001:00069e7d       ?dtor$172@?0??get_pkcs11_error@@YA?AV?$shared_ptr@V?$basic_string@DU?$char_traits@D@std@@V?$allocator@D@2@@std@@@std@@K@Z@4HA 000000018006ae7d f   pkcs11.obj
 0001:00069e9a       ?dtor$173@?0??get_pkcs11_error@@YA?AV?$shared_ptr@V?$basic_string@DU?$char_traits@D@std@@V?$allocator@D@2@@std@@@std@@K@Z@4HA 000000018006ae9a f   pkcs11.obj
 0001:00069ea6       ?dtor$174@?0??get_pkcs11_error@@YA?AV?$shared_ptr@V?$basic_string@DU?$char_traits@D@std@@V?$allocator@D@2@@std@@@std@@K@Z@4HA 000000018006aea6 f   pkcs11.obj
 0001:00069eb2       ?dtor$175@?0??get_pkcs11_error@@YA?AV?$shared_ptr@V?$basic_string@DU?$char_traits@D@std@@V?$allocator@D@2@@std@@@std@@K@Z@4HA 000000018006aeb2 f   pkcs11.obj
 0001:00069ecf       ?dtor$176@?0??get_pkcs11_error@@YA?AV?$shared_ptr@V?$basic_string@DU?$char_traits@D@std@@V?$allocator@D@2@@std@@@std@@K@Z@4HA 000000018006aecf f   pkcs11.obj
 0001:00069edb       ?dtor$177@?0??get_pkcs11_error@@YA?AV?$shared_ptr@V?$basic_string@DU?$char_traits@D@std@@V?$allocator@D@2@@std@@@std@@K@Z@4HA 000000018006aedb f   pkcs11.obj
 0001:00069ee7       ?dtor$178@?0??get_pkcs11_error@@YA?AV?$shared_ptr@V?$basic_string@DU?$char_traits@D@std@@V?$allocator@D@2@@std@@@std@@K@Z@4HA 000000018006aee7 f   pkcs11.obj
 0001:00069f04       ?dtor$179@?0??get_pkcs11_error@@YA?AV?$shared_ptr@V?$basic_string@DU?$char_traits@D@std@@V?$allocator@D@2@@std@@@std@@K@Z@4HA 000000018006af04 f   pkcs11.obj
 0001:00069f10       ?dtor$180@?0??get_pkcs11_error@@YA?AV?$shared_ptr@V?$basic_string@DU?$char_traits@D@std@@V?$allocator@D@2@@std@@@std@@K@Z@4HA 000000018006af10 f   pkcs11.obj
 0001:00069f1c       ?dtor$181@?0??get_pkcs11_error@@YA?AV?$shared_ptr@V?$basic_string@DU?$char_traits@D@std@@V?$allocator@D@2@@std@@@std@@K@Z@4HA 000000018006af1c f   pkcs11.obj
 0001:00069f39       ?dtor$182@?0??get_pkcs11_error@@YA?AV?$shared_ptr@V?$basic_string@DU?$char_traits@D@std@@V?$allocator@D@2@@std@@@std@@K@Z@4HA 000000018006af39 f   pkcs11.obj
 0001:00069f45       ?dtor$183@?0??get_pkcs11_error@@YA?AV?$shared_ptr@V?$basic_string@DU?$char_traits@D@std@@V?$allocator@D@2@@std@@@std@@K@Z@4HA 000000018006af45 f   pkcs11.obj
 0001:00069f51       ?dtor$184@?0??get_pkcs11_error@@YA?AV?$shared_ptr@V?$basic_string@DU?$char_traits@D@std@@V?$allocator@D@2@@std@@@std@@K@Z@4HA 000000018006af51 f   pkcs11.obj
 0001:00069f6e       ?dtor$185@?0??get_pkcs11_error@@YA?AV?$shared_ptr@V?$basic_string@DU?$char_traits@D@std@@V?$allocator@D@2@@std@@@std@@K@Z@4HA 000000018006af6e f   pkcs11.obj
 0001:00069f7a       ?dtor$186@?0??get_pkcs11_error@@YA?AV?$shared_ptr@V?$basic_string@DU?$char_traits@D@std@@V?$allocator@D@2@@std@@@std@@K@Z@4HA 000000018006af7a f   pkcs11.obj
 0001:00069f86       ?dtor$187@?0??get_pkcs11_error@@YA?AV?$shared_ptr@V?$basic_string@DU?$char_traits@D@std@@V?$allocator@D@2@@std@@@std@@K@Z@4HA 000000018006af86 f   pkcs11.obj
 0001:00069fa3       ?dtor$188@?0??get_pkcs11_error@@YA?AV?$shared_ptr@V?$basic_string@DU?$char_traits@D@std@@V?$allocator@D@2@@std@@@std@@K@Z@4HA 000000018006afa3 f   pkcs11.obj
 0001:00069faf       ?dtor$189@?0??get_pkcs11_error@@YA?AV?$shared_ptr@V?$basic_string@DU?$char_traits@D@std@@V?$allocator@D@2@@std@@@std@@K@Z@4HA 000000018006afaf f   pkcs11.obj
 0001:00069fbb       ?dtor$190@?0??get_pkcs11_error@@YA?AV?$shared_ptr@V?$basic_string@DU?$char_traits@D@std@@V?$allocator@D@2@@std@@@std@@K@Z@4HA 000000018006afbb f   pkcs11.obj
 0001:00069fd8       ?dtor$191@?0??get_pkcs11_error@@YA?AV?$shared_ptr@V?$basic_string@DU?$char_traits@D@std@@V?$allocator@D@2@@std@@@std@@K@Z@4HA 000000018006afd8 f   pkcs11.obj
 0001:00069fe4       ?dtor$192@?0??get_pkcs11_error@@YA?AV?$shared_ptr@V?$basic_string@DU?$char_traits@D@std@@V?$allocator@D@2@@std@@@std@@K@Z@4HA 000000018006afe4 f   pkcs11.obj
 0001:00069ff0       ?dtor$193@?0??get_pkcs11_error@@YA?AV?$shared_ptr@V?$basic_string@DU?$char_traits@D@std@@V?$allocator@D@2@@std@@@std@@K@Z@4HA 000000018006aff0 f   pkcs11.obj
 0001:0006a00d       ?dtor$194@?0??get_pkcs11_error@@YA?AV?$shared_ptr@V?$basic_string@DU?$char_traits@D@std@@V?$allocator@D@2@@std@@@std@@K@Z@4HA 000000018006b00d f   pkcs11.obj
 0001:0006a019       ?dtor$195@?0??get_pkcs11_error@@YA?AV?$shared_ptr@V?$basic_string@DU?$char_traits@D@std@@V?$allocator@D@2@@std@@@std@@K@Z@4HA 000000018006b019 f   pkcs11.obj
 0001:0006a025       ?dtor$196@?0??get_pkcs11_error@@YA?AV?$shared_ptr@V?$basic_string@DU?$char_traits@D@std@@V?$allocator@D@2@@std@@@std@@K@Z@4HA 000000018006b025 f   pkcs11.obj
 0001:0006a042       ?dtor$197@?0??get_pkcs11_error@@YA?AV?$shared_ptr@V?$basic_string@DU?$char_traits@D@std@@V?$allocator@D@2@@std@@@std@@K@Z@4HA 000000018006b042 f   pkcs11.obj
 0001:0006a04e       ?dtor$198@?0??get_pkcs11_error@@YA?AV?$shared_ptr@V?$basic_string@DU?$char_traits@D@std@@V?$allocator@D@2@@std@@@std@@K@Z@4HA 000000018006b04e f   pkcs11.obj
 0001:0006a05a       ?dtor$199@?0??get_pkcs11_error@@YA?AV?$shared_ptr@V?$basic_string@DU?$char_traits@D@std@@V?$allocator@D@2@@std@@@std@@K@Z@4HA 000000018006b05a f   pkcs11.obj
 0001:0006a077       ?dtor$200@?0??get_pkcs11_error@@YA?AV?$shared_ptr@V?$basic_string@DU?$char_traits@D@std@@V?$allocator@D@2@@std@@@std@@K@Z@4HA 000000018006b077 f   pkcs11.obj
 0001:0006a083       ?dtor$201@?0??get_pkcs11_error@@YA?AV?$shared_ptr@V?$basic_string@DU?$char_traits@D@std@@V?$allocator@D@2@@std@@@std@@K@Z@4HA 000000018006b083 f   pkcs11.obj
 0001:0006a08f       ?dtor$202@?0??get_pkcs11_error@@YA?AV?$shared_ptr@V?$basic_string@DU?$char_traits@D@std@@V?$allocator@D@2@@std@@@std@@K@Z@4HA 000000018006b08f f   pkcs11.obj
 0001:0006a0ac       ?dtor$203@?0??get_pkcs11_error@@YA?AV?$shared_ptr@V?$basic_string@DU?$char_traits@D@std@@V?$allocator@D@2@@std@@@std@@K@Z@4HA 000000018006b0ac f   pkcs11.obj
 0001:0006a0b8       ?dtor$204@?0??get_pkcs11_error@@YA?AV?$shared_ptr@V?$basic_string@DU?$char_traits@D@std@@V?$allocator@D@2@@std@@@std@@K@Z@4HA 000000018006b0b8 f   pkcs11.obj
 0001:0006a0c4       ?dtor$205@?0??get_pkcs11_error@@YA?AV?$shared_ptr@V?$basic_string@DU?$char_traits@D@std@@V?$allocator@D@2@@std@@@std@@K@Z@4HA 000000018006b0c4 f   pkcs11.obj
 0001:0006a0e1       ?dtor$206@?0??get_pkcs11_error@@YA?AV?$shared_ptr@V?$basic_string@DU?$char_traits@D@std@@V?$allocator@D@2@@std@@@std@@K@Z@4HA 000000018006b0e1 f   pkcs11.obj
 0001:0006a0ed       ?dtor$207@?0??get_pkcs11_error@@YA?AV?$shared_ptr@V?$basic_string@DU?$char_traits@D@std@@V?$allocator@D@2@@std@@@std@@K@Z@4HA 000000018006b0ed f   pkcs11.obj
 0001:0006a0f9       ?dtor$208@?0??get_pkcs11_error@@YA?AV?$shared_ptr@V?$basic_string@DU?$char_traits@D@std@@V?$allocator@D@2@@std@@@std@@K@Z@4HA 000000018006b0f9 f   pkcs11.obj
 0001:0006a116       ?dtor$209@?0??get_pkcs11_error@@YA?AV?$shared_ptr@V?$basic_string@DU?$char_traits@D@std@@V?$allocator@D@2@@std@@@std@@K@Z@4HA 000000018006b116 f   pkcs11.obj
 0001:0006a122       ?dtor$210@?0??get_pkcs11_error@@YA?AV?$shared_ptr@V?$basic_string@DU?$char_traits@D@std@@V?$allocator@D@2@@std@@@std@@K@Z@4HA 000000018006b122 f   pkcs11.obj
 0001:0006a12e       ?dtor$211@?0??get_pkcs11_error@@YA?AV?$shared_ptr@V?$basic_string@DU?$char_traits@D@std@@V?$allocator@D@2@@std@@@std@@K@Z@4HA 000000018006b12e f   pkcs11.obj
 0001:0006a14b       ?dtor$212@?0??get_pkcs11_error@@YA?AV?$shared_ptr@V?$basic_string@DU?$char_traits@D@std@@V?$allocator@D@2@@std@@@std@@K@Z@4HA 000000018006b14b f   pkcs11.obj
 0001:0006a157       ?dtor$213@?0??get_pkcs11_error@@YA?AV?$shared_ptr@V?$basic_string@DU?$char_traits@D@std@@V?$allocator@D@2@@std@@@std@@K@Z@4HA 000000018006b157 f   pkcs11.obj
 0001:0006a163       ?dtor$214@?0??get_pkcs11_error@@YA?AV?$shared_ptr@V?$basic_string@DU?$char_traits@D@std@@V?$allocator@D@2@@std@@@std@@K@Z@4HA 000000018006b163 f   pkcs11.obj
 0001:0006a180       ?dtor$215@?0??get_pkcs11_error@@YA?AV?$shared_ptr@V?$basic_string@DU?$char_traits@D@std@@V?$allocator@D@2@@std@@@std@@K@Z@4HA 000000018006b180 f   pkcs11.obj
 0001:0006a18c       ?dtor$216@?0??get_pkcs11_error@@YA?AV?$shared_ptr@V?$basic_string@DU?$char_traits@D@std@@V?$allocator@D@2@@std@@@std@@K@Z@4HA 000000018006b18c f   pkcs11.obj
 0001:0006a198       ?dtor$217@?0??get_pkcs11_error@@YA?AV?$shared_ptr@V?$basic_string@DU?$char_traits@D@std@@V?$allocator@D@2@@std@@@std@@K@Z@4HA 000000018006b198 f   pkcs11.obj
 0001:0006a1b5       ?dtor$218@?0??get_pkcs11_error@@YA?AV?$shared_ptr@V?$basic_string@DU?$char_traits@D@std@@V?$allocator@D@2@@std@@@std@@K@Z@4HA 000000018006b1b5 f   pkcs11.obj
 0001:0006a1c1       ?dtor$219@?0??get_pkcs11_error@@YA?AV?$shared_ptr@V?$basic_string@DU?$char_traits@D@std@@V?$allocator@D@2@@std@@@std@@K@Z@4HA 000000018006b1c1 f   pkcs11.obj
 0001:0006a1cd       ?dtor$220@?0??get_pkcs11_error@@YA?AV?$shared_ptr@V?$basic_string@DU?$char_traits@D@std@@V?$allocator@D@2@@std@@@std@@K@Z@4HA 000000018006b1cd f   pkcs11.obj
 0001:0006a1ea       ?dtor$221@?0??get_pkcs11_error@@YA?AV?$shared_ptr@V?$basic_string@DU?$char_traits@D@std@@V?$allocator@D@2@@std@@@std@@K@Z@4HA 000000018006b1ea f   pkcs11.obj
 0001:0006a1f6       ?dtor$222@?0??get_pkcs11_error@@YA?AV?$shared_ptr@V?$basic_string@DU?$char_traits@D@std@@V?$allocator@D@2@@std@@@std@@K@Z@4HA 000000018006b1f6 f   pkcs11.obj
 0001:0006a202       ?dtor$223@?0??get_pkcs11_error@@YA?AV?$shared_ptr@V?$basic_string@DU?$char_traits@D@std@@V?$allocator@D@2@@std@@@std@@K@Z@4HA 000000018006b202 f   pkcs11.obj
 0001:0006a21f       ?dtor$224@?0??get_pkcs11_error@@YA?AV?$shared_ptr@V?$basic_string@DU?$char_traits@D@std@@V?$allocator@D@2@@std@@@std@@K@Z@4HA 000000018006b21f f   pkcs11.obj
 0001:0006a22b       ?dtor$225@?0??get_pkcs11_error@@YA?AV?$shared_ptr@V?$basic_string@DU?$char_traits@D@std@@V?$allocator@D@2@@std@@@std@@K@Z@4HA 000000018006b22b f   pkcs11.obj
 0001:0006a237       ?dtor$226@?0??get_pkcs11_error@@YA?AV?$shared_ptr@V?$basic_string@DU?$char_traits@D@std@@V?$allocator@D@2@@std@@@std@@K@Z@4HA 000000018006b237 f   pkcs11.obj
 0001:0006a254       ?dtor$227@?0??get_pkcs11_error@@YA?AV?$shared_ptr@V?$basic_string@DU?$char_traits@D@std@@V?$allocator@D@2@@std@@@std@@K@Z@4HA 000000018006b254 f   pkcs11.obj
 0001:0006a260       ?dtor$228@?0??get_pkcs11_error@@YA?AV?$shared_ptr@V?$basic_string@DU?$char_traits@D@std@@V?$allocator@D@2@@std@@@std@@K@Z@4HA 000000018006b260 f   pkcs11.obj
 0001:0006a26c       ?dtor$229@?0??get_pkcs11_error@@YA?AV?$shared_ptr@V?$basic_string@DU?$char_traits@D@std@@V?$allocator@D@2@@std@@@std@@K@Z@4HA 000000018006b26c f   pkcs11.obj
 0001:0006a289       ?dtor$230@?0??get_pkcs11_error@@YA?AV?$shared_ptr@V?$basic_string@DU?$char_traits@D@std@@V?$allocator@D@2@@std@@@std@@K@Z@4HA 000000018006b289 f   pkcs11.obj
 0001:0006a295       ?dtor$231@?0??get_pkcs11_error@@YA?AV?$shared_ptr@V?$basic_string@DU?$char_traits@D@std@@V?$allocator@D@2@@std@@@std@@K@Z@4HA 000000018006b295 f   pkcs11.obj
 0001:0006a2a1       ?dtor$232@?0??get_pkcs11_error@@YA?AV?$shared_ptr@V?$basic_string@DU?$char_traits@D@std@@V?$allocator@D@2@@std@@@std@@K@Z@4HA 000000018006b2a1 f   pkcs11.obj
 0001:0006a2be       ?dtor$233@?0??get_pkcs11_error@@YA?AV?$shared_ptr@V?$basic_string@DU?$char_traits@D@std@@V?$allocator@D@2@@std@@@std@@K@Z@4HA 000000018006b2be f   pkcs11.obj
 0001:0006a2ca       ?dtor$234@?0??get_pkcs11_error@@YA?AV?$shared_ptr@V?$basic_string@DU?$char_traits@D@std@@V?$allocator@D@2@@std@@@std@@K@Z@4HA 000000018006b2ca f   pkcs11.obj
 0001:0006a2d6       ?dtor$235@?0??get_pkcs11_error@@YA?AV?$shared_ptr@V?$basic_string@DU?$char_traits@D@std@@V?$allocator@D@2@@std@@@std@@K@Z@4HA 000000018006b2d6 f   pkcs11.obj
 0001:0006a2f3       ?dtor$236@?0??get_pkcs11_error@@YA?AV?$shared_ptr@V?$basic_string@DU?$char_traits@D@std@@V?$allocator@D@2@@std@@@std@@K@Z@4HA 000000018006b2f3 f   pkcs11.obj
 0001:0006a2ff       ?dtor$237@?0??get_pkcs11_error@@YA?AV?$shared_ptr@V?$basic_string@DU?$char_traits@D@std@@V?$allocator@D@2@@std@@@std@@K@Z@4HA 000000018006b2ff f   pkcs11.obj
 0001:0006a30b       ?dtor$238@?0??get_pkcs11_error@@YA?AV?$shared_ptr@V?$basic_string@DU?$char_traits@D@std@@V?$allocator@D@2@@std@@@std@@K@Z@4HA 000000018006b30b f   pkcs11.obj
 0001:0006a328       ?dtor$239@?0??get_pkcs11_error@@YA?AV?$shared_ptr@V?$basic_string@DU?$char_traits@D@std@@V?$allocator@D@2@@std@@@std@@K@Z@4HA 000000018006b328 f   pkcs11.obj
 0001:0006a334       ?dtor$240@?0??get_pkcs11_error@@YA?AV?$shared_ptr@V?$basic_string@DU?$char_traits@D@std@@V?$allocator@D@2@@std@@@std@@K@Z@4HA 000000018006b334 f   pkcs11.obj
 0001:0006a340       ?dtor$241@?0??get_pkcs11_error@@YA?AV?$shared_ptr@V?$basic_string@DU?$char_traits@D@std@@V?$allocator@D@2@@std@@@std@@K@Z@4HA 000000018006b340 f   pkcs11.obj
 0001:0006a35d       ?dtor$242@?0??get_pkcs11_error@@YA?AV?$shared_ptr@V?$basic_string@DU?$char_traits@D@std@@V?$allocator@D@2@@std@@@std@@K@Z@4HA 000000018006b35d f   pkcs11.obj
 0001:0006a369       ?dtor$243@?0??get_pkcs11_error@@YA?AV?$shared_ptr@V?$basic_string@DU?$char_traits@D@std@@V?$allocator@D@2@@std@@@std@@K@Z@4HA 000000018006b369 f   pkcs11.obj
 0001:0006a375       ?dtor$244@?0??get_pkcs11_error@@YA?AV?$shared_ptr@V?$basic_string@DU?$char_traits@D@std@@V?$allocator@D@2@@std@@@std@@K@Z@4HA 000000018006b375 f   pkcs11.obj
 0001:0006a392       ?dtor$245@?0??get_pkcs11_error@@YA?AV?$shared_ptr@V?$basic_string@DU?$char_traits@D@std@@V?$allocator@D@2@@std@@@std@@K@Z@4HA 000000018006b392 f   pkcs11.obj
 0001:0006a39e       ?dtor$246@?0??get_pkcs11_error@@YA?AV?$shared_ptr@V?$basic_string@DU?$char_traits@D@std@@V?$allocator@D@2@@std@@@std@@K@Z@4HA 000000018006b39e f   pkcs11.obj
 0001:0006a3aa       ?dtor$247@?0??get_pkcs11_error@@YA?AV?$shared_ptr@V?$basic_string@DU?$char_traits@D@std@@V?$allocator@D@2@@std@@@std@@K@Z@4HA 000000018006b3aa f   pkcs11.obj
 0001:0006a3c7       ?dtor$248@?0??get_pkcs11_error@@YA?AV?$shared_ptr@V?$basic_string@DU?$char_traits@D@std@@V?$allocator@D@2@@std@@@std@@K@Z@4HA 000000018006b3c7 f   pkcs11.obj
 0001:0006a3d3       ?dtor$249@?0??get_pkcs11_error@@YA?AV?$shared_ptr@V?$basic_string@DU?$char_traits@D@std@@V?$allocator@D@2@@std@@@std@@K@Z@4HA 000000018006b3d3 f   pkcs11.obj
 0001:0006a3df       ?dtor$250@?0??get_pkcs11_error@@YA?AV?$shared_ptr@V?$basic_string@DU?$char_traits@D@std@@V?$allocator@D@2@@std@@@std@@K@Z@4HA 000000018006b3df f   pkcs11.obj
 0001:0006a3fc       ?dtor$251@?0??get_pkcs11_error@@YA?AV?$shared_ptr@V?$basic_string@DU?$char_traits@D@std@@V?$allocator@D@2@@std@@@std@@K@Z@4HA 000000018006b3fc f   pkcs11.obj
 0001:0006a408       ?dtor$252@?0??get_pkcs11_error@@YA?AV?$shared_ptr@V?$basic_string@DU?$char_traits@D@std@@V?$allocator@D@2@@std@@@std@@K@Z@4HA 000000018006b408 f   pkcs11.obj
 0001:0006a414       ?dtor$253@?0??get_pkcs11_error@@YA?AV?$shared_ptr@V?$basic_string@DU?$char_traits@D@std@@V?$allocator@D@2@@std@@@std@@K@Z@4HA 000000018006b414 f   pkcs11.obj
 0001:0006a431       ?dtor$254@?0??get_pkcs11_error@@YA?AV?$shared_ptr@V?$basic_string@DU?$char_traits@D@std@@V?$allocator@D@2@@std@@@std@@K@Z@4HA 000000018006b431 f   pkcs11.obj
 0001:0006a43d       ?dtor$255@?0??get_pkcs11_error@@YA?AV?$shared_ptr@V?$basic_string@DU?$char_traits@D@std@@V?$allocator@D@2@@std@@@std@@K@Z@4HA 000000018006b43d f   pkcs11.obj
 0001:0006a449       ?dtor$256@?0??get_pkcs11_error@@YA?AV?$shared_ptr@V?$basic_string@DU?$char_traits@D@std@@V?$allocator@D@2@@std@@@std@@K@Z@4HA 000000018006b449 f   pkcs11.obj
 0001:0006a466       ?dtor$257@?0??get_pkcs11_error@@YA?AV?$shared_ptr@V?$basic_string@DU?$char_traits@D@std@@V?$allocator@D@2@@std@@@std@@K@Z@4HA 000000018006b466 f   pkcs11.obj
 0001:0006a472       ?dtor$258@?0??get_pkcs11_error@@YA?AV?$shared_ptr@V?$basic_string@DU?$char_traits@D@std@@V?$allocator@D@2@@std@@@std@@K@Z@4HA 000000018006b472 f   pkcs11.obj
 0001:0006a47e       ?dtor$259@?0??get_pkcs11_error@@YA?AV?$shared_ptr@V?$basic_string@DU?$char_traits@D@std@@V?$allocator@D@2@@std@@@std@@K@Z@4HA 000000018006b47e f   pkcs11.obj
 0001:0006a49b       ?dtor$260@?0??get_pkcs11_error@@YA?AV?$shared_ptr@V?$basic_string@DU?$char_traits@D@std@@V?$allocator@D@2@@std@@@std@@K@Z@4HA 000000018006b49b f   pkcs11.obj
 0001:0006a4a7       ?dtor$261@?0??get_pkcs11_error@@YA?AV?$shared_ptr@V?$basic_string@DU?$char_traits@D@std@@V?$allocator@D@2@@std@@@std@@K@Z@4HA 000000018006b4a7 f   pkcs11.obj
 0001:0006a4b3       ?dtor$262@?0??get_pkcs11_error@@YA?AV?$shared_ptr@V?$basic_string@DU?$char_traits@D@std@@V?$allocator@D@2@@std@@@std@@K@Z@4HA 000000018006b4b3 f   pkcs11.obj
 0001:0006a4d0       ?dtor$263@?0??get_pkcs11_error@@YA?AV?$shared_ptr@V?$basic_string@DU?$char_traits@D@std@@V?$allocator@D@2@@std@@@std@@K@Z@4HA 000000018006b4d0 f   pkcs11.obj
 0001:0006a4dc       ?dtor$264@?0??get_pkcs11_error@@YA?AV?$shared_ptr@V?$basic_string@DU?$char_traits@D@std@@V?$allocator@D@2@@std@@@std@@K@Z@4HA 000000018006b4dc f   pkcs11.obj
 0001:0006a4e8       ?dtor$265@?0??get_pkcs11_error@@YA?AV?$shared_ptr@V?$basic_string@DU?$char_traits@D@std@@V?$allocator@D@2@@std@@@std@@K@Z@4HA 000000018006b4e8 f   pkcs11.obj
 0001:0006a505       ?dtor$266@?0??get_pkcs11_error@@YA?AV?$shared_ptr@V?$basic_string@DU?$char_traits@D@std@@V?$allocator@D@2@@std@@@std@@K@Z@4HA 000000018006b505 f   pkcs11.obj
 0001:0006a511       ?dtor$267@?0??get_pkcs11_error@@YA?AV?$shared_ptr@V?$basic_string@DU?$char_traits@D@std@@V?$allocator@D@2@@std@@@std@@K@Z@4HA 000000018006b511 f   pkcs11.obj
 0001:0006a51d       ?dtor$268@?0??get_pkcs11_error@@YA?AV?$shared_ptr@V?$basic_string@DU?$char_traits@D@std@@V?$allocator@D@2@@std@@@std@@K@Z@4HA 000000018006b51d f   pkcs11.obj
 0001:0006a53a       ?dtor$269@?0??get_pkcs11_error@@YA?AV?$shared_ptr@V?$basic_string@DU?$char_traits@D@std@@V?$allocator@D@2@@std@@@std@@K@Z@4HA 000000018006b53a f   pkcs11.obj
 0001:0006a546       ?dtor$270@?0??get_pkcs11_error@@YA?AV?$shared_ptr@V?$basic_string@DU?$char_traits@D@std@@V?$allocator@D@2@@std@@@std@@K@Z@4HA 000000018006b546 f   pkcs11.obj
 0001:0006a552       ?dtor$271@?0??get_pkcs11_error@@YA?AV?$shared_ptr@V?$basic_string@DU?$char_traits@D@std@@V?$allocator@D@2@@std@@@std@@K@Z@4HA 000000018006b552 f   pkcs11.obj
 0001:0006a56f       ?dtor$272@?0??get_pkcs11_error@@YA?AV?$shared_ptr@V?$basic_string@DU?$char_traits@D@std@@V?$allocator@D@2@@std@@@std@@K@Z@4HA 000000018006b56f f   pkcs11.obj
 0001:0006a57b       ?dtor$273@?0??get_pkcs11_error@@YA?AV?$shared_ptr@V?$basic_string@DU?$char_traits@D@std@@V?$allocator@D@2@@std@@@std@@K@Z@4HA 000000018006b57b f   pkcs11.obj
 0001:0006a587       ?dtor$274@?0??get_pkcs11_error@@YA?AV?$shared_ptr@V?$basic_string@DU?$char_traits@D@std@@V?$allocator@D@2@@std@@@std@@K@Z@4HA 000000018006b587 f   pkcs11.obj
 0001:0006a5a4       ?dtor$275@?0??get_pkcs11_error@@YA?AV?$shared_ptr@V?$basic_string@DU?$char_traits@D@std@@V?$allocator@D@2@@std@@@std@@K@Z@4HA 000000018006b5a4 f   pkcs11.obj
 0001:0006a5b0       ?dtor$276@?0??get_pkcs11_error@@YA?AV?$shared_ptr@V?$basic_string@DU?$char_traits@D@std@@V?$allocator@D@2@@std@@@std@@K@Z@4HA 000000018006b5b0 f   pkcs11.obj
 0001:0006a5bc       ?dtor$277@?0??get_pkcs11_error@@YA?AV?$shared_ptr@V?$basic_string@DU?$char_traits@D@std@@V?$allocator@D@2@@std@@@std@@K@Z@4HA 000000018006b5bc f   pkcs11.obj
 0001:0006a5d9       ?dtor$278@?0??get_pkcs11_error@@YA?AV?$shared_ptr@V?$basic_string@DU?$char_traits@D@std@@V?$allocator@D@2@@std@@@std@@K@Z@4HA 000000018006b5d9 f   pkcs11.obj
 0001:0006a5e5       ?dtor$279@?0??get_pkcs11_error@@YA?AV?$shared_ptr@V?$basic_string@DU?$char_traits@D@std@@V?$allocator@D@2@@std@@@std@@K@Z@4HA 000000018006b5e5 f   pkcs11.obj
 0001:0006a5f1       ?dtor$280@?0??get_pkcs11_error@@YA?AV?$shared_ptr@V?$basic_string@DU?$char_traits@D@std@@V?$allocator@D@2@@std@@@std@@K@Z@4HA 000000018006b5f1 f   pkcs11.obj
 0001:0006a60e       ?dtor$281@?0??get_pkcs11_error@@YA?AV?$shared_ptr@V?$basic_string@DU?$char_traits@D@std@@V?$allocator@D@2@@std@@@std@@K@Z@4HA 000000018006b60e f   pkcs11.obj
 0001:0006a61a       ?dtor$282@?0??get_pkcs11_error@@YA?AV?$shared_ptr@V?$basic_string@DU?$char_traits@D@std@@V?$allocator@D@2@@std@@@std@@K@Z@4HA 000000018006b61a f   pkcs11.obj
 0001:0006a626       ?dtor$283@?0??get_pkcs11_error@@YA?AV?$shared_ptr@V?$basic_string@DU?$char_traits@D@std@@V?$allocator@D@2@@std@@@std@@K@Z@4HA 000000018006b626 f   pkcs11.obj
 0001:0006a640       ?dtor$0@?0??Load@PKCS11@@QEAAXV?$shared_ptr@V?$basic_string@DU?$char_traits@D@std@@V?$allocator@D@2@@std@@@std@@@Z@4HA 000000018006b640 f   pkcs11.obj
 0001:0006a64c       ?dtor$1@?0??Load@PKCS11@@QEAAXV?$shared_ptr@V?$basic_string@DU?$char_traits@D@std@@V?$allocator@D@2@@std@@@std@@@Z@4HA 000000018006b64c f   pkcs11.obj
 0001:0006a66c       ?dtor$3@?0??Load@PKCS11@@QEAAXV?$shared_ptr@V?$basic_string@DU?$char_traits@D@std@@V?$allocator@D@2@@std@@@std@@@Z@4HA 000000018006b66c f   pkcs11.obj
 0001:0006a68c       ?dtor$5@?0??Load@PKCS11@@QEAAXV?$shared_ptr@V?$basic_string@DU?$char_traits@D@std@@V?$allocator@D@2@@std@@@std@@@Z@4HA 000000018006b68c f   pkcs11.obj
 0001:0006a6ac       ?dtor$6@?0??Load@PKCS11@@QEAAXV?$shared_ptr@V?$basic_string@DU?$char_traits@D@std@@V?$allocator@D@2@@std@@@std@@@Z@4HA 000000018006b6ac f   pkcs11.obj
 0001:0006a6b8       ?dtor$7@?0??Load@PKCS11@@QEAAXV?$shared_ptr@V?$basic_string@DU?$char_traits@D@std@@V?$allocator@D@2@@std@@@std@@@Z@4HA 000000018006b6b8 f   pkcs11.obj
 0001:0006a6e7       ?catch$17@?0??Load@PKCS11@@QEAAXV?$shared_ptr@V?$basic_string@DU?$char_traits@D@std@@V?$allocator@D@2@@std@@@std@@@Z@4HA 000000018006b6e7 f   pkcs11.obj
 0001:0006a6f4       __catch$?Load@PKCS11@@QEAAXV?$shared_ptr@V?$basic_string@DU?$char_traits@D@std@@V?$allocator@D@2@@std@@@std@@@Z$0 000000018006b6f4 f   pkcs11.obj
 0001:0006a723       ?dtor$8@?0??Load@PKCS11@@QEAAXV?$shared_ptr@V?$basic_string@DU?$char_traits@D@std@@V?$allocator@D@2@@std@@@std@@@Z@4HA 000000018006b723 f   pkcs11.obj
 0001:0006a72f       ?catch$18@?0??Load@PKCS11@@QEAAXV?$shared_ptr@V?$basic_string@DU?$char_traits@D@std@@V?$allocator@D@2@@std@@@std@@@Z@4HA 000000018006b72f f   pkcs11.obj
 0001:0006a73c       __catch$?Load@PKCS11@@QEAAXV?$shared_ptr@V?$basic_string@DU?$char_traits@D@std@@V?$allocator@D@2@@std@@@std@@@Z$1 000000018006b73c f   pkcs11.obj
 0001:0006a7a1       ?dtor$9@?0??Load@PKCS11@@QEAAXV?$shared_ptr@V?$basic_string@DU?$char_traits@D@std@@V?$allocator@D@2@@std@@@std@@@Z@4HA 000000018006b7a1 f   pkcs11.obj
 0001:0006a7d0       ?dtor$0@?0??C_Initialize@PKCS11@@QEAAXPEAX@Z@4HA 000000018006b7d0 f   pkcs11.obj
 0001:0006a7f0       ?dtor$1@?0??C_Initialize@PKCS11@@QEAAXPEAX@Z@4HA 000000018006b7f0 f   pkcs11.obj
 0001:0006a7fc       ?dtor$2@?0??C_Initialize@PKCS11@@QEAAXPEAX@Z@4HA 000000018006b7fc f   pkcs11.obj
 0001:0006a828       ?catch$8@?0??C_Initialize@PKCS11@@QEAAXPEAX@Z@4HA 000000018006b828 f   pkcs11.obj
 0001:0006a835       __catch$?C_Initialize@PKCS11@@QEAAXPEAX@Z$0 000000018006b835 f   pkcs11.obj
 0001:0006a85e       ?dtor$3@?0??C_Initialize@PKCS11@@QEAAXPEAX@Z@4HA 000000018006b85e f   pkcs11.obj
 0001:0006a86a       ?catch$9@?0??C_Initialize@PKCS11@@QEAAXPEAX@Z@4HA 000000018006b86a f   pkcs11.obj
 0001:0006a877       __catch$?C_Initialize@PKCS11@@QEAAXPEAX@Z$1 000000018006b877 f   pkcs11.obj
 0001:0006a8d3       ?dtor$4@?0??C_Initialize@PKCS11@@QEAAXPEAX@Z@4HA 000000018006b8d3 f   pkcs11.obj
 0001:0006a900       ?dtor$0@?0??C_Finalize@PKCS11@@QEAAXXZ@4HA 000000018006b900 f   pkcs11.obj
 0001:0006a920       ?dtor$1@?0??C_Finalize@PKCS11@@QEAAXXZ@4HA 000000018006b920 f   pkcs11.obj
 0001:0006a92c       ?dtor$2@?0??C_Finalize@PKCS11@@QEAAXXZ@4HA 000000018006b92c f   pkcs11.obj
 0001:0006a958       ?catch$8@?0??C_Finalize@PKCS11@@QEAAXXZ@4HA 000000018006b958 f   pkcs11.obj
 0001:0006a965       __catch$?C_Finalize@PKCS11@@QEAAXXZ$0 000000018006b965 f   pkcs11.obj
 0001:0006a98e       ?dtor$3@?0??C_Finalize@PKCS11@@QEAAXXZ@4HA 000000018006b98e f   pkcs11.obj
 0001:0006a99a       ?catch$9@?0??C_Finalize@PKCS11@@QEAAXXZ@4HA 000000018006b99a f   pkcs11.obj
 0001:0006a9a7       __catch$?C_Finalize@PKCS11@@QEAAXXZ$1 000000018006b9a7 f   pkcs11.obj
 0001:0006aa03       ?dtor$4@?0??C_Finalize@PKCS11@@QEAAXXZ@4HA 000000018006ba03 f   pkcs11.obj
 0001:0006aa30       ?dtor$0@?0??C_GetInfo@PKCS11@@QEAA?AV?$shared_ptr@UCK_INFO@@@std@@XZ@4HA 000000018006ba30 f   pkcs11.obj
 0001:0006aa59       ?dtor$1@?0??C_GetInfo@PKCS11@@QEAA?AV?$shared_ptr@UCK_INFO@@@std@@XZ@4HA 000000018006ba59 f   pkcs11.obj
 0001:0006aa79       ?dtor$2@?0??C_GetInfo@PKCS11@@QEAA?AV?$shared_ptr@UCK_INFO@@@std@@XZ@4HA 000000018006ba79 f   pkcs11.obj
 0001:0006aa85       ?dtor$3@?0??C_GetInfo@PKCS11@@QEAA?AV?$shared_ptr@UCK_INFO@@@std@@XZ@4HA 000000018006ba85 f   pkcs11.obj
 0001:0006aaae       ?catch$11@?0??C_GetInfo@PKCS11@@QEAA?AV?$shared_ptr@UCK_INFO@@@std@@XZ@4HA 000000018006baae f   pkcs11.obj
 0001:0006aabb       __catch$?C_GetInfo@PKCS11@@QEAA?AV?$shared_ptr@UCK_INFO@@@std@@XZ$0 000000018006babb f   pkcs11.obj
 0001:0006aae4       ?dtor$4@?0??C_GetInfo@PKCS11@@QEAA?AV?$shared_ptr@UCK_INFO@@@std@@XZ@4HA 000000018006bae4 f   pkcs11.obj
 0001:0006aaf0       ?catch$12@?0??C_GetInfo@PKCS11@@QEAA?AV?$shared_ptr@UCK_INFO@@@std@@XZ@4HA 000000018006baf0 f   pkcs11.obj
 0001:0006aafd       __catch$?C_GetInfo@PKCS11@@QEAA?AV?$shared_ptr@UCK_INFO@@@std@@XZ$1 000000018006bafd f   pkcs11.obj
 0001:0006ab59       ?dtor$5@?0??C_GetInfo@PKCS11@@QEAA?AV?$shared_ptr@UCK_INFO@@@std@@XZ@4HA 000000018006bb59 f   pkcs11.obj
 0001:0006ab80       ?dtor$0@?0??C_GetSlotList@PKCS11@@QEAA?AV?$vector@KV?$allocator@K@std@@@std@@E@Z@4HA 000000018006bb80 f   pkcs11.obj
 0001:0006aba0       ?dtor$1@?0??C_GetSlotList@PKCS11@@QEAA?AV?$vector@KV?$allocator@K@std@@@std@@E@Z@4HA 000000018006bba0 f   pkcs11.obj
 0001:0006abac       ?dtor$2@?0??C_GetSlotList@PKCS11@@QEAA?AV?$vector@KV?$allocator@K@std@@@std@@E@Z@4HA 000000018006bbac f   pkcs11.obj
 0001:0006abd5       ?dtor$3@?0??C_GetSlotList@PKCS11@@QEAA?AV?$vector@KV?$allocator@K@std@@@std@@E@Z@4HA 000000018006bbd5 f   pkcs11.obj
 0001:0006abe1       ?dtor$4@?0??C_GetSlotList@PKCS11@@QEAA?AV?$vector@KV?$allocator@K@std@@@std@@E@Z@4HA 000000018006bbe1 f   pkcs11.obj
 0001:0006ac01       ?dtor$5@?0??C_GetSlotList@PKCS11@@QEAA?AV?$vector@KV?$allocator@K@std@@@std@@E@Z@4HA 000000018006bc01 f   pkcs11.obj
 0001:0006ac0d       ?dtor$6@?0??C_GetSlotList@PKCS11@@QEAA?AV?$vector@KV?$allocator@K@std@@@std@@E@Z@4HA 000000018006bc0d f   pkcs11.obj
 0001:0006ac36       ?catch$14@?0??C_GetSlotList@PKCS11@@QEAA?AV?$vector@KV?$allocator@K@std@@@std@@E@Z@4HA 000000018006bc36 f   pkcs11.obj
 0001:0006ac43       __catch$?C_GetSlotList@PKCS11@@QEAA?AV?$vector@KV?$allocator@K@std@@@std@@E@Z$0 000000018006bc43 f   pkcs11.obj
 0001:0006ac72       ?dtor$8@?0??C_GetSlotList@PKCS11@@QEAA?AV?$vector@KV?$allocator@K@std@@@std@@E@Z@4HA 000000018006bc72 f   pkcs11.obj
 0001:0006ac7e       ?catch$15@?0??C_GetSlotList@PKCS11@@QEAA?AV?$vector@KV?$allocator@K@std@@@std@@E@Z@4HA 000000018006bc7e f   pkcs11.obj
 0001:0006ac8b       __catch$?C_GetSlotList@PKCS11@@QEAA?AV?$vector@KV?$allocator@K@std@@@std@@E@Z$1 000000018006bc8b f   pkcs11.obj
 0001:0006aced       ?dtor$9@?0??C_GetSlotList@PKCS11@@QEAA?AV?$vector@KV?$allocator@K@std@@@std@@E@Z@4HA 000000018006bced f   pkcs11.obj
 0001:0006ad10       ?dtor$0@?0??C_GetSlotInfo@PKCS11@@QEAA?AV?$shared_ptr@UCK_SLOT_INFO@@@std@@K@Z@4HA 000000018006bd10 f   pkcs11.obj
 0001:0006ad39       ?dtor$1@?0??C_GetSlotInfo@PKCS11@@QEAA?AV?$shared_ptr@UCK_SLOT_INFO@@@std@@K@Z@4HA 000000018006bd39 f   pkcs11.obj
 0001:0006ad59       ?dtor$2@?0??C_GetSlotInfo@PKCS11@@QEAA?AV?$shared_ptr@UCK_SLOT_INFO@@@std@@K@Z@4HA 000000018006bd59 f   pkcs11.obj
 0001:0006ad65       ?dtor$3@?0??C_GetSlotInfo@PKCS11@@QEAA?AV?$shared_ptr@UCK_SLOT_INFO@@@std@@K@Z@4HA 000000018006bd65 f   pkcs11.obj
 0001:0006ad8e       ?catch$11@?0??C_GetSlotInfo@PKCS11@@QEAA?AV?$shared_ptr@UCK_SLOT_INFO@@@std@@K@Z@4HA 000000018006bd8e f   pkcs11.obj
 0001:0006ad9b       __catch$?C_GetSlotInfo@PKCS11@@QEAA?AV?$shared_ptr@UCK_SLOT_INFO@@@std@@K@Z$0 000000018006bd9b f   pkcs11.obj
 0001:0006adc4       ?dtor$4@?0??C_GetSlotInfo@PKCS11@@QEAA?AV?$shared_ptr@UCK_SLOT_INFO@@@std@@K@Z@4HA 000000018006bdc4 f   pkcs11.obj
 0001:0006add0       ?catch$12@?0??C_GetSlotInfo@PKCS11@@QEAA?AV?$shared_ptr@UCK_SLOT_INFO@@@std@@K@Z@4HA 000000018006bdd0 f   pkcs11.obj
 0001:0006addd       __catch$?C_GetSlotInfo@PKCS11@@QEAA?AV?$shared_ptr@UCK_SLOT_INFO@@@std@@K@Z$1 000000018006bddd f   pkcs11.obj
 0001:0006ae39       ?dtor$5@?0??C_GetSlotInfo@PKCS11@@QEAA?AV?$shared_ptr@UCK_SLOT_INFO@@@std@@K@Z@4HA 000000018006be39 f   pkcs11.obj
 0001:0006ae60       ?dtor$0@?0??C_GetTokenInfo@PKCS11@@QEAA?AV?$shared_ptr@UCK_TOKEN_INFO@@@std@@K@Z@4HA 000000018006be60 f   pkcs11.obj
 0001:0006ae89       ?dtor$1@?0??C_GetTokenInfo@PKCS11@@QEAA?AV?$shared_ptr@UCK_TOKEN_INFO@@@std@@K@Z@4HA 000000018006be89 f   pkcs11.obj
 0001:0006aea9       ?dtor$2@?0??C_GetTokenInfo@PKCS11@@QEAA?AV?$shared_ptr@UCK_TOKEN_INFO@@@std@@K@Z@4HA 000000018006bea9 f   pkcs11.obj
 0001:0006aeb5       ?dtor$3@?0??C_GetTokenInfo@PKCS11@@QEAA?AV?$shared_ptr@UCK_TOKEN_INFO@@@std@@K@Z@4HA 000000018006beb5 f   pkcs11.obj
 0001:0006aede       ?catch$11@?0??C_GetTokenInfo@PKCS11@@QEAA?AV?$shared_ptr@UCK_TOKEN_INFO@@@std@@K@Z@4HA 000000018006bede f   pkcs11.obj
 0001:0006aeeb       __catch$?C_GetTokenInfo@PKCS11@@QEAA?AV?$shared_ptr@UCK_TOKEN_INFO@@@std@@K@Z$0 000000018006beeb f   pkcs11.obj
 0001:0006af14       ?dtor$4@?0??C_GetTokenInfo@PKCS11@@QEAA?AV?$shared_ptr@UCK_TOKEN_INFO@@@std@@K@Z@4HA 000000018006bf14 f   pkcs11.obj
 0001:0006af20       ?catch$12@?0??C_GetTokenInfo@PKCS11@@QEAA?AV?$shared_ptr@UCK_TOKEN_INFO@@@std@@K@Z@4HA 000000018006bf20 f   pkcs11.obj
 0001:0006af2d       __catch$?C_GetTokenInfo@PKCS11@@QEAA?AV?$shared_ptr@UCK_TOKEN_INFO@@@std@@K@Z$1 000000018006bf2d f   pkcs11.obj
 0001:0006af89       ?dtor$5@?0??C_GetTokenInfo@PKCS11@@QEAA?AV?$shared_ptr@UCK_TOKEN_INFO@@@std@@K@Z@4HA 000000018006bf89 f   pkcs11.obj
 0001:0006afb0       ?dtor$0@?0??C_GetMechanismList@PKCS11@@QEAA?AV?$vector@KV?$allocator@K@std@@@std@@K@Z@4HA 000000018006bfb0 f   pkcs11.obj
 0001:0006afd0       ?dtor$1@?0??C_GetMechanismList@PKCS11@@QEAA?AV?$vector@KV?$allocator@K@std@@@std@@K@Z@4HA 000000018006bfd0 f   pkcs11.obj
 0001:0006afdc       ?dtor$2@?0??C_GetMechanismList@PKCS11@@QEAA?AV?$vector@KV?$allocator@K@std@@@std@@K@Z@4HA 000000018006bfdc f   pkcs11.obj
 0001:0006b005       ?dtor$3@?0??C_GetMechanismList@PKCS11@@QEAA?AV?$vector@KV?$allocator@K@std@@@std@@K@Z@4HA 000000018006c005 f   pkcs11.obj
 0001:0006b011       ?dtor$4@?0??C_GetMechanismList@PKCS11@@QEAA?AV?$vector@KV?$allocator@K@std@@@std@@K@Z@4HA 000000018006c011 f   pkcs11.obj
 0001:0006b031       ?dtor$5@?0??C_GetMechanismList@PKCS11@@QEAA?AV?$vector@KV?$allocator@K@std@@@std@@K@Z@4HA 000000018006c031 f   pkcs11.obj
 0001:0006b03d       ?dtor$6@?0??C_GetMechanismList@PKCS11@@QEAA?AV?$vector@KV?$allocator@K@std@@@std@@K@Z@4HA 000000018006c03d f   pkcs11.obj
 0001:0006b066       ?catch$14@?0??C_GetMechanismList@PKCS11@@QEAA?AV?$vector@KV?$allocator@K@std@@@std@@K@Z@4HA 000000018006c066 f   pkcs11.obj
 0001:0006b073       __catch$?C_GetMechanismList@PKCS11@@QEAA?AV?$vector@KV?$allocator@K@std@@@std@@K@Z$0 000000018006c073 f   pkcs11.obj
 0001:0006b0a2       ?dtor$8@?0??C_GetMechanismList@PKCS11@@QEAA?AV?$vector@KV?$allocator@K@std@@@std@@K@Z@4HA 000000018006c0a2 f   pkcs11.obj
 0001:0006b0ae       ?catch$15@?0??C_GetMechanismList@PKCS11@@QEAA?AV?$vector@KV?$allocator@K@std@@@std@@K@Z@4HA 000000018006c0ae f   pkcs11.obj
 0001:0006b0bb       __catch$?C_GetMechanismList@PKCS11@@QEAA?AV?$vector@KV?$allocator@K@std@@@std@@K@Z$1 000000018006c0bb f   pkcs11.obj
 0001:0006b11d       ?dtor$9@?0??C_GetMechanismList@PKCS11@@QEAA?AV?$vector@KV?$allocator@K@std@@@std@@K@Z@4HA 000000018006c11d f   pkcs11.obj
 0001:0006b140       ?dtor$0@?0??C_GetMechanismInfo@PKCS11@@QEAA?AV?$shared_ptr@UCK_MECHANISM_INFO@@@std@@KK@Z@4HA 000000018006c140 f   pkcs11.obj
 0001:0006b169       ?dtor$1@?0??C_GetMechanismInfo@PKCS11@@QEAA?AV?$shared_ptr@UCK_MECHANISM_INFO@@@std@@KK@Z@4HA 000000018006c169 f   pkcs11.obj
 0001:0006b186       ?dtor$2@?0??C_GetMechanismInfo@PKCS11@@QEAA?AV?$shared_ptr@UCK_MECHANISM_INFO@@@std@@KK@Z@4HA 000000018006c186 f   pkcs11.obj
 0001:0006b192       ?dtor$3@?0??C_GetMechanismInfo@PKCS11@@QEAA?AV?$shared_ptr@UCK_MECHANISM_INFO@@@std@@KK@Z@4HA 000000018006c192 f   pkcs11.obj
 0001:0006b1bb       ?catch$11@?0??C_GetMechanismInfo@PKCS11@@QEAA?AV?$shared_ptr@UCK_MECHANISM_INFO@@@std@@KK@Z@4HA 000000018006c1bb f   pkcs11.obj
 0001:0006b1c8       __catch$?C_GetMechanismInfo@PKCS11@@QEAA?AV?$shared_ptr@UCK_MECHANISM_INFO@@@std@@KK@Z$0 000000018006c1c8 f   pkcs11.obj
 0001:0006b1f1       ?dtor$4@?0??C_GetMechanismInfo@PKCS11@@QEAA?AV?$shared_ptr@UCK_MECHANISM_INFO@@@std@@KK@Z@4HA 000000018006c1f1 f   pkcs11.obj
 0001:0006b1fd       ?catch$12@?0??C_GetMechanismInfo@PKCS11@@QEAA?AV?$shared_ptr@UCK_MECHANISM_INFO@@@std@@KK@Z@4HA 000000018006c1fd f   pkcs11.obj
 0001:0006b20a       __catch$?C_GetMechanismInfo@PKCS11@@QEAA?AV?$shared_ptr@UCK_MECHANISM_INFO@@@std@@KK@Z$1 000000018006c20a f   pkcs11.obj
 0001:0006b269       ?dtor$5@?0??C_GetMechanismInfo@PKCS11@@QEAA?AV?$shared_ptr@UCK_MECHANISM_INFO@@@std@@KK@Z@4HA 000000018006c269 f   pkcs11.obj
 0001:0006b290       ?dtor$0@?0??C_InitToken@PKCS11@@QEAA?AV?$shared_ptr@V?$basic_string@DU?$char_traits@D@std@@V?$allocator@D@2@@std@@@std@@KV23@0@Z@4HA 000000018006c290 f   pkcs11.obj
 0001:0006b29c       ?dtor$1@?0??C_InitToken@PKCS11@@QEAA?AV?$shared_ptr@V?$basic_string@DU?$char_traits@D@std@@V?$allocator@D@2@@std@@@std@@KV23@0@Z@4HA 000000018006c29c f   pkcs11.obj
 0001:0006b2a8       ?dtor$2@?0??C_InitToken@PKCS11@@QEAA?AV?$shared_ptr@V?$basic_string@DU?$char_traits@D@std@@V?$allocator@D@2@@std@@@std@@KV23@0@Z@4HA 000000018006c2a8 f   pkcs11.obj
 0001:0006b2c8       ?dtor$3@?0??C_InitToken@PKCS11@@QEAA?AV?$shared_ptr@V?$basic_string@DU?$char_traits@D@std@@V?$allocator@D@2@@std@@@std@@KV23@0@Z@4HA 000000018006c2c8 f   pkcs11.obj
 0001:0006b2d4       ?dtor$4@?0??C_InitToken@PKCS11@@QEAA?AV?$shared_ptr@V?$basic_string@DU?$char_traits@D@std@@V?$allocator@D@2@@std@@@std@@KV23@0@Z@4HA 000000018006c2d4 f   pkcs11.obj
 0001:0006b2fd       ?dtor$5@?0??C_InitToken@PKCS11@@QEAA?AV?$shared_ptr@V?$basic_string@DU?$char_traits@D@std@@V?$allocator@D@2@@std@@@std@@KV23@0@Z@4HA 000000018006c2fd f   pkcs11.obj
 0001:0006b326       ?catch$15@?0??C_InitToken@PKCS11@@QEAA?AV?$shared_ptr@V?$basic_string@DU?$char_traits@D@std@@V?$allocator@D@2@@std@@@std@@KV23@0@Z@4HA 000000018006c326 f   pkcs11.obj
 0001:0006b333       __catch$?C_InitToken@PKCS11@@QEAA?AV?$shared_ptr@V?$basic_string@DU?$char_traits@D@std@@V?$allocator@D@2@@std@@@std@@KV23@0@Z$0 000000018006c333 f   pkcs11.obj
 0001:0006b35c       ?dtor$6@?0??C_InitToken@PKCS11@@QEAA?AV?$shared_ptr@V?$basic_string@DU?$char_traits@D@std@@V?$allocator@D@2@@std@@@std@@KV23@0@Z@4HA 000000018006c35c f   pkcs11.obj
 0001:0006b368       ?catch$16@?0??C_InitToken@PKCS11@@QEAA?AV?$shared_ptr@V?$basic_string@DU?$char_traits@D@std@@V?$allocator@D@2@@std@@@std@@KV23@0@Z@4HA 000000018006c368 f   pkcs11.obj
 0001:0006b375       __catch$?C_InitToken@PKCS11@@QEAA?AV?$shared_ptr@V?$basic_string@DU?$char_traits@D@std@@V?$allocator@D@2@@std@@@std@@KV23@0@Z$1 000000018006c375 f   pkcs11.obj
 0001:0006b3d7       ?dtor$7@?0??C_InitToken@PKCS11@@QEAA?AV?$shared_ptr@V?$basic_string@DU?$char_traits@D@std@@V?$allocator@D@2@@std@@@std@@KV23@0@Z@4HA 000000018006c3d7 f   pkcs11.obj
 0001:0006b400       ?dtor$0@?0??C_InitPIN@PKCS11@@QEAAXKV?$shared_ptr@V?$basic_string@DU?$char_traits@D@std@@V?$allocator@D@2@@std@@@std@@@Z@4HA 000000018006c400 f   pkcs11.obj
 0001:0006b40c       ?dtor$1@?0??C_InitPIN@PKCS11@@QEAAXKV?$shared_ptr@V?$basic_string@DU?$char_traits@D@std@@V?$allocator@D@2@@std@@@std@@@Z@4HA 000000018006c40c f   pkcs11.obj
 0001:0006b42c       ?dtor$2@?0??C_InitPIN@PKCS11@@QEAAXKV?$shared_ptr@V?$basic_string@DU?$char_traits@D@std@@V?$allocator@D@2@@std@@@std@@@Z@4HA 000000018006c42c f   pkcs11.obj
 0001:0006b438       ?dtor$3@?0??C_InitPIN@PKCS11@@QEAAXKV?$shared_ptr@V?$basic_string@DU?$char_traits@D@std@@V?$allocator@D@2@@std@@@std@@@Z@4HA 000000018006c438 f   pkcs11.obj
 0001:0006b467       ?catch$10@?0??C_InitPIN@PKCS11@@QEAAXKV?$shared_ptr@V?$basic_string@DU?$char_traits@D@std@@V?$allocator@D@2@@std@@@std@@@Z@4HA 000000018006c467 f   pkcs11.obj
 0001:0006b474       __catch$?C_InitPIN@PKCS11@@QEAAXKV?$shared_ptr@V?$basic_string@DU?$char_traits@D@std@@V?$allocator@D@2@@std@@@std@@@Z$0 000000018006c474 f   pkcs11.obj
 0001:0006b49d       ?dtor$4@?0??C_InitPIN@PKCS11@@QEAAXKV?$shared_ptr@V?$basic_string@DU?$char_traits@D@std@@V?$allocator@D@2@@std@@@std@@@Z@4HA 000000018006c49d f   pkcs11.obj
 0001:0006b4a9       ?catch$11@?0??C_InitPIN@PKCS11@@QEAAXKV?$shared_ptr@V?$basic_string@DU?$char_traits@D@std@@V?$allocator@D@2@@std@@@std@@@Z@4HA 000000018006c4a9 f   pkcs11.obj
 0001:0006b4b6       __catch$?C_InitPIN@PKCS11@@QEAAXKV?$shared_ptr@V?$basic_string@DU?$char_traits@D@std@@V?$allocator@D@2@@std@@@std@@@Z$1 000000018006c4b6 f   pkcs11.obj
 0001:0006b512       ?dtor$5@?0??C_InitPIN@PKCS11@@QEAAXKV?$shared_ptr@V?$basic_string@DU?$char_traits@D@std@@V?$allocator@D@2@@std@@@std@@@Z@4HA 000000018006c512 f   pkcs11.obj
 0001:0006b540       ?dtor$0@?0??C_SetPIN@PKCS11@@QEAAXKV?$shared_ptr@V?$basic_string@DU?$char_traits@D@std@@V?$allocator@D@2@@std@@@std@@0@Z@4HA 000000018006c540 f   pkcs11.obj
 0001:0006b54c       ?dtor$1@?0??C_SetPIN@PKCS11@@QEAAXKV?$shared_ptr@V?$basic_string@DU?$char_traits@D@std@@V?$allocator@D@2@@std@@@std@@0@Z@4HA 000000018006c54c f   pkcs11.obj
 0001:0006b558       ?dtor$2@?0??C_SetPIN@PKCS11@@QEAAXKV?$shared_ptr@V?$basic_string@DU?$char_traits@D@std@@V?$allocator@D@2@@std@@@std@@0@Z@4HA 000000018006c558 f   pkcs11.obj
 0001:0006b575       ?dtor$3@?0??C_SetPIN@PKCS11@@QEAAXKV?$shared_ptr@V?$basic_string@DU?$char_traits@D@std@@V?$allocator@D@2@@std@@@std@@0@Z@4HA 000000018006c575 f   pkcs11.obj
 0001:0006b581       ?dtor$4@?0??C_SetPIN@PKCS11@@QEAAXKV?$shared_ptr@V?$basic_string@DU?$char_traits@D@std@@V?$allocator@D@2@@std@@@std@@0@Z@4HA 000000018006c581 f   pkcs11.obj
 0001:0006b5b0       ?catch$12@?0??C_SetPIN@PKCS11@@QEAAXKV?$shared_ptr@V?$basic_string@DU?$char_traits@D@std@@V?$allocator@D@2@@std@@@std@@0@Z@4HA 000000018006c5b0 f   pkcs11.obj
 0001:0006b5bd       __catch$?C_SetPIN@PKCS11@@QEAAXKV?$shared_ptr@V?$basic_string@DU?$char_traits@D@std@@V?$allocator@D@2@@std@@@std@@0@Z$0 000000018006c5bd f   pkcs11.obj
 0001:0006b5e6       ?dtor$5@?0??C_SetPIN@PKCS11@@QEAAXKV?$shared_ptr@V?$basic_string@DU?$char_traits@D@std@@V?$allocator@D@2@@std@@@std@@0@Z@4HA 000000018006c5e6 f   pkcs11.obj
 0001:0006b5f2       ?catch$13@?0??C_SetPIN@PKCS11@@QEAAXKV?$shared_ptr@V?$basic_string@DU?$char_traits@D@std@@V?$allocator@D@2@@std@@@std@@0@Z@4HA 000000018006c5f2 f   pkcs11.obj
 0001:0006b5ff       __catch$?C_SetPIN@PKCS11@@QEAAXKV?$shared_ptr@V?$basic_string@DU?$char_traits@D@std@@V?$allocator@D@2@@std@@@std@@0@Z$1 000000018006c5ff f   pkcs11.obj
 0001:0006b661       ?dtor$6@?0??C_SetPIN@PKCS11@@QEAAXKV?$shared_ptr@V?$basic_string@DU?$char_traits@D@std@@V?$allocator@D@2@@std@@@std@@0@Z@4HA 000000018006c661 f   pkcs11.obj
 0001:0006b690       ?dtor$0@?0??C_OpenSession@PKCS11@@QEAAKKK@Z@4HA 000000018006c690 f   pkcs11.obj
 0001:0006b6ad       ?dtor$1@?0??C_OpenSession@PKCS11@@QEAAKKK@Z@4HA 000000018006c6ad f   pkcs11.obj
 0001:0006b6b9       ?dtor$2@?0??C_OpenSession@PKCS11@@QEAAKKK@Z@4HA 000000018006c6b9 f   pkcs11.obj
 0001:0006b6e8       ?catch$8@?0??C_OpenSession@PKCS11@@QEAAKKK@Z@4HA 000000018006c6e8 f   pkcs11.obj
 0001:0006b6f5       __catch$?C_OpenSession@PKCS11@@QEAAKKK@Z$0 000000018006c6f5 f   pkcs11.obj
 0001:0006b71e       ?dtor$3@?0??C_OpenSession@PKCS11@@QEAAKKK@Z@4HA 000000018006c71e f   pkcs11.obj
 0001:0006b72a       ?catch$9@?0??C_OpenSession@PKCS11@@QEAAKKK@Z@4HA 000000018006c72a f   pkcs11.obj
 0001:0006b737       __catch$?C_OpenSession@PKCS11@@QEAAKKK@Z$1 000000018006c737 f   pkcs11.obj
 0001:0006b793       ?dtor$4@?0??C_OpenSession@PKCS11@@QEAAKKK@Z@4HA 000000018006c793 f   pkcs11.obj
 0001:0006b7c0       ?dtor$0@?0??C_CloseSession@PKCS11@@QEAAXK@Z@4HA 000000018006c7c0 f   pkcs11.obj
 0001:0006b7e0       ?dtor$1@?0??C_CloseSession@PKCS11@@QEAAXK@Z@4HA 000000018006c7e0 f   pkcs11.obj
 0001:0006b7ec       ?dtor$2@?0??C_CloseSession@PKCS11@@QEAAXK@Z@4HA 000000018006c7ec f   pkcs11.obj
 0001:0006b818       ?catch$8@?0??C_CloseSession@PKCS11@@QEAAXK@Z@4HA 000000018006c818 f   pkcs11.obj
 0001:0006b825       __catch$?C_CloseSession@PKCS11@@QEAAXK@Z$0 000000018006c825 f   pkcs11.obj
 0001:0006b84e       ?dtor$3@?0??C_CloseSession@PKCS11@@QEAAXK@Z@4HA 000000018006c84e f   pkcs11.obj
 0001:0006b85a       ?catch$9@?0??C_CloseSession@PKCS11@@QEAAXK@Z@4HA 000000018006c85a f   pkcs11.obj
 0001:0006b867       __catch$?C_CloseSession@PKCS11@@QEAAXK@Z$1 000000018006c867 f   pkcs11.obj
 0001:0006b8c3       ?dtor$4@?0??C_CloseSession@PKCS11@@QEAAXK@Z@4HA 000000018006c8c3 f   pkcs11.obj
 0001:0006b8f0       ?dtor$0@?0??C_CloseAllSessions@PKCS11@@QEAAXK@Z@4HA 000000018006c8f0 f   pkcs11.obj
 0001:0006b910       ?dtor$1@?0??C_CloseAllSessions@PKCS11@@QEAAXK@Z@4HA 000000018006c910 f   pkcs11.obj
 0001:0006b91c       ?dtor$2@?0??C_CloseAllSessions@PKCS11@@QEAAXK@Z@4HA 000000018006c91c f   pkcs11.obj
 0001:0006b948       ?catch$8@?0??C_CloseAllSessions@PKCS11@@QEAAXK@Z@4HA 000000018006c948 f   pkcs11.obj
 0001:0006b955       __catch$?C_CloseAllSessions@PKCS11@@QEAAXK@Z$0 000000018006c955 f   pkcs11.obj
 0001:0006b97e       ?dtor$3@?0??C_CloseAllSessions@PKCS11@@QEAAXK@Z@4HA 000000018006c97e f   pkcs11.obj
 0001:0006b98a       ?catch$9@?0??C_CloseAllSessions@PKCS11@@QEAAXK@Z@4HA 000000018006c98a f   pkcs11.obj
 0001:0006b997       __catch$?C_CloseAllSessions@PKCS11@@QEAAXK@Z$1 000000018006c997 f   pkcs11.obj
 0001:0006b9f3       ?dtor$4@?0??C_CloseAllSessions@PKCS11@@QEAAXK@Z@4HA 000000018006c9f3 f   pkcs11.obj
 0001:0006ba20       ?dtor$0@?0??C_GetSessionInfo@PKCS11@@QEAA?AV?$shared_ptr@UCK_SESSION_INFO@@@std@@K@Z@4HA 000000018006ca20 f   pkcs11.obj
 0001:0006ba49       ?dtor$1@?0??C_GetSessionInfo@PKCS11@@QEAA?AV?$shared_ptr@UCK_SESSION_INFO@@@std@@K@Z@4HA 000000018006ca49 f   pkcs11.obj
 0001:0006ba69       ?dtor$2@?0??C_GetSessionInfo@PKCS11@@QEAA?AV?$shared_ptr@UCK_SESSION_INFO@@@std@@K@Z@4HA 000000018006ca69 f   pkcs11.obj
 0001:0006ba75       ?dtor$3@?0??C_GetSessionInfo@PKCS11@@QEAA?AV?$shared_ptr@UCK_SESSION_INFO@@@std@@K@Z@4HA 000000018006ca75 f   pkcs11.obj
 0001:0006ba9e       ?catch$11@?0??C_GetSessionInfo@PKCS11@@QEAA?AV?$shared_ptr@UCK_SESSION_INFO@@@std@@K@Z@4HA 000000018006ca9e f   pkcs11.obj
 0001:0006baab       __catch$?C_GetSessionInfo@PKCS11@@QEAA?AV?$shared_ptr@UCK_SESSION_INFO@@@std@@K@Z$0 000000018006caab f   pkcs11.obj
 0001:0006bad4       ?dtor$4@?0??C_GetSessionInfo@PKCS11@@QEAA?AV?$shared_ptr@UCK_SESSION_INFO@@@std@@K@Z@4HA 000000018006cad4 f   pkcs11.obj
 0001:0006bae0       ?catch$12@?0??C_GetSessionInfo@PKCS11@@QEAA?AV?$shared_ptr@UCK_SESSION_INFO@@@std@@K@Z@4HA 000000018006cae0 f   pkcs11.obj
 0001:0006baed       __catch$?C_GetSessionInfo@PKCS11@@QEAA?AV?$shared_ptr@UCK_SESSION_INFO@@@std@@K@Z$1 000000018006caed f   pkcs11.obj
 0001:0006bb49       ?dtor$5@?0??C_GetSessionInfo@PKCS11@@QEAA?AV?$shared_ptr@UCK_SESSION_INFO@@@std@@K@Z@4HA 000000018006cb49 f   pkcs11.obj
 0001:0006bb70       ?dtor$0@?0??C_Login@PKCS11@@QEAAXKKV?$shared_ptr@V?$basic_string@DU?$char_traits@D@std@@V?$allocator@D@2@@std@@@std@@@Z@4HA 000000018006cb70 f   pkcs11.obj
 0001:0006bb7c       ?dtor$1@?0??C_Login@PKCS11@@QEAAXKKV?$shared_ptr@V?$basic_string@DU?$char_traits@D@std@@V?$allocator@D@2@@std@@@std@@@Z@4HA 000000018006cb7c f   pkcs11.obj
 0001:0006bb99       ?dtor$2@?0??C_Login@PKCS11@@QEAAXKKV?$shared_ptr@V?$basic_string@DU?$char_traits@D@std@@V?$allocator@D@2@@std@@@std@@@Z@4HA 000000018006cb99 f   pkcs11.obj
 0001:0006bba5       ?dtor$3@?0??C_Login@PKCS11@@QEAAXKKV?$shared_ptr@V?$basic_string@DU?$char_traits@D@std@@V?$allocator@D@2@@std@@@std@@@Z@4HA 000000018006cba5 f   pkcs11.obj
 0001:0006bbd4       ?catch$10@?0??C_Login@PKCS11@@QEAAXKKV?$shared_ptr@V?$basic_string@DU?$char_traits@D@std@@V?$allocator@D@2@@std@@@std@@@Z@4HA 000000018006cbd4 f   pkcs11.obj
 0001:0006bbe1       __catch$?C_Login@PKCS11@@QEAAXKKV?$shared_ptr@V?$basic_string@DU?$char_traits@D@std@@V?$allocator@D@2@@std@@@std@@@Z$0 000000018006cbe1 f   pkcs11.obj
 0001:0006bc0a       ?dtor$4@?0??C_Login@PKCS11@@QEAAXKKV?$shared_ptr@V?$basic_string@DU?$char_traits@D@std@@V?$allocator@D@2@@std@@@std@@@Z@4HA 000000018006cc0a f   pkcs11.obj
 0001:0006bc16       ?catch$11@?0??C_Login@PKCS11@@QEAAXKKV?$shared_ptr@V?$basic_string@DU?$char_traits@D@std@@V?$allocator@D@2@@std@@@std@@@Z@4HA 000000018006cc16 f   pkcs11.obj
 0001:0006bc23       __catch$?C_Login@PKCS11@@QEAAXKKV?$shared_ptr@V?$basic_string@DU?$char_traits@D@std@@V?$allocator@D@2@@std@@@std@@@Z$1 000000018006cc23 f   pkcs11.obj
 0001:0006bc85       ?dtor$5@?0??C_Login@PKCS11@@QEAAXKKV?$shared_ptr@V?$basic_string@DU?$char_traits@D@std@@V?$allocator@D@2@@std@@@std@@@Z@4HA 000000018006cc85 f   pkcs11.obj
 0001:0006bcb0       ?dtor$0@?0??C_Logout@PKCS11@@QEAAXK@Z@4HA 000000018006ccb0 f   pkcs11.obj
 0001:0006bcd0       ?dtor$1@?0??C_Logout@PKCS11@@QEAAXK@Z@4HA 000000018006ccd0 f   pkcs11.obj
 0001:0006bcdc       ?dtor$2@?0??C_Logout@PKCS11@@QEAAXK@Z@4HA 000000018006ccdc f   pkcs11.obj
 0001:0006bd08       ?catch$8@?0??C_Logout@PKCS11@@QEAAXK@Z@4HA 000000018006cd08 f   pkcs11.obj
 0001:0006bd15       __catch$?C_Logout@PKCS11@@QEAAXK@Z$0 000000018006cd15 f   pkcs11.obj
 0001:0006bd3e       ?dtor$3@?0??C_Logout@PKCS11@@QEAAXK@Z@4HA 000000018006cd3e f   pkcs11.obj
 0001:0006bd4a       ?catch$9@?0??C_Logout@PKCS11@@QEAAXK@Z@4HA 000000018006cd4a f   pkcs11.obj
 0001:0006bd57       __catch$?C_Logout@PKCS11@@QEAAXK@Z$1 000000018006cd57 f   pkcs11.obj
 0001:0006bdb3       ?dtor$4@?0??C_Logout@PKCS11@@QEAAXK@Z@4HA 000000018006cdb3 f   pkcs11.obj
 0001:0006bde0       ?dtor$0@?0??C_FindObjectsInit@PKCS11@@QEAAXKV?$shared_ptr@VAttributes@@@std@@@Z@4HA 000000018006cde0 f   pkcs11.obj
 0001:0006bdec       ?dtor$1@?0??C_FindObjectsInit@PKCS11@@QEAAXKV?$shared_ptr@VAttributes@@@std@@@Z@4HA 000000018006cdec f   pkcs11.obj
 0001:0006be0c       ?dtor$2@?0??C_FindObjectsInit@PKCS11@@QEAAXKV?$shared_ptr@VAttributes@@@std@@@Z@4HA 000000018006ce0c f   pkcs11.obj
 0001:0006be18       ?dtor$3@?0??C_FindObjectsInit@PKCS11@@QEAAXKV?$shared_ptr@VAttributes@@@std@@@Z@4HA 000000018006ce18 f   pkcs11.obj
